(lp0
I32
aI852
aI11
aI13
aI9631
aI68
aI155
aI1
aI9
aI114
aI22
aI20
aI196
aI2
aI783
aI2
aI2662
aI5
aI13
aI3
aI2
aI18
aI2
aI279
aI1045
aI200
aI138
aI107
aI3
aI1
aI130
aI580
aI2
aI10
aI22
aI18
aI15
aI6
aI111
aI1
aI42
aI458
aI4
aI2
aI1
aI2
aI8
aI1
aI21
aI2
aI1
aI8
aI5
aI22
aI4
aI26
aI5
aI2
aI1
aI7
aI1
aI4
aI26
aI4
aI5
aI4
aI5
aI11
aI2
aI17
aI1
aI26
aI7
aI5
aI5
aI3
aI1
aI247
aI13
aI6
aI7
aI2
aI1
aI2
aI1
aI5
aI4
aI4
aI5
aI2
aI3
aI42
aI3
aI5
aI1
aI18
aI6
aI3
aI3
aI78
aI2
aI2
aI14
aI6
aI7
aI11
aI8
aI1
aI1
aI1
aI2
aI7
aI10
aI3
aI1
aI1
aI1
aI26
aI10
aI9
aI1
aI1
aI5
aI2
aI54
aI60
aI2
aI123
aI3
aI7
aI14
aI3
aI2
aI1412
aI5
aI5
aI1
aI2
aI6
aI2
aI1
aI16
aI8
aI22
aI9
aI6
aI2978
aI4
aI1
aI1
aI30
aI3
aI1
aI2
aI12
aI35
aI1
aI7
aI3
aI1
aI12
aI1
aI318
aI2
aI2
aI10
aI2
aI3
aI236
aI3
aI30
aI1
aI262
aI2
aI1831
aI12
aI1
aI321
aI6
aI2
aI204
aI1
aI5
aI2
aI12
aI1
aI2
aI608
aI2
aI2
aI1
aI1
aI50
aI5
aI5
aI1
aI1
aI2
aI2
aI2
aI1
aI1
aI3
aI142
aI1
aI4
aI8
aI1
aI3
aI2
aI1
aI2
aI31
aI1
aI13
aI1
aI1
aI65
aI17
aI471
aI1
aI1
aI1
aI4
aI1
aI1
aI2
aI1
aI4
aI2
aI2
aI1
aI4
aI1
aI4
aI28
aI1
aI2
aI2
aI6
aI10
aI2
aI3
aI1
aI1
aI1
aI1
aI4
aI2
aI3
aI12
aI73
aI2
aI3
aI103
aI36
aI6
aI76
aI3
aI2
aI1
aI2
aI1
aI1
aI1
aI14
aI82
aI2
aI1
aI2
aI2
aI2
aI1
aI3
aI4
aI2
aI1
aI18
aI2
aI26
aI3
aI1
aI2
aI1
aI1
aI3
aI504
aI1
aI2
aI1
aI7
aI9
aI1
aI1
aI4
aI1
aI1
aI1
aI1182
aI6
aI1
aI258
aI1
aI1
aI6
aI1
aI2
aI2
aI2
aI23
aI31
aI44
aI1
aI1
aI2
aI1
aI2
aI1
aI1
aI382
aI1
aI5
aI1
aI21
aI3
aI4
aI2
aI8
aI3
aI3
aI1
aI65
aI4
aI1
aI1
aI9
aI1
aI1
aI1
aI2
aI2
aI1
aI1
aI1
aI1
aI5
aI5
aI1
aI2
aI1
aI4
aI113
aI1
aI1
aI2
aI2
aI1
aI1
aI1
aI1
aI10
aI1
aI2
aI3
aI8
aI2
aI1
aI2
aI2
aI73
aI1
aI1
aI1
aI1
aI2
aI42
aI2
aI1
aI3
aI2
aI1
aI1
aI1
aI1
aI20
aI2
aI3
aI3
aI1
aI1
aI1
aI33
aI10
aI1
aI4
aI1219
aI22
aI1
aI1
aI1
aI1
aI1
aI1
aI1
aI1
aI4
aI2
aI1
aI2
aI6
aI1
aI1
aI1
aI1
aI1
aI1
aI5
aI96
aI5
aI1
aI1
aI2
aI1
aI1
aI2
aI19
aI1
aI1
aI1
aI1
aI1
aI2
aI1
aI2
aI4
aI2
aI3
aI6
aI1
aI2
aI1
aI3
aI2
aI3
aI2
aI2
aI1
aI8
aI2
aI3
aI4
aI1
aI1
aI6
aI1
aI1
aI1
aI1
aI2
aI1
aI1
aI1
aI1
aI1
aI1
aI6
aI1
aI1
aI1
aI3
aI2
aI2
aI2
aI2
aI12
aI1
aI3
aI2
aI49
aI5
aI1
aI7
aI1
aI2
aI1
aI2
aI1
aI3
aI1
aI1
aI1
aI1
aI1
aI66
aI15
aI1
aI18
aI1
aI2
aI3
aI366
aI2
aI1
aI21
aI2
aI1
aI6012
aI1
aI1
aI2
aI39
aI4
aI8
aI140
aI20
aI11
aI2
aI3
aI1
aI2
aI95
aI10
aI2
aI1
aI4
aI39
aI1
aI125
aI1
aI1
aI4
aI2
aI1
aI1
aI1
aI1
aI1
aI2
aI1
aI2
aI4
aI1
aI1
aI1
aI7
aI1
aI2
aI1
aI2
aI18
aI27
aI2
aI1
aI47
aI1
aI111
aI70
aI11
aI1
aI2
aI2
aI8
aI8
aI2
aI1
aI1
aI1
aI1
aI1
aI3
aI1
aI2
aI2
aI3
aI1
aI2
aI1
aI2
aI4
aI106
aI1
aI1
aI1
aI1
aI2
aI1
aI14
aI5
aI8
aI8
aI1
aI1
aI1
aI1
aI2
aI1
aI3
aI3
aI9
aI1
aI1
aI1
aI1
aI1
aI1
aI1
aI1
aI2
aI1
aI2
aI2
aI1
aI3
aI1
aI3
aI9
aI1
aI1
aI1
aI1
aI2
aI3
aI1
aI1
aI38
aI1
aI59
aI13
aI1
aI1
aI1
aI1
aI4
aI4
aI1
aI1
aI16
aI1
aI1
aI1
aI1
aI7
aI1
aI2
aI2
aI1
aI1
aI2
aI2
aI2
aI21
aI1
aI1
aI1
aI2
aI3
aI1
aI1
aI2
aI1
aI2
aI1
aI1
aI1
aI7
aI1
aI1
aI1
aI1
aI1
aI1
aI1
aI59
aI10
aI1
aI2
aI1
aI2
aI1
aI4
aI1
aI1
aI1
aI4
aI1
aI1
aI1
aI3
aI3
aI9
aI2
aI1
aI1
aI1
aI3
aI1
aI1
aI1
aI1
aI5
aI2
aI2
aI1
aI6
aI78
aI144
aI3
aI4
aI8
aI1
aI22
aI6
aI3
aI4
aI1
aI2
aI8
aI16
aI1
aI1
aI1
aI1
aI27
aI3
aI15
aI7
aI2
aI1
aI3
aI1
aI1
aI2
aI1
aI1
aI2
aI2
aI1
aI1
aI1
aI87
aI1
aI2
aI1
aI2
aI2
aI5
aI2
aI7
aI100
aI4
aI2
aI2
aI1
aI2
aI4
aI2
aI33
aI1
aI1
aI2
aI6
aI3
aI1
aI3
aI1
aI2
aI10
aI2
aI1
aI39
aI3
aI1
aI3
aI2
aI2
aI3
aI1
aI2
aI1
aI2
aI3
aI1
aI22
aI1
aI5
aI2
aI1
aI1
aI27
aI1
aI2
aI4
aI13
aI1
aI1
aI2
aI1
aI1
aI1
aI5
aI2
aI1
aI10
aI1
aI1
aI11
aI6
aI1
aI1
aI3
aI2
aI1
aI1
aI1
aI1
aI2
aI1
aI1
aI1
aI5
aI1
aI1
aI1
aI16
aI2
aI1
aI3
aI6
aI1
aI11
aI1
aI5
aI1
aI2
aI22
aI1
aI1
aI1
aI1
aI28
aI2
aI4
aI1
aI2
aI2
aI2
aI2
aI2
aI1
aI1
aI2
aI7
aI1
aI1
aI12
aI1
aI1
aI1
aI1
aI3
aI1
aI1
aI246
aI1
aI3
aI1
aI2
aI1
aI1
aI1
aI2
aI1
aI1
aI1
aI3
aI1
aI2
aI1
aI9
aI1
aI1
aI2
aI2
aI1
aI1
aI1
aI5
aI1
aI4
aI1
aI1
aI1
aI1
aI1
aI4
aI1
aI1
aI7
aI44
aI1
aI3
aI4
aI1
aI1
aI1
aI2
aI1
aI1
aI1
aI1
aI1
aI1
aI1
aI1
aI10
aI1
aI1
aI1
aI2
aI12
aI1
aI1
aI46
aI98
aI21
aI1
aI1
aI1
aI2
aI1
aI1
aI1
aI1
aI1
aI2
aI1
aI15
aI3
aI2
aI1
aI2
aI1
aI1
aI12
aI32
aI1
aI1
aI1
aI4
aI1
aI1
aI1
aI1
aI1
aI2
aI1
aI1
aI1
aI1
aI1
aI87
aI1
aI1
aI1
aI1
aI1
aI95
aI1
aI1
aI13
aI1
aI16
aI1
aI20
aI2
aI5
aI1
aI2
aI1
aI1
aI1
aI5
aI1
aI1
aI204
aI1
aI1
aI6
aI1
aI1
aI3
aI2
aI1
aI3
aI1
aI1
aI2
aI2
aI10
aI3
aI1
aI4
aI103
aI3
aI1
aI24
aI2
aI1
aI4
aI33
aI1
aI5
aI1
aI9
aI1
aI1
aI4
aI1
aI2
aI1
aI1
aI48
aI1
aI1
aI3
aI6
aI1
aI1293
aI2
aI2
aI5
aI1
aI1
aI1
aI31
aI2
aI1
aI3
aI450
aI3
aI4
aI2
aI5
aI4
aI513
aI1
aI1
aI1
aI3
aI4
aI1
aI11
aI60
aI17
aI32
aI4
aI1
aI1
aI2
aI1978
aI1
aI1
aI10
aI71
aI2
aI5
aI1
aI276
aI310
aI1
aI8
aI2
aI1
aI33
aI3
aI2
aI308
aI1
aI1
aI4
aI9
aI3
aI5
aI9
aI10
aI670
aI12
aI12
aI3
aI11
aI6
aI6
aI3
aI4
aI1
aI2
aI1
aI1
aI3
aI52
aI917
aI6
aI6
aI2
aI3
aI2
aI1
aI1
aI161
aI3
aI3
aI1
aI3
aI150
aI2060
aI8
aI12
aI78
aI2
aI8
aI1
aI1
aI3
aI3
aI3
aI2
aI104
aI1
aI74
aI1
aI2
aI6
aI29
aI71
aI1
aI74
aI2
aI37
aI13
aI1
aI4
aI65
aI1
aI11
aI37
aI4
aI3
aI85
aI16
aI4
aI2
aI1
aI2
aI13
aI2
aI13
aI7
aI1
aI1
aI982
aI2
aI3
aI1
aI1
aI37
aI16
aI4
aI1
aI12
aI28
aI1
aI18
aI3
aI1
aI2
aI2
aI2
aI14
aI22
aI1
aI26
aI4
aI1
aI1
aI3
aI1
aI1
aI13
aI1
aI5
aI4
aI1
aI3
aI1
aI1
aI1
aI2
aI1
aI1
aI1
aI37
aI15
aI1
aI1
aI52
aI4
aI1
aI354
aI8
aI2
aI4
aI1
aI1
aI1
aI8
aI2
aI4
aI3
aI1
aI1
aI6
aI1
aI1
aI4
aI3
aI1
aI1
aI3
aI61
aI1
aI790
aI1
aI5
aI10
aI1
aI9
aI4
aI1
aI1
aI23
aI1
aI22
aI1
aI3
aI1
aI1
aI3
aI8
aI1
aI2
aI1
aI1
aI1
aI1
aI13
aI19
aI2
aI1
aI1
aI1
aI2
aI1
aI1
aI2
aI1
aI1
aI1
aI5
aI30
aI2
aI1
aI1
aI7
aI1
aI1
aI2
aI4
aI3
aI1
aI1
aI34
aI2
aI2
aI4
aI2
aI3
aI2
aI1
aI6
aI1
aI1
aI1
aI1
aI1
aI1
aI3
aI5
aI2
aI31
aI3
aI2692
aI11
aI2
aI1
aI1
aI1
aI1
aI1
aI25
aI8
aI2
aI8
aI60
aI1
aI1
aI1
aI10
aI2
aI1
aI4
aI2
aI6
aI1
aI1
aI1
aI4
aI1
aI1
aI6
aI1
aI1
aI4
aI1
aI1
aI2
aI2
aI1
aI1
aI1
aI24
aI1
aI1
aI6
aI1
aI29
aI5
aI7
aI2
aI129
aI2
aI7
aI1
aI1
aI14
aI1
aI1
aI2
aI2
aI1
aI3
aI54
aI5
aI1
aI39
aI1
aI2
aI2
aI1
aI1
aI9
aI1
aI1
aI1
aI1
aI1
aI3
aI111
aI1
aI2
aI2
aI4
aI1
aI6
aI26
aI6
aI1
aI2
aI2
aI1
aI1
aI1
aI1
aI2
aI11
aI4
aI3
aI2
aI2
aI9
aI1
aI1
aI1
aI25
aI3
aI4
aI29
aI1
aI3
aI1
aI2
aI1
aI12
aI1
aI1
aI1
aI2
aI2
aI1
aI1
aI30
aI1
aI1
aI7
aI1
aI1
aI1
aI2
aI1
aI55
aI1
aI1
aI1
aI14
aI1
aI35
aI1
aI1
aI5
aI4
aI17
aI1
aI1
aI1
aI1
aI1
aI1
aI1
aI1
aI8
aI2
aI2
aI1
aI13
aI1
aI11
aI1
aI12
aI1
aI32
aI2
aI1
aI1
aI7
aI5
aI1
aI1
aI3
aI1
aI11
aI1
aI2
aI1
aI14
aI1
aI1
aI3
aI2
aI2
aI1
aI60
aI1
aI1
aI3
aI3
aI2
aI1
aI1
aI1
aI1
aI1
aI1
aI1
aI2
aI2
aI1
aI3
aI2
aI1
aI166
aI3
aI2
aI6
aI3
aI2
aI1
aI2
aI5
aI1
aI1
aI1
aI9
aI3
aI2
aI2
aI2
aI1
aI1
aI1
aI1
aI1
aI5
aI25
aI428
aI1
aI1
aI1
aI1
aI3
aI1
aI28
aI2
aI1
aI1
aI6
aI2
aI2
aI9
aI1
aI2
aI32
aI1
aI2
aI2
aI2
aI25
aI2
aI8
aI20
aI1
aI1
aI2
aI5
aI10
aI4
aI4
aI7
aI2
aI24
aI2
aI3
aI3
aI1
aI2
aI2
aI1
aI4
aI4
aI2
aI6
aI29
aI2
aI1
aI4
aI3
aI2
aI2
aI2
aI1
aI6
aI1
aI2
aI1
aI5
aI2
aI4
aI1
aI2
aI20
aI3
aI1
aI2076
aI1
aI2
aI2
aI1
aI1
aI37
aI7
aI2
aI1
aI1
aI1
aI7
aI1
aI8
aI30
aI2
aI2
aI1
aI4
aI22
aI2
aI1
aI12
aI9
aI1
aI1
aI2
aI841
aI1
aI1
aI4
aI1
aI8
aI5
aI4
aI2
aI27
aI11
aI1
aI1
aI12
aI5
aI1
aI1
aI1
aI1
aI1
aI51
aI63
aI1
aI2
aI1
aI737
aI1
aI4
aI31
aI11
aI2
aI1
aI1
aI3
aI2
aI3
aI1
aI1
aI1
aI267
aI2
aI3
aI154
aI1
aI1
aI4
aI1
aI1
aI3
aI6
aI3
aI1
aI7
aI6
aI4
aI3
aI125
aI1
aI2
aI1
aI1
aI1
aI52
aI1
aI1
aI1
aI1
aI5
aI1
aI1
aI1
aI4
aI1
aI1
aI1
aI19
aI3
aI4125
aI1
aI1
aI2
aI12
aI1
aI1
aI197
aI2
aI4
aI42
aI1
aI9
aI1
aI7
aI4
aI1
aI17
aI5
aI1
aI32
aI1
aI2
aI2
aI1
aI2
aI1
aI3
aI1
aI2
aI1
aI1
aI1
aI4
aI1
aI5
aI4
aI1
aI35
aI16
aI1
aI1
aI4
aI1
aI1
aI2
aI6
aI1
aI1
aI2
aI1
aI1
aI724
aI9
aI1
aI1
aI8
aI1
aI213
aI13
aI1
aI2
aI170
aI1
aI5
aI1
aI1
aI1
aI1
aI4
aI1
aI6
aI1
aI1
aI3
aI3
aI20
aI27
aI1
aI1
aI1127
aI6
aI1
aI1
aI5
aI11
aI3
aI1
aI1
aI1
aI1
aI1
aI1
aI1
aI1
aI2
aI1
aI1
aI1
aI1
aI1
aI1
aI1
aI3
aI1
aI49
aI1
aI1
aI6
aI1
aI1
aI1
aI2
aI2
aI1
aI1
aI1
aI1
aI1
aI1
aI1
aI2
aI176
aI1
aI1
aI3
aI2
aI1
aI1
aI2
aI1
aI1
aI3
aI1
aI1
aI1
aI1
aI2
aI1
aI1
aI1
aI1
aI101
aI2
aI1
aI1
aI2
aI12
aI3
aI4
aI1
aI1
aI8
aI1
aI8
aI3
aI1
aI1
aI1
aI1
aI468
aI1
aI1064
aI39
aI1
aI4
aI3
aI1
aI3
aI3
aI6150
aI1
aI1
aI1
aI7
aI1
aI2
aI1
aI2
aI1
aI1
aI1
aI1
aI1
aI1
aI1
aI1
aI1
aI1
aI1
aI1
aI1
aI1
aI10
aI1
aI1
aI1
aI1
aI1
aI6
aI6
aI17
aI1
aI1
aI1
aI1
aI2
aI2
aI2
aI1
aI1
aI2
aI4
aI3
aI1
aI1
aI1
aI2
aI4
aI1
aI9
aI1
aI1
aI1
aI15
aI1
aI4
aI1
aI2
aI1
aI2
aI16
aI4
aI1
aI2
aI13
aI1
aI7
aI28
aI1
aI8
aI9
aI1
aI1
aI1
aI1
aI2
aI3
aI1
aI10
aI913
aI2
aI26
aI1
aI1
aI1
aI3
aI20
aI1
aI4
aI3
aI1
aI1
aI1
aI1
aI1
aI7
aI21
aI2
aI2
aI1
aI5
aI1
aI9
aI237
aI1
aI3
aI1
aI1
aI3
aI1
aI1
aI2
aI1
aI1
aI2
aI1
aI1
aI1
aI2
aI1
aI3
aI1
aI4
aI2
aI1
aI30
aI12
aI1
aI1
aI2
aI1
aI5
aI2
aI1
aI2
aI1
aI1
aI59
aI12
aI2
aI1
aI1
aI1
aI3
aI5
aI8
aI39
aI1
aI1
aI2
aI51
aI26
aI1
aI2
aI1
aI1
aI1
aI5
aI1
aI1
aI12
aI1
aI2
aI1
aI1
aI1
aI2
aI1
aI1
aI1
aI1
aI1
aI35
aI2
aI3
aI1
aI12
aI1
aI3
aI1
aI1
aI2
aI1
aI3
aI4
aI1
aI2
aI1
aI1
aI20
aI1
aI62
aI5
aI2
aI1
aI1
aI1
aI4
aI1
aI2
aI20
aI3
aI1
aI2
aI1
aI1
aI1
aI1
aI12
aI1
aI46
aI1
aI166
aI1
aI3
aI1
aI2
aI1
aI361
aI2586
aI1
aI1
aI2
aI1
aI3
aI2
aI1
aI1
aI129
aI1
aI259
aI36
aI1
aI1
aI2
aI51
aI1
aI2
aI13
aI1
aI8
aI3
aI7
aI2
aI2
aI33
aI2
aI1
aI9
aI1
aI1
aI2
aI1
aI4
aI3
aI1
aI3
aI1
aI8
aI3
aI1
aI2
aI1
aI1
aI1
aI1
aI17
aI1
aI2
aI1
aI1
aI1
aI1
aI39
aI2
aI2
aI9
aI3
aI2
aI704
aI2
aI1
aI17
aI1
aI336
aI3
aI1
aI5
aI2
aI2
aI2
aI65
aI1
aI1
aI1
aI2
aI1
aI1
aI1
aI1
aI2
aI1
aI16
aI1
aI12
aI1
aI6
aI2
aI3
aI1
aI4
aI1
aI3
aI1
aI2
aI1
aI97
aI1
aI1
aI3
aI3
aI1
aI1
aI1
aI42
aI2
aI1
aI80
aI2
aI13
aI2
aI1
aI2
aI206
aI1
aI1
aI1
aI5
aI1
aI1
aI1
aI172
aI12
aI1
aI1
aI2
aI7
aI1
aI1
aI6
aI1
aI8797
aI4
aI9
aI2
aI2
aI13
aI1
aI12
aI1
aI1
aI9
aI4
aI22
aI4
aI2
aI1
aI1
aI1
aI1
aI3
aI1
aI1
aI1
aI2
aI2
aI2
aI2
aI1
aI6
aI14
aI2
aI1
aI5
aI5
aI20
aI1
aI3
aI14
aI2
aI2
aI6
aI2
aI1
aI35
aI1
aI1
aI3
aI1
aI32
aI5
aI7
aI1
aI5
aI1
aI1
aI1
aI1
aI5
aI2
aI12
aI47
aI2
aI236
aI1
aI3
aI1
aI5
aI1
aI1
aI1
aI6
aI7
aI1
aI1
aI2
aI10
aI1
aI1
aI1
aI1
aI2
aI10
aI12
aI15
aI1
aI10
aI5
aI4
aI1
aI1
aI25
aI2
aI1
aI7
aI24
aI2
aI2
aI1
aI2
aI1
aI3
aI2
aI3
aI1
aI1
aI1
aI5
aI1
aI24
aI1
aI1
aI2
aI2
aI6
aI4
aI18
aI2
aI16
aI1
aI1
aI1098
aI1
aI3
aI1
aI1
aI11
aI1
aI2
aI1
aI1
aI3
aI5
aI1
aI1
aI14
aI2
aI46
aI5
aI13
aI3
aI1
aI39
aI3
aI6
aI1
aI1
aI1
aI1
aI1
aI1
aI1
aI1
aI1
aI1
aI1
aI1
aI7
aI163
aI21
aI7
aI1
aI1
aI1
aI2
aI1
aI2
aI1
aI1
aI1
aI1
aI57
aI1
aI23
aI41
aI2
aI1
aI1
aI1
aI1
aI1
aI1
aI1
aI1
aI25
aI2
aI11
aI1
aI1
aI30
aI1
aI32
aI37
aI1
aI3
aI20
aI1
aI6
aI56
aI1
aI1
aI1
aI1
aI31
aI1
aI1
aI42
aI2
aI1
aI3
aI8
aI2
aI1
aI6
aI2
aI1
aI2
aI1
aI1
aI1
aI1
aI1
aI1
aI1
aI1
aI3
aI107
aI17
aI1
aI2
aI1
aI5
aI1
aI1
aI1
aI6
aI10
aI1
aI1
aI6
aI1
aI1
aI103
aI1
aI1
aI31
aI4
aI5
aI1
aI1
aI3
aI1
aI1
aI1
aI1
aI2
aI1
aI4
aI1
aI2
aI289
aI1
aI1
aI1
aI1
aI5
aI2
aI345
aI1
aI18
aI2
aI4
aI1
aI1
aI267
aI1
aI15
aI1
aI1
aI1
aI170
aI3
aI42
aI4
aI3
aI10
aI1
aI108
aI16
aI7
aI1
aI1
aI12
aI2
aI2
aI2
aI1
aI1
aI1
aI3
aI14
aI1
aI4
aI1
aI1
aI4
aI65
aI2
aI2
aI14
aI1
aI2
aI1
aI3
aI1
aI2
aI1
aI1
aI1
aI44
aI1
aI1
aI1
aI2
aI3
aI4
aI30
aI11
aI1
aI1
aI3
aI2
aI1
aI9
aI1
aI3
aI1
aI1
aI2
aI1
aI1
aI23
aI2
aI1
aI1
aI1
aI1
aI1
aI1
aI1
aI1
aI1
aI7
aI2
aI1
aI6
aI2
aI1
aI1
aI1
aI1
aI1
aI9469
aI2
aI15
aI1
aI9
aI1
aI1
aI6
aI1
aI11
aI2
aI1
aI11
aI1
aI3
aI2
aI2
aI1
aI9
aI1
aI1
aI1
aI1
aI10
aI1
aI1
aI15
aI4
aI1
aI1
aI1
aI1
aI2
aI25
aI31
aI3
aI2
aI13
aI1
aI1
aI15
aI1
aI9
aI2
aI1
aI2
aI9
aI3
aI3
aI1
aI1
aI3
aI1
aI2
aI3
aI10
aI2
aI1
aI7
aI1
aI3
aI2
aI2
aI11
aI1
aI2
aI1
aI4
aI1
aI1
aI1
aI6127
aI1
aI1
aI94
aI1
aI4
aI1
aI1
aI1
aI21
aI2
aI1
aI2
aI1
aI26
aI6
aI2
aI10
aI2
aI2
aI34
aI1
aI1
aI6
aI4
aI1
aI1
aI8
aI1
aI36
aI1
aI32
aI1
aI9
aI1
aI1
aI2
aI69
aI2
aI1
aI5
aI1
aI1
aI1
aI4
aI1
aI1
aI1
aI1
aI155
aI9
aI1
aI8
aI4
aI2
aI1
aI6
aI6
aI30
aI1
aI1
aI1
aI1
aI5
aI1
aI1
aI3
aI1
aI1
aI1
aI12
aI1
aI5
aI1
aI1
aI39
aI1
aI2
aI5
aI1
aI2
aI2
aI4
aI2
aI1
aI269
aI2
aI12
aI1
aI1
aI3
aI1
aI2
aI1
aI1
aI3
aI6
aI2
aI1
aI1
aI2
aI1
aI5
aI12
aI1
aI3
aI2
aI1
aI1
aI2
aI10
aI1
aI3
aI1
aI3
aI1
aI92
aI1
aI4
aI15
aI1
aI1
aI2
aI3
aI1
aI7
aI1
aI4
aI1
aI23
aI2
aI5
aI1
aI158
aI8
aI1
aI1
aI1
aI1
aI6
aI1
aI3
aI2
aI9
aI2
aI2
aI6
aI4
aI30
aI1
aI12
aI1
aI1
aI15
aI1
aI1
aI51
aI1
aI5
aI1
aI1
aI4
aI3
aI1
aI1
aI7
aI2
aI1
aI3
aI1
aI1
aI2
aI2
aI1
aI12
aI1
aI2
aI7
aI1
aI1
aI1
aI16
aI14
aI1
aI1
aI1
aI1
aI1
aI1
aI1
aI1
aI4
aI1
aI1
aI2
aI2
aI1
aI58
aI5
aI1
aI189
aI1
aI1
aI9
aI1
aI1
aI1
aI3
aI4
aI7
aI13
aI5
aI1
aI1
aI327
aI3
aI13
aI8
aI2
aI1
aI1
aI1
aI1
aI2
aI1
aI8
aI2
aI4
aI1
aI4
aI39
aI1
aI1
aI1
aI1
aI1
aI1
aI1
aI12
aI2
aI1
aI9
aI437
aI2
aI1
aI1
aI3
aI9
aI1
aI2
aI39
aI19
aI1
aI1
aI1
aI21
aI1
aI13
aI2
aI32
aI1
aI7
aI1
aI1
aI9
aI1
aI53
aI2
aI12
aI4
aI28
aI65
aI2
aI1
aI27
aI11
aI4
aI4
aI2
aI3
aI3
aI2
aI1
aI5
aI6
aI74
aI1
aI6
aI1
aI1
aI1
aI1
aI4
aI1
aI1
aI1
aI3
aI1
aI217
aI1
aI1
aI1
aI1
aI1
aI1
aI8
aI1
aI3
aI2
aI2
aI3
aI4
aI42
aI1
aI5
aI1
aI134
aI3
aI1
aI20
aI2
aI1
aI3
aI1
aI4
aI1
aI1
aI1
aI9
aI1
aI1
aI1
aI32
aI1
aI9
aI3
aI2
aI8
aI9
aI1
aI2
aI5
aI1
aI1
aI23
aI1
aI1
aI9
aI4
aI1
aI3
aI1
aI11
aI3
aI2
aI1
aI3
aI35
aI1
aI1
aI1
aI1
aI13
aI1
aI1
aI1
aI8
aI1
aI8
aI1
aI1
aI1
aI1
aI2
aI2
aI1
aI1
aI7
aI1
aI1
aI1
aI1
aI4
aI1
aI1
aI1
aI1
aI49
aI1
aI2
aI4
aI1
aI20
aI1
aI3
aI1
aI1
aI1
aI1
aI1
aI38
aI1
aI1
aI3
aI8
aI2
aI148
aI1
aI1
aI3
aI2
aI1
aI2
aI1
aI1
aI1
aI1
aI1
aI2
aI2
aI1
aI1
aI1
aI1
aI1
aI1
aI1
aI3
aI4
aI22
aI1
aI1
aI8
aI1
aI1
aI205
aI1
aI2
aI1
aI2
aI18
aI1
aI2
aI5
aI42
aI6
aI31
aI1
aI1
aI1
aI3
aI1
aI1
aI1
aI5
aI1
aI3
aI1
aI1
aI2
aI1
aI1
aI1
aI2
aI1
aI6
aI1
aI1
aI94
aI1
aI3
aI2
aI1
aI3
aI1
aI8
aI2
aI1
aI5
aI7
aI1
aI125
aI6
aI1
aI1
aI1
aI3
aI1
aI1
aI1
aI2
aI5
aI2
aI2
aI1
aI1
aI1
aI30
aI31
aI1
aI1
aI1
aI308
aI1
aI4
aI7
aI1
aI4
aI21
aI1
aI2
aI1
aI1
aI1
aI1
aI1
aI9
aI3
aI1
aI46
aI1
aI2
aI1
aI1
aI26
aI1
aI1
aI1
aI17
aI1
aI5
aI1
aI2
aI2
aI2
aI1
aI4
aI1
aI2
aI1
aI1
aI4
aI1
aI1
aI36
aI4
aI2
aI1
aI1
aI2
aI1
aI1
aI27
aI2
aI1
aI2
aI1
aI1
aI8
aI1
aI1
aI1
aI1
aI1
aI1138
aI2
aI2
aI1
aI1
aI2
aI2
aI84
aI2
aI4
aI1
aI1
aI1
aI844
aI1
aI4
aI1
aI1
aI2
aI1
aI1
aI2
aI3
aI1
aI8
aI1
aI1
aI2
aI1
aI3
aI3
aI5
aI8
aI1
aI2
aI1
aI1
aI30
aI25
aI81
aI6
aI15
aI1
aI2
aI1
aI1
aI1
aI4
aI8
aI1
aI2
aI1
aI1
aI222
aI1
aI2
aI1
aI1
aI10
aI5
aI5
aI1
aI3
aI1
aI1
aI7
aI1
aI1
aI2
aI2
aI18
aI2
aI1
aI2
aI12
aI1
aI3
aI4
aI4
aI2
aI2
aI1
aI35
aI1
aI12
aI53
aI1
aI1
aI1
aI1
aI1
aI1
aI13
aI13
aI1
aI1
aI1
aI4
aI1
aI1
aI4
aI1
aI1
aI1
aI2
aI29
aI99
aI4
aI1
aI2
aI8
aI4
aI2
aI1
aI4
aI12
aI2
aI1
aI1
aI5
aI12
aI1
aI1
aI7
aI2
aI2
aI35
aI6
aI2
aI1
aI1
aI1
aI2
aI1
aI1
aI1
aI2
aI5
aI1
aI22298
aI8
aI1
aI3
aI5
aI2
aI13
aI1
aI2
aI1
aI1
aI1
aI2
aI3
aI21
aI4
aI3
aI24
aI12
aI3
aI10
aI7
aI1
aI4
aI2
aI1
aI517
aI1
aI2
aI9
aI8
aI8
aI31
aI1
aI2
aI1
aI1
aI61
aI1
aI2
aI5
aI1
aI20
aI3
aI1
aI4
aI1
aI1
aI1
aI1
aI3
aI5
aI2
aI1
aI52
aI1
aI21
aI4
aI68
aI1
aI36
aI3
aI1
aI4
aI4
aI1
aI1
aI7
aI1
aI2
aI1
aI1
aI2
aI3
aI4
aI6
aI4
aI4
aI1
aI14
aI1011
aI24
aI141
aI1
aI39
aI17
aI2
aI1
aI2
aI2
aI1
aI6
aI41
aI58
aI2
aI13
aI3
aI1
aI23
aI21
aI1
aI12
aI1
aI1
aI1
aI1
aI3
aI6
aI1
aI1
aI24
aI3
aI181
aI6
aI5
aI1
aI3
aI18
aI1
aI2
aI123
aI1
aI1
aI1
aI1
aI1
aI1
aI1
aI9
aI2
aI1
aI6
aI1
aI13
aI194
aI3
aI1
aI1
aI5
aI3
aI1
aI5
aI120
aI2
aI4
aI3
aI2
aI21
aI2
aI1
aI30
aI6
aI2
aI1
aI2
aI1
aI46
aI1
aI1
aI30
aI1
aI2
aI10
aI6
aI1
aI1
aI1
aI1
aI37
aI2
aI1
aI1
aI3
aI2
aI4
aI2
aI1
aI2
aI142
aI1
aI1
aI1
aI1
aI1
aI1
aI12
aI1
aI1
aI2
aI1
aI3
aI1
aI3
aI10
aI2
aI1
aI4
aI1
aI2
aI1
aI1
aI8
aI3
aI7
aI1
aI9
aI4
aI1
aI42
aI2
aI5
aI1
aI1
aI1
aI1
aI8
aI1
aI2
aI4
aI10
aI3
aI1
aI13
aI6
aI11
aI291
aI1
aI9
aI3
aI5
aI1
aI20
aI1
aI1
aI2
aI1
aI1
aI1
aI1
aI1
aI3
aI1
aI3
aI71
aI1
aI12
aI12
aI3
aI1
aI1
aI3
aI7
aI2
aI7
aI1
aI4
aI4
aI20
aI1
aI1
aI4
aI5
aI1
aI11
aI1
aI7
aI1
aI1
aI2
aI3
aI2
aI3
aI1
aI5
aI1
aI1
aI1
aI2
aI3
aI5
aI4
aI2
aI1
aI2
aI1
aI1
aI1
aI1
aI30
aI1
aI1
aI9
aI4
aI7
aI3
aI3
aI8
aI3
aI5
aI1
aI1
aI1
aI1
aI1
aI1
aI1
aI2
aI1
aI3
aI12
aI1
aI1
aI1
aI2
aI1
aI5
aI88
aI6
aI1
aI2
aI4
aI1
aI1
aI1
aI1
aI1
aI1
aI1
aI3
aI8
aI1
aI6
aI2
aI2
aI1
aI1
aI79
aI1
aI1
aI1
aI3
aI3
aI14
aI1
aI12
aI3
aI2
aI2
aI1
aI3
aI2
aI1
aI1
aI1
aI7
aI1
aI4
aI4
aI3
aI1
aI1
aI6
aI1
aI1
aI2
aI2
aI6
aI27
aI12
aI1
aI1
aI1
aI73
aI1
aI1
aI2
aI3
aI2
aI1
aI1
aI1
aI19
aI1
aI1
aI1
aI1
aI1
aI15
aI1
aI1
aI1
aI10
aI23
aI3
aI1
aI1
aI9
aI1
aI62
aI1
aI29
aI1
aI1
aI1
aI1
aI1
aI1
aI1
aI1
aI1
aI1
aI13
aI3
aI1
aI23
aI2
aI1
aI5
aI6
aI3
aI2
aI16
aI4
aI2
aI1
aI1
aI1
aI1
aI2
aI1
aI1
aI1
aI1
aI12
aI1
aI60
aI1
aI3
aI30
aI3
aI1
aI1
aI1
aI1
aI1
aI1
aI1
aI1
aI2
aI2
aI3
aI5
aI26
aI7
aI2
aI1
aI1
aI2
aI1
aI1
aI17
aI4
aI6
aI1
aI1
aI1
aI6
aI1
aI4
aI7
aI1
aI1
aI1
aI3
aI15
aI116
aI1
aI3
aI3
aI1
aI9
aI11
aI1
aI29
aI256
aI1
aI128
aI3
aI1
aI109
aI1
aI1
aI1
aI4
aI6
aI1
aI4
aI1
aI1
aI10
aI7
aI1
aI1
aI5
aI7
aI2
aI1
aI1
aI27
aI1
aI1
aI1
aI5
aI1
aI1
aI7
aI1
aI2
aI1
aI20
aI13
aI6
aI59
aI2
aI1
aI438
aI3
aI4
aI3
aI1
aI2
aI1
aI1
aI2
aI3
aI1
aI1
aI1
aI1
aI1
aI15
aI1
aI1
aI147
aI1
aI7
aI2
aI1
aI1
aI1
aI1
aI2
aI4
aI1
aI1
aI1
aI2
aI2
aI1
aI25
aI1
aI23
aI1
aI4
aI17
aI1
aI1
aI1
aI1
aI3
aI2
aI160
aI1
aI1
aI1
aI1
aI4
aI1
aI1
aI1
aI1
aI7
aI1
aI1
aI9
aI1
aI1
aI236
aI1
aI14
aI6
aI11
aI1
aI1
aI1
aI2
aI4
aI12
aI12
aI2
aI1
aI1
aI1
aI2
aI1
aI1
aI1
aI3
aI1
aI2
aI8
aI1
aI2
aI2
aI1
aI2
aI1
aI1
aI1
aI1
aI19
aI1
aI1
aI6
aI1
aI2
aI2
aI1
aI2
aI976
aI1
aI3
aI6
aI5
aI2
aI4
aI2
aI6
aI1
aI33
aI1
aI1
aI2
aI10
aI1
aI1
aI36
aI1
aI1
aI2
aI4
aI3
aI1
aI6
aI2
aI1
aI1
aI1
aI1
aI1
aI5
aI11
aI1
aI1
aI1
aI1
aI1
aI1
aI7
aI1
aI1
aI1
aI4
aI2
aI1
aI2
aI2
aI7
aI1
aI3
aI1
aI2
aI14
aI12
aI1
aI1
aI3
aI3
aI448
aI2
aI4
aI2
aI1
aI1
aI4
aI19
aI1
aI1
aI1
aI1
aI1
aI1
aI1
aI1
aI1
aI1
aI11
aI1
aI3
aI6
aI1
aI1
aI1
aI1
aI1
aI4
aI1
aI3
aI1
aI4
aI1
aI2
aI1
aI1
aI1
aI1
aI1
aI5
aI2
aI24
aI57
aI2
aI1
aI1
aI2
aI1
aI9
aI1
aI3
aI2
aI1
aI2
aI1
aI156
aI6
aI5
aI1
aI1
aI1
aI4
aI1
aI1
aI2
aI1
aI2
aI1
aI18
aI2
aI4
aI1
aI1
aI2
aI5
aI2
aI1
aI1
aI2
aI1
aI1
aI1
aI10
aI1
aI1
aI2
aI2
aI10
aI90
aI1
aI3
aI1
aI1
aI1
aI1
aI1
aI2
aI1
aI2
aI1
aI1
aI1
aI1
aI3
aI1
aI14
aI1
aI22
aI1
aI154
aI946
aI1
aI11
aI7
aI1
aI2
aI2
aI1
aI1
aI11
aI1
aI2
aI1
aI3
aI3
aI2
aI1
aI1
aI1
aI1
aI218
aI1
aI1
aI1
aI1
aI1
aI24
aI2
aI1
aI1
aI2
aI2
aI1
aI1
aI1
aI1
aI1
aI1
aI1
aI1
aI18
aI2
aI1
aI1
aI3
aI4
aI1
aI1
aI256
aI1
aI3
aI3
aI52
aI1
aI1
aI1
aI1
aI1
aI80
aI2
aI1
aI3
aI1
aI1
aI2
aI2
aI1
aI3
aI2
aI1
aI1
aI1
aI1
aI2
aI2
aI3
aI1
aI175
aI3
aI2
aI1
aI1
aI1
aI1
aI4
aI1
aI1
aI1
aI1
aI1
aI283
aI1
aI1
aI1
aI6
aI1
aI1
aI3
aI5
aI1
aI6
aI4
aI1
aI1
aI1
aI6
aI1
aI1
aI1
aI2
aI6
aI1
aI4
aI7
aI1
aI1
aI1
aI13
aI4
aI3
aI1
aI1
aI4
aI1
aI2
aI1
aI2
aI1
aI1
aI4
aI2
aI1
aI6
aI1
aI1
aI1
aI2
aI275
aI1
aI1
aI1
aI12
aI1
aI1
aI1
aI9
aI1
aI2
aI1
aI4
aI1
aI1
aI1
aI1
aI2
aI1
aI110
aI2
aI1
aI1
aI25
aI1
aI5
aI4
aI1
aI2
aI1
aI6
aI19
aI1
aI44
aI1
aI10
aI2
aI2
aI2
aI1
aI37
aI1
aI1
aI15
aI2
aI7
aI1
aI2
aI1
aI1
aI3
aI1
aI1
aI1
aI1
aI10
aI1
aI9
aI1
aI2
aI2
aI1
aI1
aI2
aI1
aI2
aI1
aI4
aI32
aI1
aI3
aI1
aI1
aI3
aI2
aI1
aI533
aI1
aI1
aI6
aI12
aI1
aI1
aI1
aI1
aI6
aI1
aI118
aI1
aI1
aI7
aI1
aI5
aI1
aI9
aI4
aI2
aI44
aI19
aI1113
aI1
aI1
aI1
aI4
aI10
aI1
aI1
aI10
aI1
aI2
aI2
aI4
aI1
aI44
aI1
aI1
aI1
aI1
aI1
aI49
aI1
aI1
aI1
aI1
aI1
aI1
aI1
aI1
aI1
aI53
aI1
aI5
aI2
aI1
aI74
aI1
aI1
aI1
aI1
aI1
aI1
aI1
aI1
aI4
aI2
aI1
aI1
aI1
aI1
aI2
aI1
aI1
aI1
aI3
aI1
aI1
aI1
aI4
aI1
aI1
aI51
aI5
aI4
aI2
aI1
aI3
aI17
aI1
aI4
aI4
aI1
aI6
aI1
aI1
aI8
aI1
aI7
aI1
aI1
aI3
aI7
aI2
aI1
aI5
aI1
aI1
aI1
aI5
aI1
aI1
aI2
aI1
aI1
aI79
aI1
aI3
aI1
aI1
aI1
aI1
aI27
aI2
aI7
aI9
aI1
aI1
aI3
aI4
aI1
aI1
aI1
aI1
aI1
aI2
aI15
aI1
aI3
aI1
aI1
aI1
aI1
aI4
aI1
aI1
aI3
aI1
aI3
aI1
aI12
aI1
aI1
aI1
aI2
aI1
aI1
aI2
aI2
aI2
aI197
aI1
aI2
aI248
aI3
aI449
aI2
aI1
aI1
aI1
aI1
aI4
aI4
aI2
aI1
aI1
aI1
aI2
aI1
aI1
aI19
aI2
aI1
aI2
aI2
aI1
aI1
aI3
aI1
aI8
aI1
aI1
aI1
aI3
aI1
aI1
aI1
aI7
aI249
aI1
aI2
aI1
aI1
aI5
aI1
aI2
aI3
aI4
aI1
aI2
aI1
aI1
aI1
aI1
aI1
aI1
aI1
aI1
aI11
aI1
aI2
aI1
aI1
aI1
aI1
aI4
aI1
aI61
aI1
aI1
aI2
aI1
aI4
aI1
aI1
aI1
aI1
aI1
aI4
aI2
aI5
aI1
aI1
aI2
aI3
aI47
aI1
aI2
aI4
aI65
aI1
aI1
aI1
aI1
aI1
aI1
aI1
aI56
aI2
aI1
aI3
aI2
aI4
aI3
aI1
aI1
aI6
aI1
aI43
aI13
aI1
aI1
aI2
aI2
aI1
aI1
aI1
aI1
aI1
aI1
aI2
aI1
aI1
aI1815
aI2
aI1
aI1
aI1
aI1
aI1
aI1
aI1
aI1
aI1
aI4
aI1
aI1
aI1
aI1
aI1
aI1
aI1
aI1
aI1
aI1
aI2
aI2
aI1
aI1
aI1
aI1
aI1
aI1
aI2
aI1
aI1
aI1
aI1
aI1
aI1
aI9
aI4
aI9
aI1
aI1
aI1
aI1
aI2
aI4
aI2
aI1
aI3
aI1
aI1
aI1
aI1
aI1
aI1
aI1
aI2
aI2
aI5
aI153
aI1
aI4
aI1
aI1
aI1
aI1
aI5
aI1
aI1
aI2
aI1
aI1
aI2
aI2
aI39
aI9
aI2
aI1
aI2
aI1
aI2
aI1
aI1
aI1
aI1
aI1
aI2
aI38
aI5
aI51
aI4
aI1
aI1
aI5
aI1
aI2
aI2
aI3
aI1
aI2
aI3
aI1
aI4
aI16
aI1
aI1
aI1
aI2
aI1
aI1
aI7
aI2
aI3
aI3
aI1
aI1
aI1
aI2
aI10
aI5
aI9
aI5
aI1
aI2
aI3
aI1
aI1
aI1
aI1
aI1
aI65
aI1
aI1
aI1
aI1
aI7
aI5
aI38
aI1
aI1
aI1
aI1
aI6
aI4
aI1
aI1
aI1
aI1
aI1
aI1
aI4
aI2
aI23
aI44
aI2
aI1
aI1
aI4
aI1
aI1
aI2
aI1
aI2
aI1
aI1
aI178
aI2
aI1
aI1
aI1
aI1
aI1
aI21
aI3
aI1
aI2
aI1
aI1
aI1
aI2
aI8
aI1
aI1
aI1
aI3
aI6
aI1
aI1
aI1
aI4
aI1
aI67
aI1
aI1
aI1
aI12
aI4
aI1
aI77
aI1
aI1
aI4
aI1
aI2
aI1
aI1
aI10
aI1
aI1
aI1
aI1
aI4
aI5
aI1
aI4
aI9
aI1
aI2
aI2
aI1
aI15
aI2
aI16
aI1
aI2
aI130
aI2
aI2
aI1
aI3
aI12
aI1
aI1
aI2
aI1
aI1
aI23
aI4
aI2
aI1
aI6
aI1
aI1
aI8
aI1
aI1
aI1
aI1
aI4
aI1
aI6
aI4446
aI1
aI1
aI2
aI1
aI2
aI1
aI2
aI29
aI2
aI1
aI1
aI1
aI2
aI1
aI1
aI1
aI94
aI1
aI1
aI1
aI1
aI1
aI1
aI1
aI10
aI5
aI1
aI1
aI3
aI3
aI4
aI2
aI1
aI2
aI159
aI1
aI1
aI1
aI1
aI1
aI1
aI1
aI3
aI1
aI1
aI3
aI1
aI1
aI1
aI1
aI1
aI2
aI1
aI2
aI2
aI1
aI2
aI4
aI1
aI7
aI2
aI1
aI2
aI1
aI2
aI1
aI1
aI1
aI7
aI1
aI1
aI1
aI5
aI2
aI3
aI2
aI1
aI1
aI5
aI2724
aI1
aI1
aI1
aI2
aI2
aI4
aI3
aI6
aI3
aI3
aI2
aI1
aI53
aI1
aI2
aI1
aI1
aI1
aI3
aI1
aI1
aI3
aI1
aI1
aI67
aI1
aI1
aI1
aI1
aI7
aI1
aI3
aI1
aI7
aI1
aI3
aI4
aI1
aI1
aI1
aI2
aI1
aI1
aI1
aI1
aI1
aI103
aI1
aI72
aI1
aI1
aI1
aI6
aI4
aI1
aI1
aI1
aI1
aI1
aI1
aI1
aI1
aI1
aI1
aI3
aI1
aI2
aI1
aI1
aI2
aI1
aI1
aI2
aI4
aI3
aI1
aI2
aI1
aI17
aI1
aI1
aI2
aI14
aI1
aI1
aI7
aI1
aI1
aI1
aI1
aI1
aI1
aI2
aI6
aI16
aI1
aI3
aI1
aI1
aI2
aI9
aI1
aI11
aI1
aI22
aI1
aI18
aI7
aI1
aI1
aI1
aI1
aI1
aI1
aI2
aI1
aI1
aI1
aI2
aI3
aI1
aI1
aI1
aI2
aI11
aI1
aI1
aI1
aI1006
aI1
aI2
aI1
aI1
aI1
aI1
aI1
aI6
aI1
aI1
aI1
aI1
aI1
aI1
aI1
aI2
aI2
aI1
aI1
aI1
aI1
aI1
aI1
aI417
aI1
aI1
aI1
aI18
aI1
aI1
aI1
aI10
aI2
aI14
aI1
aI1
aI1
aI2
aI1
aI1
aI1
aI20
aI1
aI99
aI9
aI6
aI1
aI50
aI118
aI1
aI2
aI2
aI1
aI1
aI29
aI2
aI1
aI1
aI1
aI1
aI1
aI15
aI12
aI1
aI1
aI1
aI6
aI1
aI1
aI11
aI1
aI2
aI1
aI1
aI1
aI3
aI1
aI1
aI1
aI2
aI1
aI1
aI4
aI4
aI1
aI60
aI2
aI1
aI2
aI1
aI1
aI1
aI1
aI1
aI1
aI4
aI3
aI1
aI1
aI1
aI1
aI1
aI1
aI157
aI2
aI2
aI1
aI1
aI6
aI1
aI3
aI26
aI12
aI4
aI3
aI4
aI1
aI1
aI1
aI1
aI1
aI1
aI1
aI1
aI1
aI2
aI1
aI1
aI1
aI3
aI4
aI2
aI9
aI1
aI1
aI1
aI1
aI1
aI1
aI1
aI2
aI1
aI1
aI1
aI6
aI4
aI11
aI134
aI3
aI1
aI1
aI1
aI77
aI1
aI1
aI1
aI1
aI26
aI1
aI2
aI1
aI1
aI1
aI29
aI1
aI1
aI1
aI38
aI2
aI1
aI1
aI1
aI1
aI1
aI1
aI2
aI2
aI1
aI1
aI1
aI1
aI1
aI1
aI3
aI1
aI1
aI1
aI4
aI2
aI2
aI1
aI1
aI1
aI1
aI1
aI1
aI1
aI2
aI1
aI1
aI39
aI4
aI1
aI7
aI1
aI1
aI10
aI1
aI2
aI39
aI1
aI7
aI6
aI1
aI1
aI1
aI1
aI1
aI3
aI16
aI4
aI5
aI2
aI1
aI1
aI1
aI41
aI5
aI1
aI2
aI2
aI1
aI1
aI1
aI4
aI2
aI1
aI12
aI2
aI1
aI1
aI1
aI336
aI2
aI1
aI66
aI1
aI1
aI1
aI1
aI7
aI6
aI1
aI2
aI1
aI30
aI17
aI231
aI1
aI5
aI5
aI1
aI2
aI1
aI1
aI8
aI2
aI1
aI3
aI2
aI1
aI1
aI2
aI27
aI1
aI12
aI1
aI1
aI117
aI2
aI1
aI1
aI1
aI2
aI12
aI19
aI7
aI1
aI1
aI1582
aI2
aI1
aI1
aI1
aI1
aI2
aI1
aI1
aI1
aI22
aI1
aI1
aI1
aI1
aI1
aI3
aI46
aI1
aI1
aI45
aI3
aI1
aI1
aI1
aI1
aI5
aI4
aI1
aI21
aI1
aI303
aI6
aI3
aI1
aI8
aI1
aI1
aI1
aI2
aI1
aI53
aI1
aI1
aI1
aI28
aI1
aI7
aI1
aI5
aI3
aI2
aI5
aI3
aI1
aI1
aI73
aI1
aI8
aI1
aI1
aI1
aI2
aI1
aI53
aI1
aI1
aI5
aI1
aI10
aI3
aI60
aI1
aI11
aI1
aI1
aI126
aI1
aI1
aI1
aI2
aI7
aI1
aI1
aI5
aI2
aI11
aI7
aI1
aI2
aI11
aI2
aI33
aI2
aI2
aI2
aI1
aI6
aI3
aI4
aI4
aI1
aI4
aI2
aI2
aI2
aI2
aI1
aI4
aI1
aI72
aI1
aI396
aI1
aI7
aI1
aI1
aI1
aI2
aI4201
aI4
aI12
aI1
aI1
aI1
aI2
aI13
aI1
aI87
aI13
aI1
aI3
aI46
aI1
aI1
aI1
aI13
aI1
aI30
aI2
aI1
aI1
aI1
aI1
aI30
aI26
aI1
aI1
aI1
aI2
aI8
aI1
aI50
aI10
aI2
aI3
aI2
aI1
aI8
aI1
aI1
aI1
aI1
aI1
aI1
aI6
aI1
aI1
aI1
aI3
aI1
aI5
aI1
aI1
aI4
aI1
aI20
aI1
aI1
aI1
aI1
aI4
aI3
aI1
aI1
aI1
aI1
aI2
aI1
aI1
aI3
aI1
aI22
aI1
aI2
aI1
aI2
aI528
aI4
aI1
aI1
aI6
aI1
aI1
aI1
aI1
aI11
aI1
aI1
aI607
aI1
aI1
aI1
aI1
aI75
aI1
aI2
aI1
aI1
aI10
aI1
aI3
aI2
aI1
aI1
aI1
aI14
aI7
aI1
aI5
aI5
aI1
aI1
aI1
aI17
aI1
aI1
aI7
aI13
aI14
aI1
aI1
aI2
aI1
aI1
aI1
aI1
aI11
aI6
aI1
aI10
aI1
aI1
aI3
aI1
aI1
aI6
aI1
aI2
aI3
aI2
aI2
aI1
aI72
aI1
aI1
aI1
aI1
aI1
aI1
aI1
aI3
aI5374
aI1
aI1
aI1
aI1
aI1
aI14
aI7
aI11
aI1
aI1
aI4
aI1
aI1
aI2
aI30
aI1
aI4
aI3
aI1
aI1
aI40
aI1
aI3
aI114
aI2
aI2
aI1
aI1
aI7553
aI2
aI1
aI19
aI1
aI1
aI5
aI1
aI2
aI2
aI1
aI1
aI3
aI1
aI1
aI2
aI1
aI10
aI1
aI82
aI1
aI1
aI1
aI1
aI13
aI1
aI3
aI1
aI1
aI2
aI1
aI1
aI3
aI1
aI1
aI2
aI2
aI1
aI1
aI1
aI1
aI1
aI9
aI28
aI1
aI2
aI3
aI492
aI1
aI19
aI18
aI1
aI1
aI101
aI2
aI1
aI1
aI1
aI22
aI3
aI1
aI1
aI51
aI1
aI3
aI1
aI2
aI2
aI1
aI2
aI1
aI24
aI2
aI1
aI2
aI1
aI1
aI1
aI28
aI1
aI1
aI1
aI1
aI2
aI7
aI13
aI1
aI2
aI7
aI4
aI5
aI1
aI6
aI3
aI1
aI1
aI2
aI1
aI602
aI1
aI23
aI1
aI1
aI1
aI1
aI2
aI2
aI2
aI1
aI1
aI1
aI2
aI1
aI2
aI3
aI1
aI5
aI1
aI3
aI1
aI2
aI1
aI4
aI1
aI1
aI1
aI1
aI4
aI3
aI1
aI1
aI1
aI9
aI8
aI32
aI1
aI2
aI1
aI7
aI1
aI1
aI2
aI1
aI2
aI1
aI1
aI7
aI1
aI15
aI8
aI1
aI1
aI1
aI2
aI99
aI1
aI5
aI2
aI1
aI2
aI1
aI1
aI1
aI1
aI1
aI1
aI1
aI3
aI2
aI1
aI1
aI1
aI3
aI1
aI1
aI2
aI72
aI12
aI1
aI1
aI2
aI11
aI2
aI1
aI1
aI4
aI1
aI22
aI1
aI1
aI4
aI1
aI1
aI4
aI1
aI1
aI87
aI2
aI2
aI2
aI1
aI1
aI5
aI4
aI1
aI1
aI1
aI1
aI4
aI1
aI1
aI1
aI2
aI2
aI1
aI7
aI1
aI2
aI2
aI2
aI7
aI51
aI2
aI105
aI1
aI1
aI24
aI1
aI2
aI1
aI1
aI4
aI10
aI9
aI41
aI3
aI5
aI1
aI3
aI1
aI7
aI27
aI1
aI1
aI7
aI1
aI1
aI1
aI8
aI2
aI111
aI1
aI26
aI2
aI1
aI1
aI3
aI1
aI3
aI2
aI9
aI3
aI1
aI1
aI1
aI150
aI1
aI36
aI1
aI1
aI2
aI1
aI1
aI27
aI1
aI49
aI21
aI1
aI1
aI1
aI3
aI1
aI1
aI1
aI1
aI1
aI1
aI10
aI7
aI4
aI1
aI1
aI2
aI2
aI1
aI7
aI41
aI1
aI1
aI1
aI15
aI2
aI6
aI3
aI3
aI3
aI2
aI14
aI1
aI1
aI7
aI1
aI1
aI1
aI6
aI1
aI1
aI3
aI2
aI1
aI379
aI3
aI1
aI1
aI1
aI12
aI159
aI1
aI2
aI1
aI1
aI3
aI2
aI1
aI7
aI1
aI2
aI12
aI8
aI1
aI13
aI1
aI1
aI1
aI1
aI2
aI2
aI1
aI1
aI1
aI1
aI2
aI1
aI6
aI6
aI1
aI19
aI1
aI1
aI6
aI2
aI1
aI1
aI22
aI1
aI6
aI4
aI2
aI1
aI1
aI1
aI1
aI100
aI2
aI12
aI1
aI46
aI13
aI3
aI1
aI2
aI1
aI1
aI1
aI1
aI2
aI5
aI1
aI1
aI1
aI1
aI1
aI2
aI2
aI2
aI1
aI2
aI4
aI1
aI2
aI2
aI1
aI1
aI6
aI1
aI1
aI2
aI3
aI750
aI1
aI1
aI1
aI1
aI2
aI1
aI1
aI1
aI6
aI1
aI1
aI1
aI305
aI2
aI5
aI2
aI14
aI2
aI5
aI1
aI1
aI1
aI1
aI3
aI2
aI67
aI1
aI2
aI2
aI1
aI1
aI2
aI1
aI3
aI31
aI3
aI1
aI12
aI1
aI4
aI77
aI1
aI1
aI1
aI1
aI6
aI12
aI3
aI6
aI1
aI14
aI1
aI1
aI1
aI2
aI1
aI1
aI2
aI1
aI1
aI1
aI1724
aI3
aI1
aI2
aI43
aI10
aI1
aI1
aI1
aI5
aI5
aI1
aI15
aI1
aI2
aI1
aI1
aI1
aI17
aI1
aI30
aI1
aI1
aI1
aI1
aI1
aI1
aI1
aI31
aI47
aI1
aI1
aI1
aI4
aI1
aI45
aI1
aI2
aI1
aI1
aI8
aI6
aI1
aI1
aI1
aI10
aI1
aI1
aI2
aI10
aI1
aI9
aI2
aI1
aI1
aI3
aI2
aI1
aI1
aI1
aI3
aI2
aI2
aI1
aI1
aI1
aI1
aI2
aI1
aI5
aI1
aI1
aI1
aI1
aI2
aI1
aI44
aI1
aI1
aI1
aI1
aI1
aI1
aI1
aI1
aI1
aI1
aI15
aI1
aI1
aI1
aI1
aI1
aI26
aI2
aI9
aI63
aI1
aI1
aI4
aI1
aI183
aI3
aI1
aI1
aI1
aI2
aI1
aI2
aI1
aI5
aI1
aI1
aI1
aI37
aI1
aI2
aI1
aI1
aI1
aI275
aI2
aI1
aI6
aI2
aI5
aI1
aI1
aI3
aI1
aI1
aI38
aI1
aI5
aI1
aI1
aI2
aI1
aI60
aI1
aI15
aI1
aI1
aI1
aI2
aI12
aI1
aI1
aI1
aI2
aI1
aI1
aI1
aI6
aI1
aI3
aI1
aI1
aI2
aI1
aI1
aI44
aI1
aI1
aI1
aI2
aI2
aI3
aI2
aI1
aI2
aI36
aI1
aI1
aI1
aI5
aI1
aI4
aI1
aI2
aI1
aI1
aI1
aI1
aI5
aI2
aI1
aI1
aI1
aI1
aI1
aI166
aI1
aI15
aI1
aI1
aI2
aI1
aI1
aI3
aI1
aI10
aI1
aI1
aI1
aI1
aI2
aI1
aI4
aI1
aI1
aI1
aI7
aI2
aI7
aI89
aI1
aI1
aI1
aI1
aI1
aI3
aI3
aI8
aI1
aI1
aI1
aI2
aI3
aI9
aI1
aI48
aI1
aI1
aI6
aI2
aI1
aI1
aI103
aI1
aI1
aI2
aI5
aI1
aI1
aI2
aI1
aI3
aI1
aI1
aI3
aI1
aI3
aI1
aI1
aI1
aI1
aI9
aI5
aI1
aI6
aI1
aI3
aI1
aI1
aI1
aI2
aI1
aI6
aI1
aI1
aI1
aI5
aI1
aI5
aI1
aI1
aI1
aI1
aI2
aI1
aI3
aI1
aI4
aI1
aI1
aI12
aI4
aI2
aI3
aI1
aI2
aI1
aI2
aI8
aI2
aI1
aI1
aI2
aI1
aI1
aI1
aI2
aI2
aI1
aI1
aI1
aI1
aI1181
aI1
aI3
aI1
aI2
aI1
aI5
aI1
aI1
aI1
aI8
aI1
aI1
aI1
aI5
aI2
aI2
aI2
aI1
aI1
aI1
aI13
aI1
aI2
aI1
aI1
aI1
aI5
aI16
aI2
aI1
aI18
aI1
aI2
aI2
aI1
aI1
aI1
aI395
aI25
aI4
aI4
aI2
aI1
aI1
aI1
aI2
aI2
aI2
aI3
aI1
aI1
aI1
aI1
aI1
aI1
aI1
aI1
aI1
aI1
aI3
aI3
aI2
aI1
aI25
aI1
aI1
aI1
aI1
aI1
aI1
aI1
aI1
aI1
aI1
aI3
aI1
aI2
aI1
aI2
aI1
aI1
aI17
aI1
aI19
aI1
aI1
aI2
aI1
aI5
aI1
aI1868
aI1
aI1
aI1
aI1
aI4
aI1
aI1
aI1
aI1
aI1
aI1
aI4
aI1
aI1
aI24
aI1
aI1
aI2
aI1
aI1
aI3
aI9
aI1
aI1
aI1
aI1
aI1
aI1
aI7
aI1
aI2
aI1
aI3
aI1
aI1
aI2
aI1
aI1
aI22
aI2
aI1
aI416
aI2
aI3
aI1
aI1
aI1
aI1
aI1
aI1
aI1
aI1
aI1
aI1
aI1
aI1
aI1
aI1
aI2266
aI12
aI1
aI1
aI604
aI1
aI1
aI1
aI7
aI4
aI1
aI1
aI1
aI1
aI1
aI1
aI1
aI1
aI1
aI410
aI1
aI4
aI3
aI1
aI1
aI1
aI1
aI1
aI1
aI1
aI1
aI5
aI4
aI1
aI1
aI1
aI1
aI1
aI1
aI7
aI53
aI1
aI1
aI3
aI40
aI2
aI1
aI1
aI1
aI1
aI13
aI1
aI1
aI2
aI1
aI1
aI1
aI1
aI2
aI675
aI4
aI83
aI1
aI18
aI7
aI6
aI1
aI1
aI1
aI1
aI47
aI1
aI2
aI5
aI7
aI4
aI1
aI3
aI2
aI3
aI3
aI1
aI20
aI1
aI9
aI1
aI2
aI1
aI1
aI6
aI2
aI1
aI55
aI287
aI1
aI1
aI1
aI7
aI1
aI1
aI3
aI45
aI20
aI1
aI1
aI1
aI1
aI1
aI2
aI1
aI1536
aI1
aI1
aI6
aI1
aI7
aI1
aI1
aI1
aI2
aI1
aI2
aI1
aI1
aI1
aI1
aI1
aI1
aI2
aI1
aI1
aI1
aI2
aI2
aI1
aI1
aI1
aI1
aI1
aI1
aI1
aI1
aI1
aI1
aI1
aI1
aI1
aI2
aI3
aI2
aI1
aI1
aI1
aI24
aI1
aI1
aI1
aI2
aI1
aI1
aI1
aI39
aI2
aI1
aI2
aI1
aI1
aI1
aI1
aI2
aI1
aI1
aI1
aI1
aI1
aI1
aI2
aI1
aI5
aI2
aI2
aI1
aI1
aI9
aI2
aI1
aI1
aI1
aI1
aI1
aI1
aI1
aI1
aI7
aI1
aI2
aI1
aI1
aI1
aI1
aI1
aI1
aI1
aI1
aI2
aI1
aI2
aI1
aI3
aI29
aI1
aI1
aI2
aI2
aI1
aI1
aI12
aI1
aI1
aI5
aI2
aI2
aI1
aI1
aI1
aI1
aI1
aI1
aI1
aI6
aI42
aI70
aI1
aI1
aI1
aI1
aI1
aI1
aI1
aI1
aI1
aI1
aI256
aI2
aI1
aI1
aI1
aI1
aI1
aI6
aI1
aI1
aI327
aI1
aI2
aI1
aI1
aI1
aI1
aI2
aI3
aI1
aI2
aI9
aI1
aI1
aI3
aI1
aI1
aI1
aI1
aI1
aI1
aI23
aI9
aI1
aI1
aI1
aI1
aI15
aI2
aI1
aI5
aI11
aI4
aI1
aI1
aI1
aI39
aI5
aI1
aI1
aI1
aI4
aI1
aI1
aI1
aI3
aI4
aI71
aI1
aI1
aI1
aI1
aI1
aI14
aI10
aI2
aI12
aI1
aI1
aI2
aI1
aI1
aI1
aI1
aI1
aI6
aI1
aI1
aI2
aI1
aI1
aI95
aI1
aI87
aI2
aI2
aI1
aI1
aI1
aI1
aI141
aI56
aI1
aI2
aI2
aI1
aI10
aI2
aI2
aI215
aI8
aI1
aI2
aI2
aI2
aI2
aI2
aI1
aI5
aI1
aI1
aI1
aI1
aI1
aI4
aI3
aI6
aI2
aI1
aI1
aI1
aI1
aI1
aI8
aI1
aI1
aI1
aI1
aI1
aI1
aI1
aI1418
aI2
aI22
aI1
aI1
aI2
aI4
aI1
aI3
aI1
aI3
aI1
aI2
aI85
aI1
aI1
aI1
aI1
aI1
aI1
aI1
aI1
aI11
aI9
aI58
aI1
aI1
aI1
aI3
aI1
aI2
aI1
aI1
aI1
aI4
aI1
aI1
aI2
aI1
aI2
aI1
aI1
aI1
aI1
aI2
aI4
aI2
aI12
aI2
aI1
aI1
aI1
aI1
aI1
aI1
aI2
aI1
aI1
aI11
aI98
aI1
aI5
aI1
aI1
aI1
aI1
aI1
aI1
aI2
aI4
aI1
aI1
aI1
aI1
aI1
aI1
aI15
aI1
aI1
aI1
aI12
aI1
aI1
aI18
aI1
aI1
aI1
aI17
aI1
aI1
aI1
aI1
aI1
aI2
aI1
aI1
aI1
aI1
aI27
aI2
aI1
aI1
aI1
aI1
aI1
aI1
aI1
aI1
aI67
aI2
aI1
aI1
aI1
aI1
aI1
aI1
aI1
aI1
aI18
aI3
aI1
aI1
aI1
aI1
aI1
aI8
aI2
aI2
aI1
aI1
aI3
aI1
aI1
aI7
aI4
aI1
aI15
aI1
aI1
aI1
aI3
aI1
aI1
aI1
aI1
aI1
aI1
aI1
aI2
aI12
aI2
aI2
aI1
aI1
aI3
aI1
aI1
aI1
aI1
aI2
aI1
aI1
aI1
aI1
aI1
aI4
aI3
aI2
aI1
aI1
aI1
aI5
aI30
aI8
aI1
aI1
aI118
aI2
aI1
aI1
aI3
aI1
aI1
aI1
aI36
aI1
aI12
aI22
aI1
aI14
aI13
aI1
aI1
aI57
aI1
aI1
aI1
aI9
aI1
aI1
aI1
aI3
aI5
aI1
aI1
aI4
aI2
aI5
aI1
aI1
aI1
aI1
aI27
aI57
aI1
aI16
aI1
aI1
aI43
aI2
aI22
aI4
aI2
aI1
aI1
aI1
aI19
aI2
aI1
aI1
aI1
aI24
aI1
aI16
aI2
aI2
aI1
aI1
aI1
aI1
aI17
aI7
aI2
aI3
aI1
aI3
aI1
aI2
aI5
aI2
aI1
aI4
aI8
aI1
aI2
aI1
aI2
aI2
aI1
aI2
aI1
aI1
aI1
aI1
a.