(lp0
I3892
aI36
aI1
aI272
aI25
aI86
aI1
aI8
aI1
aI88
aI478
aI1
aI3706
aI7
aI8
aI68
aI5
aI81
aI1
aI65
aI1
aI7961
aI1
aI14
aI27
aI2
aI22
aI1
aI27
aI146
aI24
aI118
aI3
aI5
aI1
aI66
aI46
aI1
aI53
aI2
aI2
aI41
aI3
aI38
aI2
aI5
aI1
aI4
aI1
aI180
aI5
aI1
aI7
aI1308
aI1
aI1
aI58
aI1
aI4
aI1
aI1
aI18
aI10
aI8
aI2
aI320
aI2
aI1
aI2
aI3
aI4
aI3
aI1602
aI1
aI1
aI6
aI17
aI31
aI1
aI1
aI1
aI1
aI1
aI9
aI1
aI10
aI1
aI1
aI1
aI3
aI1
aI1
aI1
aI1
aI1
aI1
aI1
aI2
aI1
aI1
aI1
aI2
aI1
aI1
aI1
aI46
aI3
aI2
aI1
aI1
aI1
aI1
aI1
aI1
aI5
aI1
aI2
aI4
aI5
aI1
aI297
aI1
aI2
aI1
aI2
aI248
aI1
aI1
aI2
aI1
aI5
aI1
aI1
aI1
aI3
aI1
aI1
aI132
aI1
aI2
aI1
aI1
aI3
aI1
aI1
aI49
aI1
aI1
aI1
aI1
aI1
aI1
aI2
aI2
aI16
aI2
aI11
aI1
aI2
aI6
aI25
aI1
aI2
aI1
aI5
aI1
aI14
aI2
aI1
aI1
aI1
aI1288
aI1
aI7
aI1
aI3
aI2
aI8
aI12
aI2
aI1
aI2
aI1
aI1
aI1
aI1
aI205
aI1
aI16
aI1
aI1
aI1
aI3
aI2
aI1
aI6
aI1
aI7
aI21
aI1
aI1
aI1
aI1
aI1
aI2
aI5
aI8
aI1
aI1
aI1
aI180
aI1
aI1
aI1
aI1
aI1
aI1
aI2
aI1
aI7
aI1
aI1
aI1
aI1
aI1
aI1
aI5
aI1
aI14
aI12
aI1
aI1
aI1
aI1
aI2
aI285
aI1
aI1
aI1
aI3
aI1
aI1
aI1
aI1
aI1
aI1
aI1
aI2
aI30
aI19
aI1
aI1
aI1
aI15
aI2
aI1
aI22
aI1
aI1
aI3
aI1
aI1
aI1
aI9
aI2
aI1
aI5
aI1
aI1
aI1
aI23
aI4
aI1
aI31
aI1
aI1
aI20
aI2
aI11
aI1
aI1
aI1
aI8
aI2
aI3
aI1
aI2
aI24
aI1
aI1
aI10
aI1
aI1
aI2
aI3
aI1
aI6
aI3
aI3
aI1
aI1
aI1
aI9
aI3
aI1
aI2
aI1
aI1
aI133
aI1
aI1
aI2
aI2
aI2
aI2
aI37
aI1
aI3
aI12
aI2
aI1
aI1
aI2
aI2
aI770
aI1
aI4
aI9
aI1
aI1
aI126
aI5
aI3
aI2
aI4
aI1
aI1
aI1
aI1
aI1
aI1
aI1
aI7
aI1
aI2
aI1
aI26
aI1
aI1
aI1
aI1
aI3
aI4
aI1
aI1
aI1
aI49
aI1
aI1
aI3
aI3
aI1
aI1
aI14
aI1
aI1
aI13
aI2
aI1
aI1
aI1
aI2
aI1
aI1
aI1
aI6
aI1
aI1
aI1
aI15
aI1
aI3
aI1
aI2
aI1
aI1
aI1
aI2
aI2
aI1
aI2
aI1
aI1
aI64
aI1
aI3
aI1
aI5
aI1
aI1
aI2
aI1
aI1
aI1
aI6
aI2
aI1
aI1
aI1
aI35
aI2
aI3
aI41
aI10
aI1
aI1
aI16
aI1
aI13
aI5
aI1
aI1
aI29
aI8
aI6
aI1
aI1
aI2
aI11
aI1
aI1
aI2
aI1
aI27
aI16
aI1
aI32
aI2
aI1
aI1
aI1
aI1
aI4
aI1
aI7
aI87
aI5
aI1
aI6
aI1
aI1
aI1
aI1
aI1
aI1
aI1
aI4
aI7
aI3
aI1
aI1
aI1
aI1
aI14
aI1
aI2
aI1
aI1
aI1
aI2
aI2
aI1
aI1
aI1
aI7
aI4
aI4
aI1
aI2
aI19
aI5
aI14
aI1
aI1
aI2
aI1
aI1
aI2
aI5
aI1
aI4
aI2
aI1
aI4
aI1
aI3
aI2
aI3
aI1
aI1
aI1
aI1
aI1
aI3
aI4
aI2
aI1
aI2
aI1
aI1
aI1
aI8
aI1
aI1
aI1
aI1
aI3
aI4
aI1
aI3
aI2
aI2
aI3
aI1
aI1
aI7
aI2
aI3
aI3
aI1
aI1
aI43
aI9
aI3
aI10
aI2
aI1
aI2
aI5
aI7
aI1
aI2
aI395
aI1
aI1
aI1
aI1
aI1
aI1
aI1
aI2
aI10
aI1
aI2
aI4
aI1
aI1
aI24
aI1
aI2
aI8
aI4
aI7
aI1
aI1
aI1
aI1
aI1
aI1
aI1
aI1
aI4
aI2
aI2
aI4
aI233
aI2
aI1
aI4
aI3
aI1
aI7
aI1
aI1
aI2
aI2
aI2
aI18
aI20
aI1
aI1
aI3
aI4
aI1
aI2
aI11
aI4
aI1
aI1
aI1
aI3
aI2
aI1
aI5
aI206
aI3
aI4
aI1
aI1
aI9948
aI9
aI3
aI2
aI8
aI1
aI50
aI2
aI5
aI22
aI1
aI1
aI2
aI2
aI1
aI1
aI2
aI3
aI1
aI1
aI2
aI22
aI16
aI6
aI2
aI1
aI2
aI27
aI1
aI34
aI1
aI2
aI8
aI1
aI1
aI1
aI2
aI3
aI2
aI1
aI13
aI2
aI1
aI1
aI1
aI3
aI1
aI2
aI1
aI1
aI8
aI1
aI2
aI1
aI1
aI5
aI1
aI4
aI1
aI4
aI14
aI1
aI2
aI1
aI5
aI9
aI7
aI19
aI3
aI6
aI691
aI2
aI2
aI1
aI1
aI1
aI9
aI1
aI1
aI30
aI300
aI1
aI3
aI2
aI1
aI6
aI187
aI1
aI1
aI1
aI12
aI6
aI61
aI1
aI410
aI6
aI1
aI1
aI2
aI2
aI12
aI1
aI1
aI1
aI292
aI2
aI12
aI1
aI1
aI1
aI1
aI2
aI1
aI1
aI1
aI1
aI1
aI2
aI1
aI2
aI2
aI1
aI14
aI2
aI2
aI1
aI2
aI1
aI3
aI1
aI124
aI97
aI31
aI6
aI97
aI4
aI1
aI4
aI1
aI9
aI1
aI17
aI3
aI1
aI23
aI1
aI1
aI1
aI1
aI1
aI2
aI21
aI14
aI5
aI21
aI1
aI1
aI1
aI2
aI4
aI7
aI1
aI13
aI1
aI1
aI102
aI1
aI2
aI1
aI1
aI1
aI2
aI1
aI22
aI1
aI94
aI1
aI2
aI1
aI13
aI3
aI2
aI1
aI1
aI2
aI2
aI5
aI85
aI1
aI1
aI8
aI6
aI1
aI29
aI1
aI2
aI157
aI9
aI25
aI1
aI1
aI1
aI1
aI4
aI1
aI3
aI1
aI2
aI2
aI1
aI2
aI6
aI2
aI5
aI4
aI1
aI64
aI1
aI6
aI1
aI1
aI1
aI56
aI1
aI1
aI6
aI2
aI10
aI1
aI1
aI2
aI2
aI2
aI14
aI4
aI1
aI1
aI9
aI1
aI358
aI2
aI2
aI5
aI1
aI1
aI113
aI1
aI128
aI20
aI1
aI7
aI1
aI1
aI27
aI1
aI3
aI1
aI1
aI1
aI1
aI1
aI1
aI614
aI1
aI1
aI3
aI5
aI1
aI1
aI3
aI1
aI8
aI1
aI5
aI1
aI1
aI1
aI1
aI1
aI1
aI3
aI1
aI1
aI1
aI3
aI26
aI1
aI2
aI41
aI1
aI3
aI11
aI2
aI4
aI1
aI7
aI1
aI235
aI1
aI1
aI2
aI2
aI1
aI2
aI1
aI1
aI1
aI1
aI1
aI6355
aI17
aI240
aI1
aI8
aI1
aI62
aI1
aI7
aI1
aI650
aI1
aI1
aI1
aI1
aI1
aI1
aI1
aI1
aI3
aI1
aI3
aI1
aI10
aI1
aI8
aI1
aI29
aI1
aI3
aI5
aI1
aI2
aI1
aI2
aI7
aI4
aI1
aI1
aI2
aI1
aI1
aI2
aI2
aI1
aI152
aI2
aI22
aI1
aI1
aI1
aI1
aI1
aI2
aI1
aI1
aI1
aI1
aI1
aI5
aI1
aI1
aI2
aI1
aI1
aI16
aI5
aI5
aI33
aI1
aI6
aI1
aI1
aI4
aI4
aI4
aI2
aI2
aI2
aI1
aI1
aI241
aI1
aI2
aI1
aI2
aI2
aI1
aI15
aI1
aI1
aI2
aI1
aI1
aI3
aI2
aI2
aI1
aI2
aI2
aI1
aI3
aI1
aI53
aI2
aI4
aI2
aI1
aI1
aI1
aI1
aI1
aI1
aI1
aI4
aI1
aI1
aI1
aI2
aI1
aI1
aI2
aI3
aI1
aI1
aI1
aI1
aI1
aI2
aI66
aI2
aI1
aI2
aI2
aI5
aI1
aI3
aI1
aI1
aI1
aI1
aI1
aI4
aI1
aI1
aI3
aI1
aI4
aI1
aI1
aI8
aI3
aI3
aI1
aI4
aI1
aI1
aI1
aI35
aI1
aI1
aI6
aI1
aI2
aI1
aI4
aI1
aI7
aI20
aI1
aI4
aI1
aI2
aI1
aI8
aI6
aI1
aI3
aI1
aI1
aI1
aI1
aI345
aI1
aI1
aI1
aI2
aI2
aI2
aI1
aI9
aI1
aI224
aI1
aI1
aI2
aI1
aI38
aI1
aI1
aI1
aI3
aI1
aI1
aI1
aI2
aI2
aI1
aI1
aI1
aI2
aI2
aI13
aI19
aI1
aI1
aI1
aI23
aI1
aI1
aI1
aI26
aI1
aI1
aI3
aI1
aI1
aI1
aI1
aI1
aI2
aI64
aI2
aI2
aI1
aI1
aI119
aI1
aI1
aI1
aI1
aI3
aI2
aI1
aI1
aI2
aI1
aI152
aI1
aI7
aI1
aI1
aI2
aI2
aI1
aI1
aI1
aI1
aI3
aI1
aI1
aI1373
aI1
aI1
aI1
aI1
aI1
aI1
aI15
aI1
aI1
aI5
aI5
aI1
aI1
aI1
aI1
aI334
aI2
aI1
aI3
aI3
aI1
aI6
aI2
aI1
aI4
aI2
aI1
aI1
aI2
aI1
aI6
aI16
aI2
aI2335
aI1
aI1
aI1
aI1
aI12
aI3
aI13
aI2
aI1
aI1
aI1
aI1
aI1
aI15
aI1
aI211
aI1
aI36
aI1
aI1
aI2
aI1
aI1
aI1
aI1
aI1
aI4
aI1
aI1
aI2
aI1
aI1
aI18
aI1
aI3
aI1
aI5
aI2
aI11
aI1
aI1
aI1
aI3
aI4
aI1
aI4
aI1
aI1
aI1
aI1
aI2
aI2
aI1
aI16
aI7
aI15
aI1
aI1
aI60
aI1
aI1
aI5
aI1
aI1
aI1
aI1
aI1
aI4
aI1
aI2
aI1
aI2
aI1
aI1
aI3
aI1
aI1
aI1
aI1
aI8
aI6
aI1
aI2
aI2
aI1
aI1
aI1
aI1
aI1
aI1
aI1
aI1
aI5
aI1
aI1
aI1
aI1
aI1
aI2
aI1
aI4
aI1
aI6
aI1
aI1
aI2
aI1
aI1
aI1
aI1
aI1
aI1
aI1
aI1
aI1
aI1
aI1
aI20
aI2
aI1
aI1
aI2
aI1
aI1
aI1
aI10
aI1
aI1
aI1
aI1
aI2
aI2
aI1
aI1
aI2
aI3
aI11
aI1
aI33
aI76
aI1
aI14
aI3
aI1
aI1
aI1
aI25
aI1
aI1
aI1
aI1
aI1
aI1
aI1
aI1
aI1
aI1
aI2
aI1
aI9
aI2
aI1
aI1
aI1
aI1
aI1
aI2
aI1
aI1
aI1
aI2
aI1
aI34
aI1
aI1
aI6
aI1
aI1
aI3
aI1
aI1
aI2
aI10
aI1
aI4
aI1
aI1
aI1
aI75
aI1
aI9
aI1
aI1
aI1
aI1
aI1
aI6
aI1
aI1
aI1
aI1
aI2
aI1
aI2
aI1
aI4
aI2
aI1
aI1
aI1
aI1
aI1
aI1
aI1
aI3
aI2
aI3
aI9
aI2
aI1
aI9
aI17
aI1
aI1
aI7
aI3
aI9
aI1
aI3
aI1
aI3
aI9
aI1
aI1
aI1
aI1
aI5
aI2
aI11
aI1
aI3
aI1
aI1
aI2
aI1
aI1
aI65
aI1
aI1
aI1
aI1
aI1
aI1
aI1
aI79
aI1
aI1
aI1
aI3
aI78
aI9
aI3
aI40
aI1
aI1
aI2
aI1
aI1
aI2
aI1
aI2
aI9
aI1
aI65
aI1
aI2
aI1
aI4
aI11
aI1
aI1
aI3
aI3
aI1
aI1
aI1
aI1
aI1
aI4
aI16
aI2
aI1
aI50
aI3
aI4
aI1
aI1
aI1
aI1
aI1
aI1
aI1
aI2
aI9
aI1
aI1
aI1
aI14
aI1
aI1
aI65
aI1
aI1
aI1
aI27
aI1
aI1
aI1
aI391
aI18
aI62
aI1
aI40
aI1
aI1
aI1
aI1
aI10
aI2
aI44
aI6
aI2
aI1
aI5
aI1
aI3
aI1
aI6
aI2
aI281
aI1
aI1
aI3
aI1
aI1
aI1
aI4
aI1
aI1
aI13
aI1
aI1
aI1
aI114
aI1
aI1
aI1
aI1
aI1
aI1
aI3
aI1
aI1
aI1
aI1
aI1
aI1
aI1
aI1
aI2
aI10
aI6
aI1
aI1
aI1
aI4
aI1
aI6
aI1
aI1
aI7
aI1
aI16
aI1
aI2
aI2
aI1
aI1
aI1
aI1
aI1
aI1
aI1
aI1
aI2
aI24
aI2
aI1
aI1
aI5
aI20
aI2
aI2
aI1
aI3
aI1
aI68
aI1
aI7
aI1
aI1
aI1
aI2
aI1
aI1
aI1
aI1
aI295
aI1
aI2
aI1
aI1
aI1
aI77
aI1
aI1
aI1
aI23
aI2
aI133
aI1
aI1
aI4
aI1
aI2
aI1
aI1
aI1
aI2
aI1
aI1
aI1
aI17
aI1
aI67
aI1
aI2
aI1
aI1
aI2
aI1
aI1
aI1
aI1
aI2
aI2
aI1
aI1
aI2
aI1
aI5
aI2
aI1
aI1
aI1
aI1
aI1
aI1
aI1
aI1
aI1
aI1
aI1
aI2
aI378
aI2
aI1
aI1
aI1
aI1
aI2
aI93
aI1
aI1
aI2
aI5
aI1
aI1
aI1
aI1
aI2
aI1
aI1
aI1
aI3
aI1
aI3
aI3
aI2
aI1
aI2
aI1
aI1
aI2
aI3
aI1
aI1
aI1
aI2
aI2
aI3
aI1
aI1
aI3
aI1
aI3
aI4
aI22
aI38
aI1
aI1
aI1
aI1
aI1
aI1
aI1
aI1
aI1
aI1
aI1
aI1
aI1
aI1
aI1
aI1
aI1
aI1
aI5
aI1
aI1
aI2
aI3
aI9
aI29
aI1
aI1
aI1
aI1
aI1
aI1
aI1
aI1
aI1
aI2
aI1
aI9
aI1
aI103
aI1
aI54
aI1
aI1
aI2
aI1
aI1
aI2
aI1
aI1
aI2
aI1
aI1
aI1
aI1
aI1
aI2
aI4
aI1
aI1
aI1
aI1
aI1
aI1
aI1
aI1
aI1
aI4
aI1
aI1
aI1
aI1
aI1
aI1
aI1
aI1
aI516
aI1
aI5
aI11
aI1
aI1
aI4
aI1
aI1
aI2
aI1
aI4
aI2
aI2
aI3
aI2
aI2
aI77
aI1
aI3
aI1
aI2
aI1
aI1
aI3
aI32
aI1
aI1
aI3
aI1
aI9
aI8
aI1
aI1
aI1
aI1
aI1
aI1
aI1
aI1
aI1
aI1
aI1
aI1
aI1
aI1
aI1
aI2
aI1
aI2
aI106
aI1
aI1
aI8
aI1
aI1
aI1
aI1
aI3
aI7
aI1
aI2
aI1
aI1
aI1
aI1
aI1
aI1
aI1
aI1
aI1
aI9
aI3
aI3
aI4
aI1
aI4
aI4
aI1
aI1
aI2
aI2
aI1
aI1
aI2
aI1
aI1
aI1
aI1
aI1
aI1
aI1
aI1
aI7
aI1
aI1
aI1
aI3
aI3
aI1
aI1
aI7
aI1
aI5
aI16
aI1
aI4
aI1
aI1
aI1
aI41
aI1
aI2
aI1
aI5
aI1
aI2
aI3
aI1
aI4
aI9
aI1
aI1
aI1
aI1
aI1
aI1
aI1
aI1
aI1
aI1
aI1
aI1
aI2
aI1
aI1
aI1
aI1
aI2
aI4
aI2
aI12
aI2
aI1
aI1
aI1
aI12
aI1
aI2
aI1
aI44
aI2
aI1
aI2
aI1
aI1
aI1
aI5
aI2
aI1
aI1
aI2
aI9
aI1
aI2
aI1
aI1
aI2
aI206
aI1
aI1
aI1
aI15
aI1
aI1
aI1
aI1
aI1
aI1
aI1
aI1
aI1
aI1
aI3
aI1
aI1
aI1
aI3
aI1
aI1
aI7
aI101
aI1
aI1
aI1
aI2
aI3
aI3
aI1
aI1
aI15
aI1
aI1
aI1
aI1
aI1
aI8
aI1
aI2
aI60
aI2
aI1
aI1
aI1
aI1
aI1
aI1
aI1
aI1
aI7
aI1
aI1
aI1
aI1
aI1
aI14
aI3
aI2
aI1
aI1
aI2
aI1
aI2
aI19
aI1
aI1
aI1
aI7
aI4
aI1
aI443
aI1
aI3
aI1
aI1
aI1
aI2
aI15
aI7
aI1
aI1
aI2
aI1
aI1
aI1300
aI1
aI1
aI5
aI12
aI1
aI1
aI1
aI1
aI1
aI1
aI2
aI1
aI1
aI1
aI6
aI1
aI1
aI1
aI1
aI1
aI1
aI1
aI1
aI1
aI2
aI1
aI1
aI1
aI3
aI7
aI2
aI9
aI14
aI2
aI1
aI1
aI1
aI1
aI1
aI1
aI4
aI2
aI1
aI1
aI1
aI1
aI1
aI1
aI1
aI1
aI1
aI1
aI4
aI1
aI1
aI8
aI1
aI2
aI2
aI1
aI2
aI1
aI1
aI1
aI1
aI1
aI1
aI1
aI2
aI1
aI21
aI3
aI1
aI2
aI2
aI1
aI6
aI1
aI4
aI5
aI1
aI19
aI1
aI1
aI1
aI1
aI1
aI1
aI1
aI1
aI15
aI4
aI1
aI1
aI1
aI40
aI9276
aI2
aI2
aI1
aI2
aI2
aI1
aI5
aI1
aI1
aI1
aI4
aI525
aI1
aI1
aI1
aI1
aI1
aI1
aI1
aI1
aI1
aI1
aI1
aI1
aI1
aI1
aI6
aI2
aI1
aI35
aI1
aI645
aI4
aI1
aI1
aI3
aI1
aI46
aI4
aI1
aI1
aI1
aI1
aI1
aI1
aI3
aI1
aI4
aI1
aI1
aI1
aI1
aI1
aI1
aI2
aI1
aI1
aI1
aI1
aI2
aI1
aI2
aI1
aI7
aI1
aI3
aI2
aI1
aI2
aI3
aI1
aI13
aI1
aI1
aI2
aI2
aI1
aI1
aI1
aI13
aI1
aI1
aI1
aI1
aI1
aI1
aI65
aI1
aI1
aI2
aI2
aI1
aI1
aI1
aI20
aI2
aI1
aI1
aI1
aI1
aI1
aI1
aI1
aI2
aI6
aI2
aI1
aI12
aI1
aI82
aI2
aI4
aI1
aI1
aI1
aI2
aI11
aI11
aI2
aI1
aI1
aI1
aI1
aI465
aI2
aI1
aI1
aI6
aI1
aI2
aI1
aI1
aI13
aI1
aI7
aI4
aI2
aI1
aI4
aI3
aI1
aI2
aI8
aI1
aI1
aI1
aI1
aI1
aI3
aI1
aI1
aI1
aI1
aI2
aI3
aI2
aI1
aI1
aI2
aI1
aI4
aI5
aI1
aI3
aI1
aI2
aI1
aI1
aI2
aI1
aI1
aI1
aI1
aI1
aI150
aI4
aI1
aI1
aI1
aI1
aI31
aI1
aI1
aI4
aI1
aI1
aI1
aI36
aI1
aI3
aI300
aI7
aI1
aI1
aI1
aI1
aI1
aI1
aI602
aI1
aI1
aI2
aI1
aI1
aI1
aI1
aI1
aI1
aI9
aI3
aI4
aI224
aI1
aI1
aI1
aI2
aI1
aI1
aI1
aI1
aI148
aI2
aI148
aI1
aI193
aI1
aI1
aI36
aI1
aI1
aI1
aI1
aI2
aI2
aI1
aI1
aI126
aI1
aI2
aI1
aI10
aI5
aI1
aI4
aI1
aI2
aI1
aI1
aI1
aI1
aI16
aI1
aI207
aI1
aI1
aI1
aI366
aI1
aI1
aI3
aI3
aI23
aI1
aI1
aI1
aI1
aI1
aI1
aI1
aI4
aI2
aI3
aI1
aI1
aI1
aI1
aI2
aI66
aI1
aI1
aI5
aI2
aI14
aI1
aI1
aI5
aI1
aI1
aI1
aI1
aI3
aI3
aI4
aI2
aI1
aI2
aI13
aI136
aI1
aI1
aI2
aI1
aI9
aI1
aI1
aI2
aI1
aI1
aI3
aI1
aI1
aI3
aI2
aI1
aI3
aI2
aI1
aI1
aI2
aI5
aI1
aI1
aI1
aI1
aI7
aI1
aI1
aI1
aI1
aI1
aI1977
aI1
aI1
aI1
aI1
aI1
aI1
aI5
aI2
aI1
aI1
aI2
aI8
aI1
aI11
aI1
aI2
aI1
aI1
aI1
aI1
aI2
aI1
aI1
aI1
aI1
aI16
aI2
aI21
aI1
aI1
aI5
aI2
aI1
aI1
aI1
aI2
aI1
aI2
aI36
aI1
aI1
aI1
aI2
aI1
aI1
aI1
aI3
aI1
aI32
aI4
aI2
aI1
aI1
aI1
aI1
aI1
aI1
aI1
aI8
aI16
aI4
aI1
aI1
aI1
aI1
aI1
aI1
aI6
aI1
aI3
aI1
aI1
aI1
aI1
aI11
aI1
aI65
aI114
aI2
aI1
aI1
aI1
aI1
aI2
aI1
aI1
aI1
aI44
aI1
aI41
aI1
aI4
aI1
aI40
aI1
aI1
aI3
aI1
aI2
aI1
aI1
aI1
aI1
aI1
aI3
aI2
aI904
aI3
aI3
aI3
aI1
aI1
aI1
aI1
aI2
aI1
aI1
aI2
aI2
aI2
aI1
aI1
aI1
aI1
aI3
aI20
aI1
aI1
aI1
aI4
aI4
aI1
aI1
aI70
aI2
aI1
aI1
aI1
aI1
aI2
aI2
aI18
aI5
aI3
aI13
aI1
aI1
aI105
aI1
aI1
aI1
aI4
aI1
aI5
aI1
aI1
aI1
aI2
aI2
aI2
aI4
aI1
aI2
aI1
aI1
aI1
aI2
aI1
aI1
aI22
aI1
aI1
aI1
aI2
aI1
aI1
aI3
aI1
aI4
aI2
aI9
aI2
aI4
aI2
aI5
aI1
aI190
aI55
aI123
aI1
aI1
aI1
aI111
aI1
aI1
aI6
aI31
aI1
aI2
aI2
aI2
aI1
aI2
aI4
aI1
aI1
aI1
aI1
aI1
aI1
aI1
aI1
aI1
aI1
aI1
aI1
aI1
aI1
aI2
aI2
aI1
aI10
aI4
aI1
aI1
aI1
aI1
aI2
aI7
aI1
aI6
aI12
aI1
aI122
aI1
aI6
aI74
aI1
aI1
aI2
aI4
aI1
aI3
aI1
aI1
aI1
aI1
aI2
aI1
aI1
aI1
aI3
aI4
aI1
aI1
aI1
aI2
aI3
aI9
aI5
aI1
aI1
aI5
aI2
aI3
aI1
aI1
aI2
aI1
aI1
aI2
aI2
aI1
aI1
aI1
aI1
aI1
aI4
aI1
aI3
aI1
aI1
aI1
aI1
aI1
aI1
aI1
aI8
aI33
aI1
aI57
aI1
aI1
aI3
aI1
aI1
aI3
aI10
aI2
aI1
aI1
aI121
aI1
aI1
aI1
aI1
aI3
aI1
aI1
aI1
aI1
aI3
aI1
aI1
aI1
aI1
aI1
aI1
aI1
aI1
aI1
aI1
aI9
aI1
aI1
aI1
aI1
aI3
aI3
aI7
aI3
aI5
aI6
aI20
aI1
aI4
aI4
aI42
aI4
aI78
aI2
aI1
aI9
aI2
aI1
aI1
aI2
aI6
aI1
aI1
aI1
aI1
aI1
aI1
aI1
aI23
aI3
aI1
aI5
aI1
aI1
aI3
aI1
aI1
aI1
aI3
aI1
aI1
aI1
aI1
aI1
aI1
aI1
aI1
aI12
aI2
aI5
aI1
aI1
aI8
aI1
aI2
aI1
aI2
aI15
aI3
aI6
aI2
aI2
aI7
aI2
aI4
aI1
aI1
aI1
aI1
aI1
aI2
aI1
aI1
aI2
aI1
aI1
aI2
aI1
aI1
aI1
aI1
aI1
aI5
aI5
aI1
aI4
aI1
aI1
aI1
aI1
aI2
aI6
aI1621
aI2
aI7
aI8
aI5
aI1
aI105
aI1
aI2
aI1
aI1
aI2
aI1
aI1
aI1
aI1
aI1
aI1
aI1
aI1
aI3
aI3
aI1
aI1
aI1
aI4
aI62
aI7
aI1
aI2
aI2
aI1
aI1
aI2
aI2
aI2
aI4
aI1
aI1
aI63
aI1
aI85
aI1
aI1
aI2
aI1
aI1
aI1
aI1
aI28
aI6
aI3
aI1
aI1
aI1
aI3
aI2
aI1
aI2
aI1
aI1
aI21
aI1
aI2
aI2
aI1
aI1
aI3
aI1
aI89
aI1
aI2
aI1
aI1
aI1
aI1
aI2
aI1
aI1
aI1
aI1
aI1
aI1
aI1
aI1
aI2
aI2
aI13
aI1
aI1
aI1
aI4
aI2
aI5
aI2
aI2
aI5
aI1
aI1
aI6
aI2
aI2
aI1
aI1
aI2
aI2
aI3
aI9
aI8
aI2
aI3
aI143
aI6
aI1
aI1
aI2
aI1
aI2
aI1
aI3
aI1
aI1
aI1
aI4
aI2
aI1
aI1
aI183
aI2
aI2
aI2
aI490
aI8
aI10
aI3
aI1
aI17
aI1
aI1
aI190
aI6
aI3
aI1
aI1
aI1
aI1
aI1
aI1
aI1
aI1
aI1
aI2
aI1
aI1
aI4
aI1
aI9
aI4
aI1
aI2
aI1
aI370
aI7
aI7
aI1
aI4
aI2
aI7
aI1
aI1
aI1
aI12
aI1
aI57
aI1
aI1
aI395
aI1
aI2
aI1
aI3
aI1
aI4
aI1
aI2
aI1
aI1
aI1
aI1
aI1
aI1
aI4
aI1
aI1
aI1
aI340
aI1
aI1
aI2
aI1
aI1
aI1
aI1
aI2
aI1
aI1
aI2
aI11
aI19
aI1
aI1
aI112
aI1
aI1
aI1
aI7
aI14
aI1091
aI1
aI1
aI1
aI1
aI4
aI1
aI1
aI1
aI1
aI2
aI1
aI1
aI1
aI1
aI1
aI1
aI4
aI5
aI1
aI1
aI1
aI1
aI1
aI2
aI1
aI24
aI1
aI1
aI9
aI1
aI1
aI4
aI4
aI1
aI15
aI1
aI5
aI1
aI1
aI2
aI1
aI4
aI1
aI1
aI1
aI3
aI1
aI2
aI6
aI4
aI1
aI18
aI43
aI1
aI2
aI1
aI1
aI3
aI1
aI1
aI94
aI1
aI1
aI1
aI4
aI1
aI4
aI5
aI1
aI6
aI23
aI1
aI8
aI1
aI31
aI1
aI1
aI1
aI3
aI1
aI2
aI1
aI1
aI4
aI1
aI1
aI1
aI2
aI1
aI1
aI9
aI1
aI14
aI1
aI2
aI15
aI2
aI1
aI1
aI1
aI1
aI6
aI1
aI11
aI1
aI1
aI2
aI11
aI1
aI1
aI2
aI2
aI4
aI1
aI4
aI1
aI1
aI1
aI1
aI554
aI2
aI2
aI1
aI1
aI1
aI2
aI1
aI1
aI1
aI1
aI1
aI4
aI2
aI1
aI38
aI1
aI1
aI1
aI1
aI30
aI15
aI2
aI4
aI4
aI1
aI1
aI1
aI21
aI1
aI13
aI1
aI9
aI1
aI1
aI2
aI1
aI5
aI39
aI1
aI3
aI3
aI55
aI2
aI1
aI2
aI2
aI2
aI3
aI74
aI10
aI1
aI1
aI43
aI1
aI2
aI1
aI1
aI1
aI13
aI74
aI1
aI1
aI1
aI1
aI16
aI4
aI4
aI1
aI1
aI1
aI1
aI336
aI1
aI204
aI1
aI2
aI2
aI3
aI2
aI1
aI1
aI3
aI3
aI1
aI1
aI1
aI2
aI1
aI7
aI1
aI5
aI1
aI1
aI1
aI1
aI1
aI1
aI4
aI1
aI1
aI2
aI1
aI7
aI1
aI1
aI2
aI2
aI1
aI64
aI1
aI1
aI1
aI1
aI31
aI1
aI33
aI1
aI1
aI3
aI1
aI1
aI1
aI1
aI1
aI1
aI7
aI15
aI28
aI3
aI1
aI1
aI10
aI1
aI2
aI9
aI3
aI1
aI3
aI1
aI41
aI1
aI1
aI2
aI1
aI1
aI1
aI19
aI1
aI1
aI5
aI1
aI4
aI9
aI1
aI1
aI2
aI18
aI1
aI1
aI1
aI1
aI1
aI109
aI1
aI26
aI25
aI1
aI1
aI10
aI2
aI2
aI1
aI1
aI1
aI1
aI1
aI1
aI2
aI1
aI1
aI1
aI2
aI1
aI1
aI2
aI1
aI3
aI1
aI4
aI23
aI1
aI1
aI5
aI16
aI2
aI70
aI1
aI2
aI1
aI6
aI1
aI1
aI6
aI2
aI2
aI2
aI2
aI1
aI2
aI1
aI1
aI1
aI1
aI2
aI1
aI2
aI2
aI1
aI1
aI8
aI136
aI7
aI141
aI4
aI11
aI1
aI1
aI1
aI1
aI1
aI4
aI1
aI1
aI64
aI2
aI1
aI2
aI1
aI3
aI1
aI2
aI1
aI3
aI2
aI4
aI3
aI1
aI12
aI9
aI2
aI1
aI1
aI2
aI2084
aI1
aI1
aI8
aI2
aI51
aI1
aI1
aI2
aI1
aI2
aI1
aI1
aI2
aI1
aI3
aI1
aI2
aI11
aI2
aI2
aI1
aI1
aI48
aI1
aI2
aI2
aI5
aI26
aI2
aI1
aI1
aI2
aI1
aI1
aI1
aI4
aI1
aI1
aI1
aI3
aI1
aI3
aI1
aI2
aI1
aI1
aI11
aI1
aI1
aI7
aI1
aI2
aI1
aI3
aI1
aI1
aI1
aI1
aI1
aI1
aI2
aI2
aI1
aI3
aI1
aI81
aI1
aI27
aI1
aI10
aI50
aI1
aI1
aI1
aI1
aI1
aI532
aI28
aI1
aI323
aI1
aI2
aI16
aI1
aI1
aI2
aI5
aI2
aI1
aI1
aI2
aI2
aI3
aI1
aI2
aI1
aI1
aI1
aI20
aI1
aI25
aI60
aI1
aI4
aI1
aI1
aI1
aI1
aI1
aI1
aI1
aI2
aI172
aI3
aI3
aI1
aI1
aI1
aI2
aI2
aI1
aI1
aI1
aI1
aI1
aI1
aI2
aI1
aI2
aI1
aI1
aI1
aI2
aI632
aI1
aI3
aI3
aI1
aI1
aI1
aI1
aI1
aI1
aI1
aI2
aI1
aI3
aI1
aI1
aI1
aI1
aI1
aI1
aI1
aI1
aI3
aI2
aI1
aI1
aI1
aI2
aI20
aI1
aI11
aI3
aI2
aI2
aI2
aI1
aI111
aI1
aI3
aI3
aI1
aI1
aI1
aI1
aI2
aI2
aI22
aI1
aI1
aI1
aI14
aI3
aI33
aI1
aI6
aI2
aI1
aI2
aI1
aI10
aI1
aI1
aI15
aI1
aI3
aI1
aI1
aI1
aI1
aI1
aI5
aI1
aI2
aI1
aI4
aI5
aI1
aI1
aI1
aI10
aI2
aI2
aI1
aI1
aI1
aI28
aI1
aI1
aI2
aI3
aI1
aI1
aI2
aI1
aI3
aI2
aI1
aI1
aI2
aI1
aI1
aI1
aI1
aI1
aI3
aI1
aI4
aI3
aI23
aI1
aI87
aI1
aI1
aI1
aI1
aI5
aI1
aI5
aI3
aI3
aI1
aI6
aI4
aI1
aI1
aI1
aI1
aI1
aI3
aI2
aI1
aI16
aI2
aI2
aI3
aI6
aI2
aI1
aI1
aI3
aI2
aI1
aI1
aI1
aI1
aI16
aI42
aI2
aI1
aI3
aI2
aI2
aI4
aI1
aI9
aI1
aI1
aI53
aI86
aI1
aI1
aI1
aI2
aI1
aI1
aI2
aI1
aI1
aI2
aI1
aI1
aI2
aI1
aI90
aI2
aI1
aI42
aI1
aI1
aI1
aI1
aI1
aI1
aI1
aI4
aI1
aI1
aI1
aI1
aI1906
aI3
aI3
aI1
aI1
aI1
aI3
aI2
aI1
aI2
aI91
aI1
aI1
aI1
aI50
aI1
aI1
aI1
aI2
aI1
aI1
aI72
aI1
aI2
aI1
aI2
aI1
aI2
aI7
aI4
aI1
aI4
aI1
aI1
aI1
aI1
aI1
aI970
aI2
aI2
aI1
aI1
aI9
aI2
aI1
aI2
aI105
aI2
aI1
aI1
aI1
aI2
aI1
aI1
aI1
aI12
aI51
aI1
aI4
aI2
aI12
aI1
aI1422
aI1
aI1
aI1
aI1
aI1
aI4
aI1
aI1
aI1
aI2
aI1
aI1
aI1
aI1
aI16
aI2
aI3
aI1
aI1
aI1
aI1
aI1
aI4
aI1
aI1
aI1
aI1
aI2
aI16
aI1
aI1
aI9
aI1
aI1
aI10
aI1
aI1
aI1
aI2
aI2
aI1
aI6
aI1
aI2
aI2
aI4
aI1
aI2
aI4
aI1
aI1
aI2
aI2
aI10
aI1
aI2
aI1
aI1
aI1
aI1
aI1
aI3
aI1
aI2
aI1
aI3
aI46
aI1
aI1
aI170
aI3
aI1
aI1
aI1
aI2
aI1
aI2
aI1
aI5
aI2
aI23
aI1
aI1
aI2
aI2
aI1
aI23
aI1
aI1
aI815
aI1
aI10
aI3
aI1
aI2
aI1
aI2
aI1
aI1
aI2
aI1
aI1
aI1
aI1
aI1
aI1
aI9
aI1
aI23
aI7
aI2
aI1
aI36
aI1
aI1
aI1
aI5
aI1
aI3
aI4
aI3
aI1
aI1
aI2
aI2
aI1
aI1
aI1
aI1
aI1
aI1
aI1
aI12
aI24
aI2
aI1
aI1
aI5
aI2
aI4
aI2
aI1
aI2
aI2
aI3
aI8
aI1
aI1
aI1
aI1
aI1
aI5
aI1
aI2
aI20
aI1
aI1
aI22
aI1
aI1
aI2
aI8
aI1
aI1
aI1
aI9
aI50
aI15
aI1
aI13
aI9
aI53
aI2
aI1
aI1
aI1
aI2
aI1
aI2
aI1
aI1
aI3
aI3
aI4
aI1
aI1
aI1
aI1
aI1
aI1
aI1
aI1
aI2
aI1
aI2
aI1
aI1
aI1
aI1
aI6
aI1
aI2
aI44
aI1
aI1
aI28
aI8
aI1
aI2
aI3
aI6
aI1
aI8
aI5
aI3
aI1
aI3
aI1
aI1
aI1
aI1
aI1
aI2
aI1
aI189
aI1
aI1
aI1
aI1
aI1
aI1
aI2
aI1
aI8
aI1
aI1
aI2
aI1
aI144
aI1
aI1
aI1
aI1
aI1
aI1
aI1
aI1
aI1
aI4
aI1
aI3
aI1
aI4
aI2
aI2
aI1
aI6
aI1
aI2
aI1
aI1
aI2
aI2
aI1
aI7
aI1
aI3
aI10
aI1
aI2
aI1
aI1
aI129
aI71
aI2
aI1
aI1
aI5
aI1
aI2
aI8
aI3
aI1
aI1
aI3
aI1
aI8
aI1
aI1
aI24
aI1
aI1
aI1
aI1
aI1
aI1
aI18
aI1
aI1
aI1
aI1
aI206
aI4
aI1
aI3
aI1
aI1
aI1
aI1
aI1
aI1
aI1
aI37
aI1
aI4
aI1
aI1
aI4
aI1
aI4
aI3
aI1
aI1
aI1
aI1
aI1
aI1
aI1
aI3
aI1
aI1
aI3560
aI1
aI36
aI1
aI1
aI1
aI1
aI1
aI1
aI1
aI1
aI1
aI8
aI2
aI1
aI1
aI2
aI1
aI2
aI1
aI1
aI1
aI1
aI11
aI1
aI1
aI2
aI1
aI3
aI2
aI1
aI1
aI1
aI1
aI2
aI1
aI1
aI2
aI1
aI1
aI2
aI2
aI5
aI3
aI1
aI1
aI1
aI7
aI1
aI1
aI1
aI1
aI3
aI1
aI14
aI1
aI1
aI1
aI210
aI1
aI4
aI116
aI1
aI1
aI3
aI5
aI2
aI3
aI1
aI1
aI3
aI1
aI1
aI11
aI11
aI1
aI3
aI225
aI2
aI1
aI1
aI1
aI1
aI3
aI1
aI1
aI3
aI6
aI2
aI1
aI1
aI2
aI2
aI1
aI118
aI3
aI3
aI1
aI3
aI4113
aI1
aI1
aI1
aI1
aI1
aI2
aI105
aI2
aI1
aI1
aI12
aI31
aI1
aI2
aI4
aI1
aI45
aI1
aI1
aI3
aI1
aI1
aI1
aI2
aI18
aI1
aI1
aI1
aI1
aI1
aI6
aI1
aI2
aI1
aI12
aI13
aI1
aI7
aI3
aI1
aI1
aI1
aI9
aI1
aI15
aI132
aI15
aI2
aI1
aI19
aI1
aI2
aI2
aI10
aI320
aI1
aI5
aI1
aI2
aI3
aI2
aI12
aI101
aI1
aI3
aI2
aI1
aI1
aI1
aI1
aI1
aI1
aI2
aI2
aI1
aI19
aI4
aI2
aI2
aI2
aI2
aI1
aI1
aI1
aI1
aI1
aI1
aI11
aI1
aI1
aI2
aI1
aI42
aI9
aI2
aI3
aI3
aI7
aI1
aI2
aI1
aI3
aI5
aI1
aI1
aI1
aI1
aI1
aI1
aI2
aI3
aI143
aI1
aI9
aI1
aI1
aI2
aI2
aI1
aI1
aI7
aI1
aI1
aI2
aI5
aI1
aI1
aI26
aI1
aI17
aI1
aI2
aI1
aI2
aI1
aI1
aI3
aI4
aI1
aI1
aI1
aI1
aI3
aI7
aI3
aI1
aI1
aI5
aI1
aI1
aI2
aI3
aI1
aI1
aI1
aI5
aI2
aI1
aI1
aI13
aI1
aI1
aI2
aI1
aI1
aI10
aI1
aI1
aI1
aI1
aI1
aI1
aI1
aI2
aI3
aI1
aI724
aI1
aI1
aI1
aI3
aI1
aI1
aI1
aI3
aI1
aI2
aI6
aI1
aI2
aI10
aI1
aI2
aI1
aI31
aI2
aI1
aI1
aI1
aI1
aI1
aI1
aI1
aI1
aI1
aI17
aI1
aI1
aI22
aI2
aI1
aI18
aI1
aI1
aI19
aI1
aI284
aI1
aI4
aI94
aI1
aI1
aI1
aI1
aI1
aI127
aI1
aI1
aI1
aI7
aI8
aI1
aI1
aI1
aI1
aI1
aI1
aI1
aI1
aI19
aI23
aI1
aI1
aI50
aI1
aI195
aI1
aI1
aI1
aI62
aI1
aI2
aI27
aI1
aI2
aI1
aI1
aI1
aI1
aI3
aI1
aI1
aI11
aI4
aI1
aI1
aI1
aI1
aI104
aI1
aI2
aI1
aI1
aI1
aI1
aI1
aI14
aI23
aI1
aI1
aI1
aI1
aI1
aI20
aI1
aI1
aI1
aI1
aI3
aI2
aI1
aI1
aI33
aI1
aI7
aI5
aI1
aI3
aI10
aI1
aI1
aI1
aI1
aI1
aI1
aI1
aI1
aI1
aI1
aI6
aI3
aI1
aI1
aI1
aI1
aI6
aI2
aI1
aI153
aI1
aI5
aI1
aI20
aI3
aI3
aI1
aI24
aI1
aI1
aI10
aI51
aI2
aI1
aI1
aI5
aI6
aI1
aI1
aI1
aI9
aI6
aI5
aI2
aI3
aI3
aI58
aI1
aI1
aI6
aI1
aI122
aI7
aI1
aI1
aI1
aI15
aI1
aI2
aI1
aI1
aI1
aI1
aI1
aI1
aI2
aI1
aI1
aI2
aI6
aI1
aI1
aI1
aI17
aI6
aI1
aI1
aI1
aI1
aI93
aI1
aI1
aI3
aI3
aI10
aI5
aI1
aI1
aI1
aI1
aI1
aI1
aI1
aI1
aI1
aI1
aI1
aI9
aI2
aI1
aI1
aI49
aI5
aI1
aI31
aI1
aI9
aI7
aI1
aI4
aI7
aI1
aI1
aI1
aI1
aI2
aI1
aI1
aI1
aI1
aI9
aI2
aI1
aI1
aI61
aI2
aI1
aI2
aI7
aI1
aI43
aI3
aI2
aI1
aI1
aI1
aI1
aI3
aI1
aI1
aI1
aI1
aI1
aI1
aI1
aI1
aI280
aI1
aI2
aI2
aI1
aI1
aI1
aI40
aI1
aI42
aI2
aI1
aI1
aI1
aI1
aI2
aI1
aI7
aI1
aI1
aI1
aI3
aI203
aI1
aI152
aI1
aI1
aI2
aI3
aI5
aI1
aI3
aI2
aI2
aI1
aI3
aI3
aI1
aI1
aI2
aI1
aI1
aI1
aI1
aI1
aI1
aI111
aI2
aI1
aI96
aI1
aI1
aI1
aI3
aI6
aI1
aI1
aI1
aI1
aI230
aI47
aI1
aI3
aI3
aI1
aI1
aI1
aI1
aI4
aI1
aI1
aI13
aI1
aI12
aI1
aI1
aI3
aI1
aI2
aI14
aI1
aI1
aI1
aI1
aI1
aI1
aI1
aI1
aI2
aI6
aI1
aI2
aI3
aI1
aI19
aI1
aI1
aI1
aI87
aI4
aI12
aI1
aI1
aI2
aI1
aI2
aI2
aI1
aI1
aI1
aI2
aI68
aI1
aI1
aI1
aI2
aI1
aI1
aI3
aI28
aI1
aI5
aI3
aI1
aI5
aI8
aI3
aI1
aI1
aI1
aI1
aI9
aI1
aI3
aI6
aI2
aI2
aI4
aI5
aI1
aI1
aI3
aI1
aI10
aI3
aI1
aI35
aI3
aI1
aI1
aI1
aI379
aI1
aI2
aI1
aI16
aI1
aI1
aI1
aI1
aI3
aI2
aI6
aI1
aI5
aI1
aI4
aI1
aI1
aI4
aI3
aI1
aI3
aI1
aI13
aI1
aI1
aI1061
aI2
aI1
aI2
aI17
aI1
aI3
aI1
aI2
aI3
aI100
aI1
aI2
aI1
aI1
aI25
aI3
aI5
aI1
aI4
aI1
aI1
aI1
aI1
aI5
aI1
aI48
aI2
aI1
aI1
aI2
aI1
aI1
aI127
aI1
aI1
aI5
aI1
aI2
aI6
aI1
aI1
aI3
aI46
aI5
aI1
aI1
aI2
aI1
aI1
aI2
aI1
aI1
aI2
aI1
aI3
aI1
aI4
aI1
aI1147
aI1
aI1
aI2
aI1
aI32
aI81
aI3
aI1
aI1
aI1
aI1
aI1
aI52
aI4
aI4
aI1
aI1
aI2
aI73
aI1
aI1
aI1
aI1
aI1
aI2
aI2
aI2
aI1
aI3
aI1
aI1
aI1
aI16
aI1
aI1
aI1
aI1
aI1
aI2
aI1
aI4
aI1
aI1
aI1
aI2
aI3
aI60
aI1
aI1
aI4
aI2
aI1
aI1
aI1
aI1
aI6
aI2
aI47
aI1
aI4
aI1
aI152
aI252
aI1
aI1
aI1
aI1
aI660
aI2
aI1
aI1
aI1
aI1
aI2
aI1
aI1
aI1
aI8
aI1
aI2
aI1
aI1
aI2
aI1
aI110
aI1
aI1
aI1
aI1
aI1
aI19
aI2
aI1
aI4
aI1
aI3
aI1
aI1
aI1
aI33
aI1
aI10
aI1
aI2
aI1
aI1
aI1
aI1
aI1
aI2
aI2
aI1
aI1
aI1
aI1
aI4
aI1
aI2
aI1
aI1
aI2
aI2
aI4
aI1
aI1
aI1
aI141
aI7
aI2
aI1
aI1
aI1
aI26
aI1
aI1
aI3
aI1
aI50
aI2
aI32
aI1
aI1
aI1
aI1
aI10
aI1
aI2
aI95
aI11
aI1
aI1
aI7
aI1
aI9
aI16
aI1
aI2
aI1
aI1
aI1
aI1
aI1
aI1
aI1
aI1
aI2
aI1
aI1
aI1
aI7
aI1
aI1
aI1
aI1
aI2
aI34
aI1
aI5
aI59
aI1
aI2
aI10
aI1
aI1
aI1
aI1
aI6
aI1
aI72
aI251
aI1
aI4
aI1
aI3
aI1
aI1
aI1
aI1
aI2
aI1
aI1
aI1
aI1
aI1
aI1
aI1
aI8
aI1
aI1
aI8
aI1
aI1
aI1
aI1
aI1
aI2
aI1
aI1
aI2
aI1
aI1
aI2
aI2
aI47
aI1
aI1
aI1
aI5
aI1
aI2
aI1
aI3
aI1
aI1
aI1
aI1
aI1
aI1
aI119
aI1
aI1
aI35
aI1
aI1
aI1
aI1
aI4
aI1
aI52
aI1
aI6
aI9
aI665
aI1
aI1
aI1
aI139
aI1
aI1
aI22
aI1
aI6
aI1
aI2
aI2
aI1
aI1
aI159
aI1
aI1
aI5
aI1
aI1
aI11
aI1
aI3
aI1
aI1
aI1
aI1
aI1
aI51
aI1
aI1
aI1
aI1
aI1
aI1
aI41
aI1
aI2
aI1
aI51
aI1
aI1
aI1
aI1
aI2
aI1
aI1
aI6
aI2
aI1
aI1
aI1
aI1
aI1
aI1
aI1
aI1
aI1
aI8
aI1
aI1
aI45
aI10
aI1961
aI1
aI1
aI1
aI1
aI33
aI1
aI2
aI2
aI1
aI1
aI3
aI1
aI3
aI1
aI40
aI1
aI1
aI1
aI6
aI4
aI130
aI1
aI206
aI1
aI1
aI1
aI52
aI1
aI1
aI1
aI414
aI1
aI2
aI2
aI2
aI2
aI8
aI2
aI2
aI2
aI1
aI1
aI2
aI1
aI2
aI1
aI1
aI1
aI1
aI1
aI1
aI1
aI1
aI12
aI1
aI87
aI1
aI20
aI1
aI1
aI2
aI1
aI6
aI1
aI3
aI1
aI1
aI3
aI2
aI1
aI1
aI4
aI1
aI1
aI1
aI1
aI1
aI2
aI3
aI1
aI2
aI37
aI2
aI1
aI1
aI1
aI1
aI1
aI2
aI1
aI1
aI14
aI1
aI1
aI1
aI17
aI2
aI2
aI4
aI2
aI27
aI3
aI30576
aI1
aI2
aI1
aI1
aI1
aI1
aI1
aI12
aI1
aI3
aI1
aI1
aI2
aI3
aI18
aI1
aI1
aI3
aI1
aI1
aI4
aI1
aI29
aI1
aI1
aI1
aI1
aI1
aI2
aI2
aI1
aI68
aI2
aI1
aI1
aI3
aI4
aI1
aI1
aI2
aI1
aI104
aI86
aI1
aI44
aI2
aI7
aI1
aI12
aI1
aI1
aI1
aI15
aI1
aI1
aI1
aI33
aI1
aI1
aI1
aI1
aI7
aI1
aI1
aI1
aI1
aI3
aI37
aI1
aI1
aI1
aI2
aI2
aI2
aI74
aI1
aI1
aI1
aI2
aI1
aI62
aI2
aI1
aI1
aI3
aI1
aI1
aI1
aI1
aI1
aI1
aI1
aI7
aI1
aI1
aI3
aI2
aI1
aI6
aI2
aI7
aI1
aI1
aI1
aI1
aI5
aI4
aI2
aI3
aI1
aI3
aI1
aI3
aI3
aI1
aI17
aI5
aI7
aI6
aI1
aI1
aI1
aI1
aI1
aI1
aI10
aI2
aI1
aI2
aI60
aI7
aI1
aI1
aI2
aI171
aI5
aI1
aI1
aI3
aI5
aI1
aI269
aI2
aI1
aI1
aI1
aI1
aI1
aI20
aI1
aI8
aI1
aI5
aI2042
aI1
aI1
aI1
aI1
aI1
aI1
aI1
aI42
aI1
aI2
aI1
aI1
aI59
aI1
aI2
aI139
aI1
aI1
aI1
aI4
aI1
aI2
aI3
aI2
aI3
aI1
aI2
aI2
aI25
aI2
aI1
aI22
aI1
aI1
aI1
aI1
aI1
aI2
aI2
aI6
aI1
aI1
aI1
aI1
aI1
aI3
aI1
aI1
aI1
aI2
aI2
aI1
aI2
aI1
aI1
aI1
aI1
aI1
aI24
aI1
aI3
aI1
aI1
aI1
aI1
aI10
aI1
aI1
aI4
aI1
aI1
aI1
aI1
aI1
aI1
aI52
aI2
aI1
aI1
aI1
aI1
aI1
aI11
aI1
aI1
aI1
aI93
aI1
aI26
aI1
aI1
aI1
aI16
aI1
aI1
aI1
aI1
aI1
aI38
aI1
aI1
aI1
aI4
aI1
aI1
aI2
aI2
aI2
aI1
aI95
aI7
aI1
aI2
aI1
aI1
aI1
aI1
aI1
aI1
aI2
aI1
aI3
aI1
aI1
aI2
aI1
aI2
aI1
aI1
aI73
aI1
aI5
aI20
aI11
aI1
aI2
aI1
aI1
aI1
aI74
aI2
aI1
aI1
aI1
aI1
aI1
aI1
aI1
aI1
aI1
aI1
aI1
aI2
aI1
aI4
aI1
aI1
aI1
aI15
aI65
aI9
aI3
aI3286
aI1
aI1
aI9
aI1
aI1
aI1
aI1
aI1
aI1
aI1
aI254
aI1
aI225
aI22
aI2
aI1
aI1
aI1
aI1
aI1
aI22
aI1
aI16
aI1
aI4
aI1
aI1
aI1
aI25
aI1
aI1
aI1
aI3
aI4
aI1
aI76
aI5
aI3
aI5
aI1
aI322
aI1
aI2
aI1
aI2
aI1
aI1
aI24
aI1
aI2
aI1
aI1
aI4
aI1
aI4
aI1
aI48
aI172
aI25
aI1
aI1
aI1
aI4
aI1
aI1
aI1
aI34
aI1
aI1
aI77
aI2
aI1
aI1
aI1
aI1
aI18
aI19
aI1
aI16
aI1
aI4
aI2
aI11
aI1
aI1
aI10
aI1
aI1
aI1
aI1
aI1
aI3
aI1
aI1
aI15
aI1
aI2
aI1
aI5
aI1
aI17
aI1
aI2
aI1
aI6
aI1
aI119
aI1
aI1
aI1
aI1
aI1
aI1
aI1
aI1
aI41
aI1
aI1
aI1
aI1
aI1
aI3
aI4
aI1
aI3
aI1
aI36
aI1
aI1
aI3
aI23
aI1
aI4
aI1
aI1
aI2
aI1
aI6
aI2
aI1
aI1
aI1
aI9
aI54
aI2
aI1
aI1
aI1
aI1
aI1
aI10
aI2
aI1
aI2524
aI3
aI2
aI1
aI1
aI1
aI3
aI1
aI1
aI1
aI1
aI18
aI1
aI1
aI11
aI1
aI1
aI1
aI2
aI3
aI3
aI1
aI1
aI1
aI3
aI1
aI1
aI1
aI1
aI1
aI1
aI4
aI1
aI1
aI3
aI1
aI2
aI7
aI3
aI7
aI1
aI1
aI1
aI2
aI1
aI2
aI2
aI1
aI1
aI1
aI1
aI2
aI402
aI1
aI1
aI3
aI1
aI1
aI1
aI1
aI1
aI1
aI1
aI2
aI1
aI1
aI1
aI1
aI1
aI2
aI224
aI1
aI1
aI4
aI4
aI9
aI2
aI2
aI1
aI3
aI1
aI1
aI23
aI2
aI1
aI1
aI3
aI1
aI2
aI2
aI157
aI1
aI1
aI1
aI1
aI2
aI1
aI1
aI1
aI5
aI1
aI2
aI4
aI1
aI1
aI14
aI1
aI1
aI6
aI4
aI1
aI1
aI1
aI1
aI1
aI1
aI1
aI1
aI1
aI2
aI2
aI2
aI1
aI4
aI252
aI1
aI1
aI1
aI1
aI1
aI1
aI14
aI1
aI2
aI2
aI2
aI1
aI1
aI1258
aI1
aI1
aI1
aI1
aI1
aI1
aI1
aI8
aI1
aI4
aI5
aI2
aI1
aI12
aI1
aI41
aI1
aI2
aI1
aI1
aI1
aI1
aI1
aI2
aI1
aI1
aI1
aI1
aI1
aI1
aI1
aI1
aI1
aI1
aI1
aI4
aI1
aI1
aI771
aI1
aI1
aI8
aI1
aI3
aI22
aI2
aI1
aI1
aI1
aI1
aI2
aI1
aI16
aI1
aI2
aI6
aI1
aI5912
aI39
aI1
aI1
aI1
aI2
aI1
aI237
aI23
aI1
aI2
aI1
aI3
aI57
aI1
aI1
aI1
aI1
aI1
aI1
aI4
aI1
aI4
aI1
aI2
aI2
aI15
aI1
aI1
aI2
aI2
aI7
aI1
aI1
aI1
aI4
aI2
aI1
aI1
aI3
aI5
aI1
aI1
aI1
aI6
aI3
aI1
aI1
aI1
aI1
aI9
aI1
aI1
aI1
aI1
aI40
aI4
aI1
aI1
aI1
aI27
aI1
aI1
aI1
aI2
aI1
aI31
aI1
aI1
aI1
aI1
aI1
aI13
aI44
aI2
aI69
aI73
aI1
aI1
aI1
aI1
aI18
aI2
aI1
aI1
aI4
aI1
aI3
aI1
aI9
aI2
aI2
aI15
aI3
aI12
aI1
aI1
aI1
aI1
aI12
aI2
aI1
aI1
aI1
aI2
aI1
aI1
aI1
aI20
aI1
aI20
aI18
aI1
aI12
aI1
aI1
aI2
aI1
aI2
aI63
aI3
aI1
aI1
aI1
aI1
aI1
aI1
aI1
aI1
aI1
aI3
aI1
aI1
aI1
aI16
aI51
aI1
aI1
aI2
aI1
aI6
aI1
aI6
aI1
aI1
aI1
aI1
aI207
aI1
aI1
aI1
aI1
aI1
aI1
aI1
aI1
aI1
aI1
aI1
aI10
aI1
aI1
aI1
aI1
aI35
aI1
aI1
aI1
aI1
aI21
aI1
aI1
aI1
aI29
aI1
aI1
aI1
aI9
aI2
aI2
aI38
aI2
aI1
aI1
aI1
aI1
aI1
aI1
aI1
aI1
aI1
aI1
aI1
aI1
aI226
aI1
aI19
aI1
aI1
aI2
aI28
aI1
aI8
aI67
aI98
aI5
aI1
aI1
aI1
aI1
aI18
aI3
aI1
aI1
aI1
aI2
aI1
aI1
aI1
aI69
aI12
aI2
aI1
aI1
aI1
aI1
aI2
aI1
aI2
aI4
aI3
aI2
aI2
aI33
aI6
aI1
aI1
aI11
aI18
aI11
aI1
aI1
aI1
aI13
aI1
aI1
aI1
aI1
aI1
aI1
aI15
aI1
aI1
aI1
aI1
aI71
aI1
aI10
aI1
aI2
aI6
aI1
aI1
aI1
aI7
aI17
aI3
aI1
aI3
aI5
aI3
aI1
aI1
aI2
aI1
aI12
aI1
aI1
aI1
aI1
aI1
aI1
aI1
aI1
aI1
aI4
aI1
aI2
aI730
aI1
aI1
aI1
aI3
aI40
aI2
aI1
aI3
aI1
aI1
aI1
aI1
aI1
aI1
aI1
aI2
aI2
aI1
aI1
aI1
aI1
aI2
aI2
aI1
aI1
aI1
aI2
aI1
aI2
aI1
aI1
aI1
aI1
aI1
aI1
aI2
aI27
aI1
aI4
aI1
aI4
aI1
aI1
aI13
aI1
aI1
aI4
aI55
aI1
aI1
aI28
aI1
aI1
aI1
aI1
aI1
aI3
aI1
aI1
aI1
aI1
aI6
aI2
aI1
aI132
aI1
aI1
aI417
aI1
aI1
aI1
aI82
aI1
aI1
aI1
aI7
aI1
aI1
aI1
aI1
aI1
aI1
aI1
aI1
aI1
aI1
aI1
aI1
aI4
aI1
aI1
aI5
aI1
aI1
aI1
aI1
aI1
aI1
aI1
aI1
aI1
aI1
aI1
aI1
aI1
aI2
aI247
aI1
aI1
aI1
aI1
aI1
aI1
aI1
aI2
aI3
aI91
aI2
aI1
aI1
aI2
aI1
aI1
aI1
aI1
aI2
aI76
aI3
aI44
aI55
aI3
aI1
aI1
aI1
aI2
aI1
aI1
aI1
aI1
aI1
aI1
aI1
aI1
aI1
aI1
aI2
aI2
aI2
aI2
aI1
aI1
aI1
aI4
aI1
aI1
aI26
aI3
aI1
aI5
aI6
aI1
aI2
aI34
aI1
aI1
aI1
aI1
aI1
aI2
aI1
aI1
aI2
aI1
aI2
aI1
aI1
aI1
aI1
aI1
aI13
aI1
aI53
aI1
aI2
aI199
aI1
aI1
aI3
aI2
aI4
aI11
aI1
aI8
aI1
aI8
aI1
aI1
aI1
aI30
aI7
aI1
aI1
aI1
aI1
aI8
aI1
aI40
aI1
aI4
aI1
aI1
aI1
aI2
aI1
aI5
aI2
aI1
aI25
aI1
aI3
aI2
aI4
aI10
aI1
aI2
aI1
aI2
aI1
aI2
aI1
aI1
aI1
aI1
aI1
aI1
aI1
aI2
aI2
aI4
aI1
aI1
aI1
aI1
aI2
aI1
aI31
aI2
aI1
aI1
aI23
aI390
aI1
aI3
aI1
aI1
aI1
aI1
aI1
aI1
aI2094
aI1
aI6
aI1
aI1
aI1
aI34
aI1
aI1
aI1
aI1
aI1
aI43
aI1
aI1
aI97
aI3
aI1
aI2
aI1
aI3
aI1
aI1
aI6
aI2
aI3
aI312
aI1
aI1
aI1
aI1
aI1
aI1
aI1
aI235
aI1
aI1
aI51
aI1
aI1
aI1
aI1
aI36
aI3
aI1
aI1
aI1
aI1
aI21
aI2
aI7
aI1
aI1
aI1
aI1
aI6
aI1
aI1
aI2
aI1
aI4
aI1
aI1
aI1
aI1
aI1
aI94
aI1
aI2
aI1
aI1
aI1
aI1
aI1
aI1
aI9
aI5
aI4
aI1
aI1
aI7
aI3
aI19
aI21
aI105
aI1
aI6
aI13
aI1
aI374
aI11
aI1
aI1
aI2
aI9
aI2
aI1
aI2
aI1
aI1
aI8
aI1
aI1
aI1
aI1
aI1
aI1
aI2
aI8
aI2
aI2
aI1
aI1
aI6
aI4
aI2
aI1
aI18
aI1
aI1
aI1
aI1
aI619
aI1
aI23
aI1
aI1
aI2
aI1
aI3
aI1
aI1
aI1
aI1
aI1
aI1
aI1
aI1
aI3
aI3
aI64
aI11
aI1
aI2
aI1
aI1
aI1
aI162
aI1
aI1
aI39
aI2
aI1
aI1
aI1
aI1
aI1
aI4
aI4
aI2
aI2
aI1
aI2
aI3
aI1
aI6
aI1
aI173
aI3
aI1
aI1
aI1
aI1
aI1
aI1
aI1
aI2
aI194
aI1
aI5
aI1
aI1
aI9
aI1
aI1
aI1
aI4
aI1
aI1
aI2
aI1
aI7
aI1
aI1
aI3
aI6
aI1
aI1
aI2
aI2
aI1
aI2
aI1
aI1
aI1
aI2
aI1
aI1
aI1
aI12
aI1
aI11
aI62
aI1
aI1
aI1
aI8
aI1
aI1
aI1
aI1
aI1
aI1
aI1
aI15
aI5
aI1
aI2
aI1
aI1
aI1
aI1
aI1
aI1
aI2
aI5
aI1
aI2
aI1
aI1
aI1
aI1
aI9
aI1
aI1
aI1
aI1
aI1
aI1
aI1
aI1
aI1
aI2
aI1
aI1
aI4
aI1
aI1
aI1
aI6
aI23
aI1
aI1
aI1
aI1
aI4
aI3
aI2
aI1
aI1
aI1
aI1
aI1
aI2
aI2
aI1
aI1
aI1
aI1
aI1
aI1
aI1
aI2
aI1
aI1
aI1
aI2
aI1
aI1
aI1
aI11
aI3
aI1
aI10
aI17
aI534
aI2
aI2
aI1
aI1
aI1
aI1
aI1
aI2
aI4
aI1
aI8
aI7
aI1
aI1
aI1
aI1
aI1
aI9
aI145
aI3
aI2
aI4
aI2
aI5
aI2
aI1
aI1
aI1
aI1
aI1
aI1
aI2
aI1
aI4
aI1
aI2
aI1
aI9709
aI2
aI2
aI1
aI1
aI1
aI14
aI1
aI63
aI1
aI1
aI1
aI1
aI4
aI1
aI1
aI1
aI1
aI3
aI1
aI1
aI1
aI1
aI1
aI1
aI1
aI1
aI1
aI1
aI21
aI1
aI1
aI1
aI2
aI2
aI9
aI1
aI2
aI1
aI1
aI5
aI2
aI1
aI3
aI1
aI1
aI1
aI43
aI1
aI1
aI1
aI1
aI1
aI1
aI3
aI3
aI3
aI25
aI1
aI1
aI3
aI1
aI1
aI1
aI4
aI3
aI1
aI1
aI29
aI14
aI5
aI1
aI1
aI1
aI2
aI21
aI1
aI5
aI2
aI325
aI1
aI1
aI2
aI7
aI2
aI1
aI11
aI2
aI2
aI1
aI8
aI7
aI1
aI1
aI2
aI4
aI28
aI6
aI1
aI1
aI1
aI1
aI1
aI2
aI2
aI47
aI1
aI1
aI1
aI1
aI2
aI8
aI1
aI51
aI1
aI1
aI1
aI1
aI48
aI1
aI1
aI8
aI2
aI47
aI1
aI1
aI1
aI1
aI1
aI4
aI1
aI4
aI1
aI1
aI2
aI24
aI6
aI1
aI1
aI1
aI7
aI1
aI3
aI2
aI1
aI2
aI5
aI1
aI1
aI6
aI4
aI1
aI1
aI1
aI1
aI1
aI1
aI2
aI2
aI1
aI1
aI1
aI39
aI5
aI14
aI1
aI3
aI2
aI1
aI1
aI2
aI1
aI57
aI136
aI1
aI3
aI12
aI1
aI17
aI1
aI1
aI1
aI1
aI1
aI3
aI1
aI5
aI2
aI1
aI1
aI2
aI1
aI1
aI1
aI3
aI20
aI1
aI1
aI1
aI1
aI1
aI2
aI1
aI2
aI2
aI1
aI2
aI2
aI4
aI13
aI1
aI1
aI1
aI1
aI1
aI1
aI3
aI4
aI32
aI3
aI2
aI2
aI1
aI1
aI1
aI1
aI2
aI1
aI1
aI1
aI1
aI2
aI3
aI1
aI1
aI2
aI1
aI2
aI11
aI1
aI2
aI2
aI1
aI7
aI1
aI3
aI82
aI1
aI1
aI43
aI4
aI1
aI1
aI1
aI3
aI1
aI1
aI1
aI1
aI4
aI1
aI1
aI1
aI1
aI1
aI2
aI1
aI1
aI1
aI1
aI45
aI1
aI1
aI1
aI1
aI1
aI2
aI3
aI1
aI1
aI1
aI1
aI2
aI2
aI1
aI2
aI1
aI1
aI1
aI1
aI1
aI1
aI2
aI1
aI1
aI1
aI28
aI1
aI1
aI1
aI23
aI1
aI80
aI2
aI2
aI1
aI1
aI1
aI1
aI1
aI1
aI1
aI1
aI1
aI1
aI1
aI1
aI22
aI1
aI1
aI5
aI1
aI9
aI1
aI1
aI6
aI1
aI1
aI1
aI1
aI14
aI1
aI2
aI66
aI3
aI1
aI2
aI2
aI1
aI2
aI1
aI6
aI1
aI1
aI103
aI1
aI1
aI1
aI1
aI1
aI2
aI1
aI1
aI1
aI64
aI1
aI3
aI1
aI6
aI20
aI1
aI1
aI1
aI1
aI1
aI1
aI11
aI1
aI1
aI1
aI2
aI874
aI2
aI1
aI1
aI1
aI1
aI1
aI1
aI1
aI21
aI1
aI1
aI1
aI3
aI1
aI4
aI1
aI2
aI1
aI1
aI1
aI2
aI1
aI1
aI1
aI1
aI1
aI1
aI1
aI1
aI3
aI12
aI1
aI346
aI1
aI1
aI1
aI1
aI1
aI1
aI4
aI1
aI2
aI1
aI1
aI1
aI3
aI1
aI1
aI110
aI1
aI1
aI2
aI2
aI1
aI1
aI12
aI1
aI3
aI1
aI1
aI1
aI1
aI1
aI2
aI1
aI1
aI1
aI4
aI1
aI1
aI1
aI5
aI1
aI1
aI33
aI1
aI1
aI1
aI19
aI1
aI1
aI1
aI1
aI3
aI1
aI1
aI77
aI6
aI1
aI4
aI1
aI2
aI1
aI12
aI2
aI1
aI1
aI1
aI1
aI1
aI18
aI3
aI1
aI1
aI1
aI24
aI5
aI1
aI1
aI1
aI4
aI1
aI1
aI1
aI1
aI1
aI1
aI1
aI1
aI5
aI1
aI1
aI1
aI1
aI3
aI2
aI1
aI2
aI11
aI1
aI1
aI1
aI5
aI1
aI2
aI1
aI2
aI18
aI1
aI7
aI1
aI1
aI1
aI24
aI1
aI1
aI1
aI1
aI2
aI1
aI6
aI61
aI2
aI9
aI2
aI2247
aI1
aI1
aI1
aI1
aI2
aI18
aI1
aI3
aI8
aI1
aI1
aI1
aI1
aI1
aI2
aI2
aI1
aI2
aI2
aI3
aI2
aI2
aI2
aI25
aI1
aI2
aI1
aI1
aI22
aI2
aI1
aI1
aI4
aI2
aI18
aI1
aI1
aI1
aI1
aI1
aI1
aI1
aI1
aI2
aI1
aI11
aI8
aI1
aI2
aI1
aI9
aI102
aI1
aI6
aI1
aI1
aI2
aI1
aI3
aI1
aI1
aI1
aI1
aI9
aI3
aI1
aI1
aI1
aI1
aI7
aI1
aI4
aI1
aI2
aI1
aI1
aI5
aI2
aI5
aI1
aI1
aI13
aI88
aI1
aI1
aI2
aI2
aI16
aI1
aI1
aI4
aI1
aI1
aI1
aI13
aI1
aI1
aI1
aI3
aI1
aI1
aI2
aI1
aI1
aI1
aI1
aI34
aI1
aI2
aI1
aI1
aI1
aI3
aI246
aI3
aI5
aI1
aI36
aI1
aI3
aI2
aI3
aI3
aI2
aI1
aI6
aI1
aI1
aI1
aI1
aI1
aI1
aI1
aI1
aI13
aI1
aI1
aI2
aI1
aI446
aI3
aI1
aI1
aI3
aI1
aI2
aI1
aI1
aI2
aI386
aI2
aI1
aI1
aI1
aI1
aI2
aI1
aI1
aI1
aI1
aI1
aI1
aI1
aI12
aI2
aI3
aI2
aI592
aI1
aI1
aI1
aI1
aI304
aI1
aI1
aI1
aI1
aI1
aI1
aI1
aI263
aI1
aI2
aI2
aI1
aI1
aI1
aI2
aI17
aI1
aI1
aI2
aI1
aI1
aI1
aI13
aI44
aI1
aI25
aI1
aI1
aI2
aI2
aI4
aI6
aI1
aI1
aI1
aI1
aI1
aI1
aI1
aI2
aI1
aI1
aI1
aI154
aI7
aI1
aI1
aI1
aI3
aI1
aI2
aI2
aI1
aI1
aI2
aI2
aI1
aI2
aI14
aI1
aI1
aI2
aI1
aI2
aI3
aI5
aI2
aI1
aI1
aI1
aI1
aI1
aI2
aI1
aI1
aI2
aI2
aI1
aI24
aI2
aI2
aI1
aI1
aI1
aI1
aI1
aI2
aI1
aI52
aI10
aI1
aI2
aI1
aI2
aI1
aI1
aI1
aI1
aI1
aI1
aI2
aI1
aI2
aI3
aI22
aI2
aI3
aI1
aI1
aI1
aI1
aI1
aI1
aI1
aI3
aI2
aI2
aI1
aI583
aI1
aI88
aI1
aI23
aI2
aI1
aI2
aI3
aI3
aI1
aI1
aI13
aI58
aI1
aI1
aI1
aI2
aI1
aI2
aI3
aI3
aI1
aI57
aI1
aI1
aI2
aI1
aI1
aI1
aI1
aI1
aI3
aI1
aI3
aI16
aI1
aI1
aI592
aI1
aI1
aI1
aI1
aI2
aI1
aI1
aI22
aI1
aI3
aI3
aI1
aI8
aI1
aI58
aI6
aI1
aI2
aI13
aI2
aI1
aI1
aI1
aI1
aI1
aI1
aI1
aI430
aI1
aI6
aI1
aI21
aI2
aI1
aI1713
aI1
aI1
aI1
aI1
aI3
aI1
aI1
aI5
aI1
aI3
aI1
aI1
aI1
aI1
aI1
aI1
aI1
aI1
aI1
aI6
aI1
aI1
aI13
aI1
aI8
aI1
aI1
aI1
aI34
aI2
aI1
aI396
aI1
aI1
aI1
aI1
aI2
aI9
aI8
aI1
aI20
aI1
aI3
aI1
aI2
aI1
aI1
aI283
aI80
aI1
aI422
aI1
aI1
aI1
aI1
aI23
aI6
aI1
aI8
aI207
aI1
aI1
aI1
aI1
aI1
aI1
aI1
aI1
aI1
aI2
aI2
aI8
aI1
aI1
aI2
aI2
aI1
aI1
aI1
aI1
aI1
aI1
aI1
aI1
aI6
aI1
aI1
aI2
aI3
aI1
aI42
aI1
aI2
aI1
aI1
aI1
aI875
aI1
aI1
aI2
aI1
aI7
aI16
aI104
aI1
aI1
aI1
aI2
aI1
aI2
aI3
aI170
aI1
aI1
aI1
aI1
aI24
aI1
aI1
aI2
aI3
aI1
aI1
aI1
aI2
aI180
aI2
aI1
aI1
aI1
aI1
aI1
aI1
aI8
aI1
aI2
aI1
aI2
aI2
aI1
aI1
aI3
aI9
aI3
aI44
aI1
aI1
aI1
aI2
aI1
aI1
aI1
aI71
aI1
aI2
aI1
aI87
aI1
aI9
aI1
aI3
aI1
aI102
aI1
aI32
aI1
aI1100
aI1
aI1
aI1
aI43
aI1
aI1
aI2
aI1
aI1
aI4
aI36
aI3
aI1
aI1
aI1
aI10
aI1
aI1
aI11
aI5
aI25
aI1
aI10
aI1
aI1
aI1
aI3
aI1
aI1
aI1
aI1
aI3
aI1
aI6
aI20
aI3
aI1
aI1
aI45
aI1
aI1
aI1
aI11
aI1
aI1
aI63
aI1
aI1
aI6
aI1
aI1
aI1
aI1
aI1
aI3
aI1
aI1
aI2
aI1
aI2
aI2
aI2
aI37
aI1
aI1
aI5
aI1
aI1
aI1
aI1
aI1
aI4
aI1
aI85
aI2
aI20
aI1
aI1
aI1
aI1
aI11
aI18
aI1
aI3
aI2
aI2
aI8
aI1
aI1
aI2
aI1
aI1
aI1
aI1
aI1
aI1
aI1
aI3
aI8
aI1
aI1
aI5
aI12
aI1
aI1
aI1
aI1
aI1
aI1
aI18
aI1
aI1
aI41
aI1
aI1
aI1
aI1
aI1
aI1
aI2
aI36
aI1
aI1
aI1
aI1
aI1
aI1
aI154
aI1
aI1
aI1
aI1
aI8
aI1
aI1
aI276
aI11
aI1
aI7
aI1
aI2
aI1
aI152
aI1
aI1
aI1
aI4
aI1
aI4
aI1
aI4
aI1
aI25
aI21
aI1
aI7
aI2
aI1
aI5
aI7
aI1
aI1
aI1
aI1
aI29
aI8
aI2
aI1
aI1
aI1
aI2
aI5
aI1
aI1
aI1
aI4
aI1
aI7
aI2
aI1
aI1
aI62
aI12
aI1
aI1
aI1
aI1
aI2
aI1
aI1
aI1
aI2
aI10
aI1
aI1
aI89
aI6
aI2
aI21
aI1
aI1
aI4
aI64
aI1
aI2
aI57
aI1
aI1
aI1
aI3
aI2
aI1
aI1
aI2
aI1
aI1
aI1
aI1
aI1
aI1
aI1
aI3
aI1
aI1
aI1
aI1
aI1
aI2
aI3
aI1
aI1
aI1
aI1
aI1
aI1
aI1
aI1
aI1
aI6
aI1
aI1
aI1
aI2
aI2
aI7
aI1
aI1
aI6
aI1
aI1
aI1
aI1
aI7
aI1
aI1
aI1
aI2
aI1
aI1
aI1
aI13
aI2
aI1
aI1
aI3
aI6
aI28
aI16
aI1
aI1
aI1
aI1
aI2
aI2
aI1
aI1
aI1
aI1
aI3
aI189
aI2
aI1
aI15
aI1
aI1
aI1
aI1
aI1
aI26
aI38
aI1
aI3
aI1
aI5
aI1
aI9
aI1
aI9
aI1
aI1
aI1
aI6
aI2
aI1
aI1
aI416
aI2
aI12
aI1
aI1
aI3
aI1
aI1
aI2
aI8
aI1
aI1
aI2
aI2
aI1
aI24
aI7
aI1
aI64
aI1
aI2
aI14
aI1
aI1
aI1
aI1
aI1
aI22
aI76
aI1
aI12
aI2
aI1
aI2
aI1
aI1
aI1
aI1
aI1
aI1
aI1
aI1
aI33
aI1
aI1
aI1
aI1
aI1
aI1
aI1
aI1
aI212
aI1
aI1
aI1
aI8
aI1
aI44
aI1
aI2
aI4
aI4
aI2
aI1
aI13
aI44
aI1
aI58
aI1
aI1
aI1
aI2
aI1
aI1
aI1
aI1
aI1
aI1
aI2
aI31
aI7
aI1
aI215
aI1
aI1
aI20
aI2
aI2
aI1
aI1
aI1
aI1
aI1
aI1
aI1
aI1
aI1
aI1
aI15
aI1
aI1
aI1
aI1
aI5
aI1
aI1
aI1
aI2
aI1
aI3
aI1
aI4
aI1
aI4
aI1
aI20
aI1
aI1
aI2
aI1
aI14
aI1
aI79
aI10
aI19
aI1
aI1
aI1
aI1
aI1
aI1
aI1
aI1
aI16
aI1
aI2
aI1
aI17
aI1
aI1
aI3
aI1
aI1
aI1
aI23
aI1
aI1
aI15
aI136
aI2
aI1
aI1
aI3
aI1
aI1
aI1
aI1
aI37
aI1
aI5
aI1
aI2
aI1
aI1
aI2
aI2
aI5
aI1
aI1
aI1
aI1
aI6
aI1
aI1
aI3
aI1
aI1
aI3
aI1
aI1
aI1
aI6
aI1
aI1
aI1
aI7
aI2
aI2
aI1
aI1
aI1
aI2
aI2
aI2
aI1
aI1
aI3
aI1
aI3
aI1
aI13
aI2
aI1
aI14
aI2
aI1
aI1
aI7
aI1
aI1
aI3
aI2
aI1
aI2
aI1
aI2
aI1
aI2
aI13
aI57
aI1
aI1
aI1
aI1
aI1
aI1
aI2
aI2
aI1
aI13
aI3
aI3
aI2
aI1
aI3
aI3
aI1
aI1
aI16
aI1
aI3
aI1
aI1
aI2
aI5
aI1
aI48
aI18
aI5
aI2
aI1
aI2
aI1
aI1
aI1
aI1
aI3
aI1
aI1
aI1
aI1
aI1
aI1
aI4
aI1
aI8
aI1
aI1
aI2
aI1
aI1
aI1
aI2
aI2
aI1
aI1
aI3
aI19
aI1
aI1
aI3
aI1
aI1
aI2
aI1
aI1
aI1
aI2
aI2
aI1
aI2
aI3
aI1
aI1
aI1
aI1
aI1
aI13
aI1
aI10
aI2
aI1
aI1
aI1
aI2
aI6
aI2
aI3
aI1
aI4
aI1
aI1
aI1
aI3
aI55
aI32
aI10
aI2
aI28
aI8
aI1
aI1
aI1
aI1
aI2
aI1
aI1
aI1
aI5
aI2
aI1
aI1
aI1
aI1
aI3
aI4
aI1
aI5
aI1
aI1
aI1
aI1
aI1
aI1
aI1
aI33
aI1
aI1
aI2
aI2
aI1
aI1
aI1
aI2
aI1
aI1
aI2
aI64
aI16
aI1
aI1
aI2
aI1
aI2
aI1
aI1
aI1
aI1
aI1
aI6
aI1
aI1
aI1
aI1
aI1
aI3
aI9
aI8
aI1
aI1
aI1
aI7
aI2
aI1
aI2
aI1
aI1
aI1
aI1
a.