(lp0
I668
aI3
aI3
aI4
aI1
aI1
aI1
aI1
aI118
aI2
aI3
aI44
aI411
aI2
aI1
aI301
aI1916
aI1
aI3
aI2
aI1
aI2
aI2
aI239
aI456
aI1
aI1
aI1
aI125
aI1
aI441
aI6
aI5
aI335
aI5
aI1
aI4
aI3
aI1
aI1
aI1
aI3
aI24
aI1
aI10284
aI1
aI2
aI3
aI1
aI1
aI1
aI1
aI1
aI12
aI433
aI4
aI1
aI14
aI1
aI2
aI3
aI2
aI1
aI1
aI1
aI1
aI1
aI1
aI1
aI3118
aI1
aI14
aI1
aI4
aI3
aI1
aI3
aI1
aI3
aI34
aI19
aI1
aI4
aI1
aI3
aI2
aI1
aI1
aI14
aI1
aI2
aI8
aI6
aI12
aI2
aI31
aI1
aI18
aI23
aI1
aI2
aI1
aI2
aI2
aI2
aI400
aI1
aI109
aI1
aI3
aI515
aI3
aI1
aI12
aI1
aI1
aI4
aI5
aI1
aI9
aI1
aI2
aI915
aI1
aI1651
aI2
aI1
aI1
aI1
aI4
aI5
aI1
aI2
aI3
aI4
aI1
aI1
aI57
aI3
aI132
aI1
aI1
aI57
aI2
aI2
aI7
aI1
aI1
aI1
aI3
aI10
aI3
aI1
aI1
aI1
aI2
aI3
aI2
aI1
aI6
aI2
aI2
aI1
aI1
aI2
aI1
aI1
aI2
aI1
aI1
aI1
aI18
aI2
aI10
aI1
aI1
aI1
aI1
aI1
aI2
aI1
aI2
aI1
aI1
aI2
aI1
aI1
aI1
aI2
aI6
aI1
aI1
aI1
aI1
aI2
aI1
aI61
aI1
aI1
aI1
aI4
aI1
aI4
aI1
aI1
aI1
aI2
aI1
aI2
aI1
aI1
aI1
aI3
aI2
aI1
aI7
aI1
aI2
aI2
aI7
aI3
aI1
aI1
aI2
aI3
aI7
aI1
aI2
aI2
aI1
aI4
aI1
aI2
aI1
aI1
aI1
aI3
aI1
aI1
aI2
aI1
aI2
aI1
aI1
aI1
aI1
aI1
aI1
aI1
aI3
aI4
aI1
aI1
aI4
aI1
aI1
aI1
aI1
aI2
aI1
aI1
aI2
aI1
aI2
aI1
aI1
aI1
aI3
aI1
aI2
aI1
aI1
aI1
aI1
aI1
aI1
aI1
aI1
aI2
aI1
aI1
aI2
aI9
aI4
aI2
aI1
aI3
aI1
aI2
aI2
aI1
aI1
aI1
aI7
aI3
aI6
aI12
aI7
aI4
aI1
aI1
aI215
aI1
aI2
aI2
aI1
aI1
aI128
aI3
aI1
aI1
aI1
aI1
aI1
aI26
aI1
aI1
aI1
aI2
aI3
aI1
aI1
aI1
aI6
aI1
aI1
aI1
aI1
aI2
aI1
aI1
aI2
aI1
aI1
aI1
aI1
aI1
aI21
aI3
aI165
aI1
aI2
aI2
aI1
aI3
aI1
aI1
aI2
aI2
aI1
aI1
aI1
aI3
aI1
aI1
aI1
aI1
aI1
aI5
aI3
aI2
aI2
aI1
aI1
aI2
aI2
aI1
aI1
aI2
aI1
aI5
aI5
aI1
aI1
aI1
aI1
aI8
aI1
aI2
aI2
aI1
aI1
aI3
aI1
aI4
aI1
aI1
aI3
aI3
aI5
aI1
aI1
aI1
aI6
aI2
aI3
aI1
aI1
aI1
aI1
aI1
aI7
aI1
aI3
aI4
aI1
aI3
aI3
aI1
aI6
aI1
aI1
aI2
aI12
aI1
aI1
aI2
aI1
aI1
aI1
aI2
aI2
aI6
aI2
aI7
aI2
aI10
aI1
aI1
aI2
aI2
aI1
aI1
aI1
aI1
aI1
aI1
aI5
aI4
aI5
aI1
aI7
aI3
aI35
aI3
aI2
aI1
aI1
aI1
aI1
aI4
aI1
aI2
aI1
aI1
aI6
aI1
aI4
aI1
aI2
aI1
aI4
aI1
aI1
aI1
aI1
aI1
aI1
aI8
aI2
aI1
aI2
aI3
aI1
aI2
aI1
aI1
aI1
aI2
aI13
aI123
aI1
aI1
aI1
aI1
aI1
aI1
aI3
aI1
aI1
aI1
aI1
aI4
aI1
aI1
aI1
aI1
aI1
aI1
aI1
aI6
aI1
aI1
aI4
aI4
aI1
aI1
aI1
aI1
aI1
aI5
aI1
aI5
aI1
aI2
aI2
aI1
aI1
aI1
aI2
aI1
aI4
aI1
aI1
aI1
aI1
aI1
aI7
aI2
aI13
aI1
aI2
aI1
aI2
aI1
aI1
aI2
aI1
aI2
aI1
aI1
aI1
aI1
aI1
aI1
aI1
aI1
aI3
aI1
aI1
aI2
aI1
aI19
aI1
aI5
aI2
aI2
aI1
aI1
aI1
aI1
aI1
aI7
aI10
aI1
aI1
aI1
aI3
aI1
aI1
aI2
aI3
aI1
aI1
aI1
aI1
aI2
aI2
aI1
aI1
aI1
aI1
aI6
aI3
aI19
aI27
aI7
aI1
aI1
aI54
aI1
aI1
aI1
aI1
aI1
aI2
aI1
aI1
aI10
aI1
aI1
aI1
aI4
aI1
aI1
aI6
aI1
aI4
aI1
aI1
aI1
aI1
aI1
aI1
aI3
aI1
aI1
aI1
aI4
aI1
aI1
aI1
aI1
aI3
aI2
aI2
aI1
aI1
aI1
aI1
aI1
aI1
aI1
aI2
aI1
aI1
aI1
aI1
aI6
aI33
aI1
aI1
aI3
aI1
aI23
aI13
aI3
aI1
aI1
aI4484
aI1
aI1
aI7
aI1
aI1
aI1
aI1
aI1
aI2
aI1
aI2
aI3
aI2
aI1
aI1
aI1
aI1
aI1
aI1
aI9
aI7
aI4
aI1
aI1
aI1
aI3
aI3
aI1
aI1
aI1
aI1
aI1
aI2
aI105
aI6
aI3
aI3
aI1
aI1
aI6
aI3
aI1
aI1
aI2
aI2
aI1
aI2
aI1
aI3
aI1
aI1
aI75
aI1
aI1
aI1
aI1
aI1
aI1
aI1
aI4
aI1
aI1
aI1
aI23
aI1
aI1
aI1
aI1
aI1
aI1
aI1
aI1
aI1
aI1
aI5
aI1
aI1
aI1
aI3
aI2
aI1
aI3
aI4
aI1
aI2
aI5
aI3
aI1
aI1
aI1
aI67
aI2
aI2
aI3
aI1
aI1
aI60
aI1
aI2
aI1
aI1
aI2
aI1
aI2
aI1
aI1
aI1
aI7
aI1
aI1
aI1
aI7
aI2
aI2
aI3
aI1
aI1
aI1
aI1
aI1
aI1
aI1
aI1
aI6
aI1
aI1
aI6
aI2
aI1
aI2
aI2
aI1
aI3
aI1
aI1
aI2
aI1
aI1
aI1
aI39
aI1
aI1
aI5
aI2
aI4
aI1
aI1
aI1
aI10
aI1
aI1
aI1
aI3
aI1
aI1
aI1
aI1
aI5
aI1
aI1
aI2
aI1
aI14
aI3
aI6
aI7
aI4
aI1
aI1
aI1
aI1
aI1
aI1
aI1
aI1
aI1
aI1
aI1
aI1
aI38
aI1
aI1
aI16
aI6
aI1
aI1
aI16
aI2
aI2
aI1
aI1
aI3
aI2
aI1
aI2
aI8
aI1
aI1
aI2
aI10
aI1
aI1
aI1
aI4
aI1
aI1
aI2
aI1
aI1
aI1
aI2
aI1
aI2
aI1
aI1
aI1
aI1
aI2
aI1
aI1
aI48
aI8
aI1
aI2
aI2
aI1
aI1
aI1
aI1
aI4
aI3
aI1
aI1
aI1
aI1
aI1
aI2
aI480
aI1
aI1
aI1
aI3
aI1
aI1
aI1
aI1
aI4
aI10
aI21
aI2
aI1
aI1
aI1
aI1
aI1
aI16
aI1
aI1
aI1
aI1
aI1
aI2
aI1
aI1
aI1
aI1
aI8
aI1
aI1
aI2
aI1
aI2
aI4
aI3
aI1
aI1
aI1
aI1
aI2
aI1
aI1
aI1
aI1
aI1
aI1
aI1
aI2
aI1
aI27
aI1
aI1
aI2
aI1
aI1
aI5
aI11
aI1
aI4
aI31
aI12
aI27
aI2
aI1
aI1
aI1
aI1
aI6
aI1
aI3
aI1
aI1
aI3
aI1
aI1
aI2
aI1
aI3
aI1
aI2
aI1
aI4
aI10
aI1
aI1
aI1
aI1
aI1
aI24
aI1
aI1
aI1
aI1
aI1
aI2
aI2
aI2
aI1
aI1
aI1
aI2
aI1
aI2
aI1
aI3
aI1
aI1
aI1
aI3
aI1
aI1
aI1
aI1
aI1
aI1
aI1
aI1
aI1
aI1
aI183
aI1
aI1
aI1
aI1
aI1
aI1
aI2
aI1
aI1
aI1
aI4
aI2
aI3
aI3
aI1
aI3
aI1
aI1
aI1
aI22
aI2
aI1
aI1
aI1
aI2
aI1
aI2
aI4
aI8
aI1
aI1
aI5
aI5
aI1
aI1
aI1
aI1
aI2
aI1
aI1
aI4
aI1
aI1
aI1
aI3
aI1
aI1
aI2
aI2
aI6
aI1
aI1
aI1
aI3
aI5
aI6
aI3
aI1
aI1
aI1
aI3
aI2
aI1
aI1
aI1
aI1
aI3
aI11
aI4
aI1
aI2
aI1
aI9
aI1
aI1
aI2
aI2
aI1
aI2
aI1
aI1
aI4
aI3
aI1
aI1
aI6
aI1
aI2
aI1
aI1
aI3
aI1
aI1
aI1
aI2
aI1
aI1
aI1
aI1
aI1
aI1
aI1
aI1
aI1
aI1
aI1
aI2
aI4
aI1
aI1
aI1
aI6
aI1
aI14
aI56
aI1935
aI2
aI1
aI1
aI1
aI7
aI3
aI7
aI1
aI1
aI1
aI1
aI1
aI1
aI1
aI8
aI1
aI1
aI1
aI2
aI4
aI3
aI11
aI3
aI2
aI5
aI2
aI1
aI3
aI1
aI1
aI2
aI4
aI3
aI1
aI1
aI1
aI1
aI2
aI1
aI1
aI6
aI1
aI1
aI1
aI1
aI1
aI1
aI3
aI1
aI1
aI2
aI1
aI1
aI1
aI4
aI1
aI1
aI2
aI2
aI1
aI1
aI1
aI3
aI1
aI1
aI1
aI1
aI1
aI1
aI1
aI5
aI2
aI1
aI1
aI1
aI2
aI1
aI31
aI1
aI5
aI1
aI3
aI1
aI1
aI1
aI7
aI1
aI2
aI1
aI3
aI1
aI1
aI1
aI6
aI1
aI2
aI1
aI1
aI1
aI1
aI1
aI1
aI1
aI3
aI1
aI1
aI1
aI1
aI1
aI6
aI1
aI15
aI1
aI1
aI1
aI2
aI4
aI1
aI2
aI1
aI1
aI2
aI17
aI1
aI5
aI2
aI2
aI3
aI11
aI1
aI1
aI1
aI2
aI3
aI2
aI1
aI1
aI1
aI1
aI1
aI1
aI1
aI1
aI1
aI9
aI1
aI1
aI1
aI1
aI15
aI2
aI1
aI1
aI1
aI60
aI1
aI5
aI2
aI1
aI1
aI1
aI1
aI2
aI1
aI1
aI1
aI1
aI1
aI1
aI1
aI1
aI11
aI2
aI1
aI1
aI7
aI1
aI2
aI1
aI1
aI2
aI1
aI2
aI2
aI3
aI3
aI1
aI1
aI1
aI1
aI2
aI1
aI2
aI1
aI2
aI1
aI1
aI2
aI1
aI1
aI1
aI2
aI47
aI1
aI3
aI1
aI1
aI1
aI2
aI7
aI2
aI2
aI1
aI1
aI2
aI2
aI1
aI1
aI1
aI2
aI3
aI1
aI4
aI5
aI1
aI4
aI6
aI1
aI19
aI1
aI1
aI5
aI4
aI1
aI1
aI1
aI1
aI1
aI1
aI1
aI2
aI1
aI1
aI5
aI1
aI1
aI2
aI1
aI2
aI3
aI1
aI1
aI1
aI1
aI1
aI1
aI2
aI36
aI2
aI2
aI7
aI3
aI1
aI5
aI1
aI1
aI1
aI1
aI1
aI3
aI1
aI2
aI4
aI1
aI2
aI3
aI1
aI1
aI1
aI5
aI1
aI2
aI2
aI1
aI6
aI2
aI1
aI1
aI1
aI1
aI1
aI5
aI2
aI1
aI1
aI222
aI1
aI1
aI1
aI1
aI8
aI1
aI2
aI1
aI1
aI5
aI1
aI23
aI1
aI1
aI1
aI1
aI1
aI1
aI2
aI5
aI1
aI9
aI3
aI3
aI1
aI4
aI2
aI1
aI5
aI1
aI1
aI2
aI1
aI1
aI1
aI1
aI1
aI2
aI3
aI1
aI1
aI1
aI1
aI5
aI1
aI2
aI2
aI1
aI1
aI2
aI1
aI1
aI1
aI1
aI1
aI1
aI4
aI1
aI1
aI3
aI2
aI1
aI1
aI3
aI1
aI4
aI1
aI1
aI34
aI1
aI2
aI12
aI1
aI1
aI2
aI1
aI1
aI1
aI1
aI7
aI3
aI2
aI1
aI2
aI1
aI1
aI1
aI1
aI29
aI3
aI16
aI2
aI65
aI1
aI1
aI1
aI2
aI2
aI1
aI1
aI1
aI1
aI2
aI1
aI1
aI79
aI1
aI1
aI1
aI6
aI2
aI1
aI3
aI137
aI1
aI2
aI1
aI2
aI1
aI1
aI3
aI1
aI2
aI1
aI3
aI1
aI2
aI3
aI1
aI1
aI1
aI1
aI3
aI1
aI1
aI1
aI1
aI5
aI1
aI3
aI2
aI2
aI4
aI1
aI4
aI1
aI2
aI1
aI1
aI1
aI1
aI1
aI2
aI1
aI1
aI1
aI3
aI1
aI1
aI1
aI1
aI3
aI9
aI1
aI2
aI2
aI1
aI1
aI2
aI2
aI4
aI1
aI1
aI1
aI2
aI1
aI2
aI1
aI1
aI1
aI1
aI3
aI1
aI1
aI3
aI1
aI2
aI1
aI1
aI1
aI1
aI3
aI1
aI1
aI6
aI1
aI1
aI1
aI1
aI1
aI1
aI216
aI4
aI3
aI3
aI5
aI1
aI1
aI1
aI3
aI4
aI2
aI48
aI12
aI570
aI1
aI2
aI2
aI1
aI2
aI9
aI1
aI1
aI3
aI5
aI28
aI1
aI3
aI1
aI1
aI2
aI2
aI1
aI1
aI1
aI3
aI4
aI1
aI1
aI1
aI1
aI1
aI1
aI1
aI1
aI7
aI1
aI1
aI1
aI1
aI2
aI1
aI5
aI1
aI2
aI1
aI3
aI1
aI1
aI1
aI1
aI2
aI9
aI1
aI1
aI1
aI1
aI3
aI5
aI1
aI1
aI1
aI2
aI1
aI2
aI1
aI3
aI1
aI1
aI1
aI2
aI1
aI1
aI1
aI1
aI2
aI1
aI3
aI10
aI1
aI1
aI2
aI1
aI1
aI1
aI1
aI1
aI1
aI1
aI1
aI1
aI1
aI1
aI1
aI1
aI1
aI8
aI2
aI4
aI1
aI2
aI21
aI3
aI1
aI1
aI2
aI1
aI1
aI1
aI1
aI1
aI3
aI1
aI1
aI1
aI1
aI1
aI1
aI1
aI5
aI1
aI1
aI1
aI3
aI1
aI4
aI1
aI1
aI7
aI2
aI1
aI1
aI1
aI1
aI1
aI1
aI1
aI1
aI2
aI1
aI10
aI1
aI2
aI1
aI1
aI11
aI5
aI1
aI1
aI2
aI2
aI2
aI1
aI2
aI1
aI3
aI5
aI2
aI10
aI1
aI6
aI2
aI7
aI4
aI6
aI2
aI1
aI2
aI2
aI3
aI1
aI2
aI2
aI9
aI1
aI1
aI1
aI2
aI3
aI1
aI1
aI1
aI1
aI1
aI3
aI2
aI1
aI2
aI1
aI1
aI2
aI2
aI10
aI1
aI1
aI1
aI1
aI60
aI1
aI1
aI1
aI2
aI1
aI1
aI1
aI1
aI1
aI2
aI1
aI1
aI2
aI1
aI3
aI11
aI2
aI16
aI1
aI1
aI5
aI3
aI2
aI1
aI2
aI1
aI1
aI1
aI1
aI1
aI13
aI7
aI2
aI1
aI1
aI1
aI1
aI1
aI1
aI2
aI1
aI1
aI1
aI3
aI1
aI1
aI2
aI8
aI1
aI1
aI1
aI1
aI1
aI1
aI16
aI1
aI1
aI10
aI1
aI1
aI1
aI1
aI2
aI1
aI1
aI1
aI4
aI6
aI1
aI3
aI1
aI1
aI2
aI1
aI1
aI1
aI1
aI1
aI1
aI1
aI1
aI223
aI1
aI1
aI3
aI1
aI1
aI3
aI1
aI6
aI1
aI2
aI3
aI2
aI1
aI7
aI1
aI1
aI1
aI1
aI1
aI5
aI1
aI8
aI2
aI4
aI3
aI1
aI1
aI2
aI1
aI5
aI10
aI1
aI1
aI1
aI1
aI1
aI1
aI2
aI1
aI2
aI2
aI1
aI1
aI7
aI1
aI1
aI5
aI1
aI2
aI1
aI1
aI1
aI1
aI1
aI3
aI6
aI2
aI2
aI1
aI2
aI1
aI2
aI1
aI1
aI1
aI1
aI1
aI1
aI1
aI1
aI1
aI1
aI1
aI1
aI1
aI1
aI1
aI1
aI2
aI1
aI7
aI2
aI1
aI1
aI1
aI1
aI1
aI1
aI1
aI4
aI1
aI112
aI1
aI1
aI1
aI5
aI1
aI1
aI3
aI1
aI1
aI1
aI8
aI53
aI1
aI1
aI3
aI1
aI1
aI2
aI4
aI1
aI1
aI1
aI1
aI6
aI2
aI1
aI3
aI1
aI1
aI1
aI2
aI5
aI1
aI1
aI2
aI1
aI1
aI4
aI1
aI3
aI2
aI30
aI1
aI2
aI3
aI1
aI1
aI1
aI1
aI1
aI1
aI1
aI1
aI1
aI5
aI2
aI4
aI339
aI2
aI1
aI3
aI79
aI1
aI1
aI127
aI2
aI1
aI2
aI1
aI1
aI3
aI10
aI1
aI1
aI1
aI1
aI1
aI1
aI1
aI2
aI1
aI1
aI1
aI1
aI16
aI7
aI1
aI42
aI4
aI42
aI1
aI2
aI20
aI1
aI3
aI3
aI1
aI1
aI1
aI5
aI2
aI1
aI1
aI1
aI4
aI1
aI1
aI1
aI1
aI10
aI1
aI1
aI1
aI1
aI1
aI1
aI1
aI1
aI1
aI4
aI1
aI1
aI1
aI1
aI1
aI1
aI1
aI1
aI1
aI3
aI1
aI1
aI1
aI1
aI1
aI1
aI1
aI1
aI6
aI5
aI3
aI1
aI1
aI1
aI1
aI1
aI1
aI1
aI1
aI1
aI1
aI13
aI1
aI2
aI2
aI1
aI1
aI1
aI1
aI1
aI26
aI1
aI1
aI1
aI9
aI4
aI1
aI1
aI2
aI3
aI1
aI1
aI1
aI2
aI1
aI1
aI1
aI1
aI1
aI124
aI1
aI2
aI1
aI1
aI1
aI1
aI18
aI1
aI1
aI1
aI1
aI2
aI9
aI1
aI2
aI1
aI1
aI1
aI20
aI1
aI5
aI1
aI1
aI1
aI1
aI1
aI11
aI9
aI5
aI1
aI1
aI1
aI1
aI2
aI4
aI2
aI2
aI13
aI4
aI2
aI2
aI1
aI1
aI1
aI1
aI1
aI2
aI1
aI1
aI1
aI1
aI1
aI1
aI1
aI1
aI1
aI3
aI1
aI2
aI4
aI1
aI1
aI1
aI28
aI2
aI1
aI2
aI3
aI1
aI2
aI7
aI1
aI1
aI1
aI4
aI1
aI1
aI1
aI3
aI1
aI723
aI1
aI1
aI1
aI2
aI1
aI1
aI3
aI1
aI1
aI1
aI1
aI12
aI1
aI3
aI1
aI2
aI1
aI1
aI1
aI4
aI1
aI8
aI4
aI4
aI2
aI9
aI1
aI1
aI2
aI1
aI1
aI4
aI7
aI16
aI1
aI1
aI1
aI6
aI1
aI1
aI32
aI1
aI2
aI1
aI13
aI4
aI1
aI2
aI2
aI1
aI1
aI1
aI2
aI1
aI7
aI1
aI1
aI1
aI2
aI2
aI11
aI1
aI2
aI1
aI1
aI1
aI1
aI1
aI2
aI1
aI1
aI2
aI1
aI3
aI1
aI10
aI1
aI1
aI1
aI1
aI2
aI1
aI1
aI1
aI1
aI1
aI4
aI1
aI1
aI1
aI1
aI2
aI4
aI2
aI1
aI1
aI2
aI8
aI1
aI1
aI2
aI2
aI1
aI1
aI1
aI2
aI1
aI7
aI1
aI1
aI2
aI1
aI1
aI1
aI1
aI1
aI1
aI2
aI1
aI1
aI1
aI2
aI1
aI2
aI4
aI1
aI1
aI11
aI1
aI2
aI2
aI2
aI1
aI2
aI1
aI2
aI1
aI5
aI2
aI1
aI1
aI36
aI1
aI7
aI2
aI5
aI1
aI1
aI3
aI30
aI1
aI1
aI1
aI1
aI3
aI1
aI4
aI1
aI20
aI8
aI1
aI2
aI2
aI1
aI1
aI1
aI1
aI2
aI1
aI1
aI1
aI1
aI1
aI1
aI2
aI5
aI1
aI1
aI1
aI1
aI2
aI1
aI1
aI3
aI6
aI1
aI1
aI1
aI1
aI10
aI1
aI1
aI1
aI1
aI1
aI10
aI2
aI1
aI1
aI1
aI1
aI1
aI1
aI1
aI1
aI1
aI1
aI1
aI1
aI4
aI1
aI5
aI1
aI18
aI1
aI3
aI7
aI5
aI1
aI1
aI2
aI1
aI1
aI1
aI1
aI1
aI2
aI24
aI1
aI4
aI1
aI3
aI6
aI1
aI1
aI2
aI1
aI2
aI1
aI4
aI1
aI3
aI1
aI3
aI1
aI3
aI1
aI1
aI1
aI1
aI7
aI1
aI1
aI1
aI1
aI8
aI8
aI1
aI2
aI3
aI1
aI1
aI1
aI1
aI1
aI1
aI1
aI3336
aI1
aI1
aI5
aI1
aI1
aI1
aI1
aI2
aI1
aI1
aI1
aI1
aI1
aI2
aI1
aI1
aI1
aI39
aI1
aI54
aI1
aI5
aI2
aI1
aI1
aI2
aI1
aI1
aI1
aI1
aI2
aI2
aI1
aI1
aI1
aI1
aI2
aI1
aI7
aI1
aI1
aI3
aI1
aI1
aI1
aI1
aI1
aI1
aI2
aI1
aI2
aI6
aI1
aI2
aI1
aI9
aI3
aI3
aI2
aI1
aI1
aI1
aI2
aI1
aI2
aI1
aI1
aI1
aI1
aI1
aI3
aI1
aI2
aI1
aI1
aI1
aI1
aI1
aI1
aI1
aI1
aI3
aI1
aI325
aI1
aI1
aI1
aI2
aI1
aI1
aI1
aI1
aI10
aI1
aI3
aI2
aI1
aI1
aI1
aI1
aI1
aI1
aI1
aI1
aI1
aI1
aI2
aI1
aI1
aI1
aI2
aI4
aI1
aI1
aI1
aI1
aI2
aI2
aI2
aI5
aI1
aI1
aI2
aI1
aI2
aI10
aI2
aI1
aI6
aI1
aI1
aI59
aI1
aI1
aI1
aI1
aI1
aI1
aI1
aI4
aI1
aI1
aI4
aI1
aI1
aI6
aI1
aI1
aI1
aI1
aI1
aI1
aI1
aI2
aI1
aI1
aI2
aI1
aI1
aI1
aI4
aI56
aI1
aI1
aI1
aI1
aI25
aI1
aI5
aI1
aI1
aI1
aI1
aI1
aI1
aI2
aI1
aI1
aI1
aI3
aI1
aI1
aI1
aI1
aI7
aI1
aI1
aI1
aI3
aI2
aI6
aI3
aI2
aI3
aI1
aI1
aI2
aI1
aI1
aI5
aI2
aI1
aI2
aI1
aI1
aI1
aI1
aI2
aI2
aI1
aI10
aI1
aI1
aI2
aI6
aI1
aI1
aI1
aI1
aI1
aI1
aI1
aI1
aI2
aI1
aI1
aI4
aI1
aI3
aI1
aI1
aI30
aI1
aI2
aI13
aI1
aI1
aI1
aI1
aI1
aI1
aI2
aI1
aI1
aI1
aI1
aI1
aI5
aI2
aI1
aI1
aI1
aI1
aI2
aI2
aI1
aI1
aI1
aI1
aI1
aI1
aI1
aI1
aI1
aI1
aI1
aI4
aI1
aI2
aI1
aI2
aI2
aI2
aI2
aI4
aI1
aI18
aI1
aI1
aI1
aI1
aI1
aI2
aI2
aI1
aI1
aI1
aI1
aI1
aI1
aI1
aI1
aI1
aI1
aI2
aI2
aI1
aI2
aI1
aI1
aI1
aI5
aI1
aI1
aI1
aI1
aI1
aI1
aI1
aI25
aI1
aI15
aI1
aI2
aI1
aI2
aI2
aI1
aI5
aI2
aI1
aI2
aI1
aI3
aI1
aI1
aI2
aI1
aI1
aI3
aI1
aI1
aI5
aI1
aI1
aI1
aI1
aI1
aI1
aI2
aI2
aI2
aI3
aI10
aI1
aI1
aI1
aI1
aI1
aI1
aI1
aI1
aI2
aI1
aI1
aI1
aI1
aI1
aI1
aI5
aI1
aI1
aI23
aI1
aI28
aI2
aI1
aI3
aI1
aI1
aI1
aI1
aI2
aI1
aI1
aI1
aI3
aI1
aI1
aI1
aI1
aI1
aI1
aI1
aI8
aI1
aI2
aI1
aI1
aI15
aI2
aI1
aI12
aI1
aI1
aI1
aI1
aI1
aI1
aI4
aI1
aI1
aI11
aI1
aI1
aI1
aI2
aI2
aI5
aI2
aI1
aI1
aI3
aI1
aI1
aI1
aI3
aI1
aI1
aI1
aI1
aI1
aI1
aI1
aI1
aI15
aI1
aI1
aI1
aI1
aI1
aI1
aI4
aI1
aI1
aI1
aI3
aI2
aI1
aI2
aI1
aI2
aI1
aI2
aI1
aI1
aI4
aI1
aI1
aI1
aI2
aI1
aI2
aI1
aI4
aI2
aI6
aI6
aI22
aI2
aI2
aI1
aI2
aI1
aI1
aI1
aI1
aI1
aI1
aI2
aI1
aI2
aI2
aI1
aI2
aI5
aI1
aI1
aI1
aI1
aI1
aI1
aI23
aI1
aI2
aI1
aI7
aI1
aI1
aI1
aI1
aI2
aI1
aI1
aI3
aI2
aI1
aI1
aI4
aI1
aI1
aI1
aI4
aI1
aI1
aI2
aI1
aI1
aI1
aI1
aI1
aI1
aI1
aI1
aI1
aI1
aI2
aI1
aI1
aI1
aI2
aI1
aI5
aI5
aI1
aI5
aI3
aI2
aI1
aI1
aI1
aI1
aI4
aI1
aI1
aI2
aI1
aI1
aI1
aI2
aI1
aI2
aI1
aI1
aI3
aI2
aI1
aI2
aI1
aI40
aI1
aI1
aI3
aI1
aI1
aI1
aI2
aI1
aI1
aI1
aI1
aI1
aI1
aI1
aI1
aI1
aI1
aI2
aI1
aI1
aI1
aI1
aI1
aI1
aI1
aI2
aI5
aI4
aI2
aI1
aI10
aI1
aI1
aI3
aI8
aI3
aI1
aI1
aI3
aI1
aI3
aI1
aI1
aI3
aI8
aI1
aI9
aI1
aI4
aI4
aI2
aI1
aI1
aI1
aI1
aI18
aI1
aI1
aI2
aI1
aI1
aI1
aI4
aI1
aI7
aI1
aI1
aI1
aI1
aI1
aI2
aI1
aI3
aI1
aI1
aI1
aI2
aI1
aI6
aI4
aI22
aI1
aI2
aI1
aI3
aI17
aI2
aI1
aI1
aI3
aI5
aI2
aI1
aI4
aI1
aI27
aI1
aI1
aI2
aI1
aI8
aI4
aI1
aI1
aI17
aI4
aI1
aI1
aI1
aI1
aI1
aI2
aI1
aI1
aI5
aI7
aI2
aI2
aI2
aI1
aI21
aI7
aI3
aI8
aI6
aI4
aI6
aI2
aI3
aI1
aI1
aI1
aI3
aI1
aI2
aI1
aI1
aI3
aI1
aI1
aI1
aI2
aI1
aI1
aI1
aI3
aI1
aI3
aI2
aI1
aI4
aI1
aI1
aI4
aI1
aI1
aI2
aI4
aI1
aI2
aI1
aI7
aI2
aI3
aI1
aI4
aI1
aI1
aI9
aI1
aI1
aI4
aI1
aI1
aI1
aI3
aI2
aI1
aI1
aI3
aI1
aI1
aI1
aI1
aI2
aI2
aI3
aI1
aI3
aI1
aI1
aI1
aI18
aI1
aI3
aI1
aI1
aI3
aI6
aI20
aI1
aI4
aI1
aI4
aI5
aI1
aI1
aI1
aI1
aI2
aI1
aI1
aI1
aI2
aI1
aI1
aI1
aI8
aI1
aI2
aI1
aI1
aI2
aI1
aI1
aI3
aI1689
aI2
aI1
aI1
aI1
aI1
aI1
aI6
aI6
aI1
aI1
aI9
aI1
aI17
aI1
aI1
aI1
aI1
aI1
aI1
aI2
aI1
aI1
aI1
aI1
aI3
aI1
aI1
aI1
aI1
aI1
aI1
aI1
aI1
aI1
aI2
aI1
aI1
aI1
aI1
aI1
aI2
aI2
aI1
aI1
aI1
aI2
aI2
aI6
aI10
aI2
aI1
aI4
aI4
aI5
aI2
aI1
aI1
aI1
aI4
aI1
aI4
aI1
aI1
aI13
aI1
aI2
aI27
aI4
aI1
aI1
aI7
aI1
aI1
aI1
aI11
aI1
aI5
aI2
aI5
aI6
aI2
aI52
aI1
aI1
aI12
aI3
aI4
aI1
aI6
aI1
aI1
aI1
aI1
aI5
aI3
aI1
aI1
aI1
aI1
aI7
aI1
aI1
aI11
aI1
aI1
aI4
aI2
aI1
aI1
aI2
aI1
aI1
aI2
aI22
aI1
aI1
aI1
aI1
aI1
aI2
aI1
aI1
aI6
aI3
aI1
aI2
aI3
aI1
aI1
aI1
aI1
aI1
aI1
aI1
aI2
aI1
aI4
aI223
aI2
aI1
aI1
aI12
aI1
aI4
aI6
aI1
aI1
aI1
aI11
aI1
aI1
aI2
aI1
aI1
aI3
aI1
aI1
aI1
aI1
aI1
aI1
aI1
aI2
aI1
aI1
aI3
aI2
aI3
aI7
aI1
aI1
aI1
aI3
aI1
aI1
aI1
aI1
aI2
aI4
aI1
aI23
aI17
aI1
aI1
aI1
aI1
aI1
aI1
aI104
aI1
aI2
aI1
aI3
aI5
aI2
aI10
aI4
aI1
aI7
aI4
aI1
aI1
aI4
aI5
aI4
aI3
aI1
aI6
aI1
aI1
aI3
aI4
aI1
aI1
aI9
aI2
aI6
aI1
aI1
aI1
aI1
aI2
aI1
aI1
aI3
aI17
aI1
aI1
aI1
aI1
aI7
aI2
aI1
aI1
aI1
aI1
aI11
aI1
aI1
aI21
aI2
aI1
aI1
aI1
aI5
aI1
aI2
aI2
aI1
aI2
aI1
aI1
aI1
aI2
aI1
aI1
aI2
aI4
aI1
aI1
aI1
aI1
aI6
aI2
aI1
aI1
aI1
aI1
aI1
aI1
aI1
aI1
aI2
aI2
aI1
aI1
aI2
aI1
aI3
aI1
aI2
aI1
aI14
aI10
aI14
aI1
aI1
aI4
aI3
aI3
aI1
aI1
aI1
aI1
aI1
aI151
aI32
aI9
aI2
aI2
aI83
aI1
aI1
aI5
aI1
aI1
aI1
aI1
aI2
aI1093
aI1
aI2
aI1
aI1
aI1
aI1
aI2
aI5
aI1
aI2
aI2
aI1
aI1
aI24
aI1
aI1
aI1
aI2
aI1
aI1
aI8
aI1
aI1
aI5
aI1
aI1
aI2
aI20
aI1
aI1
aI1
aI1
aI1
aI1
aI9
aI1
aI2
aI2
aI1
aI1
aI1
aI1
aI1
aI1
aI2
aI1
aI2
aI1
aI1
aI3
aI51
aI1
aI2
aI2
aI1
aI1
aI1
aI1
aI1
aI2
aI3
aI1
aI1
aI1
aI1
aI2
aI1
aI1
aI1
aI1
aI5
aI1
aI1
aI8
aI1
aI2
aI6
aI1
aI2
aI1
aI1
aI1
aI3
aI2
aI1
aI2
aI1
aI3
aI1
aI1
aI1
aI3
aI1
aI1
aI2
aI1
aI1
aI9
aI1
aI2
aI5
aI1
aI2
aI1
aI1
aI24
aI1
aI1
aI1
aI2
aI1
aI1
aI1
aI2
aI14
aI2
aI2
aI1
aI15
aI1
aI3
aI2
aI1
aI1
aI9
aI1
aI4
aI1
aI2
aI1
aI1
aI1
aI2
aI4
aI1
aI1
aI1
aI1
aI2
aI1
aI1
aI1
aI2
aI2
aI3
aI149
aI2
aI1
aI1
aI1
aI1
aI6
aI1
aI1
aI1
aI1
aI1
aI1
aI1
aI1
aI13
aI1
aI33
aI2
aI2
aI1
aI1
aI2
aI5
aI12
aI2
aI2
aI13
aI1
aI1
aI1
aI3
aI1
aI1
aI2
aI1
aI1
aI3
aI3
aI1
aI1
aI4
aI1
aI1
aI2
aI2
aI4
aI62
aI1
aI1
aI4
aI1
aI179
aI1
aI1
aI1
aI1
aI1
aI3
aI94
aI1
aI1
aI2
aI1
aI1
aI1
aI1
aI1
aI12
aI1
aI1
aI7
aI1
aI1
aI1
aI1
aI1
aI4
aI3
aI1
aI1
aI1
aI1
aI5
aI2
aI1
aI1
aI1
aI1
aI1
aI1
aI1
aI3
aI2
aI11
aI3
aI1
aI1
aI1
aI6
aI1
aI12
aI72
aI1
aI2
aI3
aI1
aI1
aI3
aI6
aI2
aI2
aI3
aI2
aI1
aI3
aI3
aI1
aI50
aI1
aI3
aI5
aI1
aI2
aI2
aI2
aI4
aI2
aI3
aI1
aI1
aI3
aI4
aI1
aI1
aI4
aI1
aI6
aI1
aI1
aI1
aI1
aI3
aI3
aI1
aI2
aI1
aI7
aI1
aI2
aI5
aI1
aI1
aI1
aI1
aI2
aI1
aI2
aI2
aI4
aI1
aI1
aI1
aI1
aI1
aI2
aI9
aI1
aI1
aI2
aI5
aI1
aI6
aI1
aI1
aI1
aI4
aI2
aI2
aI1
aI1
aI1
aI1
aI1
aI1
aI2
aI1
aI1
aI2
aI2
aI14
aI1
aI3
aI1
aI6
aI2
aI1
aI3
aI3
aI1
aI1
aI3
aI2
aI9
aI10
aI1
aI1
aI1
aI1
aI1
aI14
aI2
aI1
aI3
aI5
aI4
aI1
aI1
aI1
aI10
aI1
aI2
aI2
aI1
aI1
aI3
aI5
aI34
aI1
aI1
aI1
aI1
aI1
aI1
aI2
aI1
aI1
aI3
aI1
aI1
aI1
aI1
aI1
aI1
aI1
aI1
aI116
aI1
aI3
aI1
aI1
aI3
aI2
aI5
aI2
aI2
aI2
aI1
aI1
aI1
aI1
aI1
aI2
aI1
aI26
aI1
aI2
aI1
aI1
aI1
aI1
aI2
aI21
aI1
aI10
aI6
aI1
aI8
aI5
aI1
aI4
aI2
aI2
aI4
aI1
aI1
aI1
aI2
aI1
aI1
aI2
aI1
aI1
aI1
aI3
aI2
aI11
aI2
aI2
aI1
aI3
aI1
aI1
aI1
aI5
aI5
aI1
aI1
aI1
aI1
aI4
aI2
aI3
aI10
aI2
aI3
aI1
aI6
aI1
aI1
aI2
aI1
aI1
aI1
aI2
aI3
aI1
aI3
aI1
aI1
aI1
aI1
aI5
aI1
aI2
aI2
aI1
aI1
aI1
aI1
aI1
aI1
aI7
aI5
aI5
aI2
aI3
aI2
aI1
aI1
aI1
aI3
aI3
aI3
aI1
aI1
aI624
aI1
aI20
aI1
aI1
aI3
aI13
aI3
aI1
aI1
aI2
aI1
aI4
aI1
aI1
aI1
aI1
aI1
aI1
aI1
aI6
aI1
aI1
aI1
aI1
aI1
aI1
aI13
aI1
aI3
aI9
aI1
aI1
aI3
aI1
aI1
aI3
aI1
aI5
aI1
aI1
aI1
aI2
aI1
aI1
aI1
aI1
aI1
aI1
aI1
aI1
aI1
aI1
aI7
aI4
aI1
aI1
aI1
aI1
aI1
aI1
aI66
aI1
aI1
aI1
aI1
aI1
aI1
aI1
aI1
aI1
aI1
aI4
aI1
aI2
aI1
aI1
aI1
aI488
aI1
aI12
aI5
aI1
aI2
aI2
aI2
aI1
aI1
aI1
aI1
aI1
aI1
aI2
aI13
aI1
aI1
aI1
aI1
aI3
aI1
aI1
aI6
aI2
aI1
aI1
aI52
aI1
aI1
aI5
aI1
aI1
aI2
aI1
aI1
aI1
aI1
aI1
aI1
aI1
aI1
aI2
aI1
aI2
aI1
aI1
aI1
aI1
aI2
aI1
aI1
aI2
aI1
aI1
aI2
aI1
aI1
aI1
aI2
aI4
aI1
aI2
aI2
aI85
aI1
aI1
aI1
aI1
aI1
aI1
aI1
aI19
aI7
aI1
aI1
aI1
aI1
aI1
aI3
aI1
aI12
aI1
aI1
aI7
aI5
aI1
aI3
aI1
aI2
aI1
aI17
aI1
aI1
aI1
aI1
aI2
aI3
aI1
aI1
aI1
aI216
aI10
aI2
aI1
aI1
aI1
aI2
aI7
aI1
aI2
aI2
aI1
aI4
aI1
aI15
aI1
aI1
aI1
aI1
aI9
aI1
aI1
aI1
aI1
aI1
aI1
aI8
aI5
aI1
aI2
aI1
aI1
aI2
aI1
aI3
aI1
aI2
aI2
aI1
aI1
aI1
aI1
aI1
aI4
aI1
aI1
aI2
aI1
aI1
aI1
aI1
aI1
aI1
aI1
aI1
aI1
aI2
aI1
aI2
aI2
aI1
aI1
aI1
aI1
aI1
aI4
aI2
aI1
aI2
aI2
aI1
aI1
aI4
aI2
aI2
aI1
aI1
aI1
aI3
aI4
aI1
aI1
aI1
aI1
aI4
aI18
aI2
aI1
aI2
aI5
aI16
aI1
aI1
aI2
aI6
aI1
aI1
aI1
aI1
aI1
aI1
aI1
aI1
aI1
aI1
aI2
aI2
aI1
aI2
aI1
aI1
aI1
aI2
aI1
aI4
aI1
aI1
aI1
aI6
aI2
aI2
aI1
aI22
aI2
aI1
aI1
aI1
aI1
aI1
aI1
aI1
aI2
aI1
aI1
aI4
aI3
aI1
aI1
aI1
aI1
aI1
aI1
aI1
aI4
aI1
aI1
aI1
aI6
aI1
aI1
aI4
aI1
aI3
aI1
aI1
aI19
aI1
aI1
aI1
aI3
aI1
aI1
aI1
aI1
aI7
aI2
aI1
aI1
aI1
aI1
aI4
aI2
aI4
aI3
aI3
aI1
aI1
aI1
aI1
aI1
aI1
aI2
aI1
aI1
aI1
aI1
aI19
aI1
aI2
aI2
aI1
aI5
aI1
aI1
aI6
aI2
aI1
aI1
aI1
aI20
aI2
aI1
aI1
aI2
aI1
aI1
aI2
aI1
aI1
aI1
aI1
aI1
aI1
aI1
aI1
aI1
aI2
aI1
aI1
aI1
aI3
aI1
aI2
aI1
aI2
aI1
aI1
aI2
aI17
aI1
aI1
aI1
aI3
aI2
aI1
aI1
aI9
aI7
aI1
aI1
aI2
aI1
aI3
aI2
aI1
aI1
aI1
aI1
aI2
aI1
aI1
aI1
aI2
aI1
aI1
aI1
aI1
aI2
aI3
aI1
aI1
aI1
aI2
aI2
aI1
aI7
aI3
aI1
aI1
aI18
aI2
aI1
aI1
aI1
aI1
aI1
aI1
aI3
aI2
aI1
aI1
aI4
aI2
aI1
aI1
aI1
aI2
aI1
aI3
aI1
aI3
aI1
aI1
aI1
aI2
aI1
aI2
aI2
aI1
aI1
aI1
aI2
aI1
aI5
aI84
aI1
aI28
aI1
aI2
aI1
aI1
aI4
aI1
aI1
aI2
aI3
aI4
aI1
aI1
aI1
aI4
aI26
aI1
aI1
aI2
aI2
aI1
aI1
aI6
aI3
aI2
aI1
aI1
aI1
aI1
aI1
aI1
aI1
aI1
aI1
aI2
aI1
aI1
aI1
aI1
aI1
aI3
aI1
aI2
aI3
aI1
aI2
aI10
aI2
aI1
aI1
aI2
aI1
aI2
aI7
aI1
aI1
aI1
aI2
aI1
aI1
aI477
aI3
aI2
aI1
aI1
aI2
aI1
aI2
aI3
aI4
aI4
aI3
aI1
aI1
aI7
aI2
aI2
aI1
aI1
aI1
aI1
aI1
aI1
aI3
aI2
aI33
aI11
aI1
aI1
aI2
aI1
aI13
aI4
aI4
aI16
aI4
aI1
aI3
aI1
aI1
aI1
aI1
aI1
aI1
aI2
aI1
aI1
aI1
aI1
aI10
aI1
aI1
aI1
aI1
aI1
aI1
aI1
aI6
aI1
aI1
aI1
aI4
aI1
aI6
aI2
aI1
aI1
aI2
aI2
aI3
aI1
aI2
aI1
aI1
aI1
aI1
aI1
aI2
aI1
aI2
aI6
aI4
aI3
aI4
aI2
aI2
aI1
aI1
aI2
aI1
aI6
aI1
aI2
aI1
aI1
aI1
aI8
aI6
aI1
aI1
aI1
aI89
aI1
aI32
aI1
aI2
aI6
aI1
aI1
aI2
aI2
aI4
aI1
aI1
aI3
aI1
aI5
aI1
aI1
aI1
aI3
aI1
aI1
aI6
aI3
aI3
aI1
aI2
aI2
aI5
aI1
aI4
aI1
aI1
aI1
aI1
aI1
aI4
aI1
aI3
aI1
aI1
aI2
aI5
aI1
aI1
aI1
aI99
aI3
aI1
aI5
aI1
aI2
aI1
aI1
aI1
aI1
aI1
aI1
aI25
aI2
aI5
aI9
aI1
aI2
aI1
aI1
aI1
aI1
aI1
aI1
aI1
aI1
aI3
aI2
aI2
aI5
aI6
aI2
aI2
aI1
aI7
aI1
aI1
aI2
aI2
aI2
aI4
aI3
aI1
aI1
aI2
aI1
aI1
aI1
aI1
aI1
aI1
aI1
aI2
aI1
aI7
aI2
aI4
aI1
aI1
aI1
aI2
aI1
aI1
aI1
aI2
aI1
aI1
aI2
aI1
aI10
aI1
aI3
aI1
aI1
aI1
aI4
aI2
aI8
aI4
aI1
aI1
aI1
aI1
aI1
aI2
aI1
aI1
aI2
aI1
aI1
aI1
aI1
aI1
aI1
aI1
aI2
aI13
aI1
aI1
aI6
aI1
aI1
aI1
aI10
aI2
aI1
aI3
aI1
aI5
aI1
aI1
aI3
aI3
aI5
aI1
aI1
aI1
aI1
aI1
aI1
aI466
aI10
aI1
aI3
aI2
aI1
aI2
aI1
aI2
aI2
aI1
aI1
aI1
aI1
aI7
aI1
aI1
aI2
aI1
aI1
aI2
aI891
aI3
aI58
aI1
aI1
aI1
aI3
aI1
aI1
aI3
aI1
aI2
aI1
aI279
aI1
aI2
aI1
aI1
aI2
aI1
aI1
aI1
aI1
aI1
aI1
aI1
aI1
aI3
aI1
aI1
aI1
aI1
aI7
aI2
aI1
aI1
aI1
aI3
aI1
aI1
aI2
aI3
aI1
aI6
aI1
aI3
aI1
aI1
aI17
aI7
aI2
aI1
aI1
aI1
aI6
aI1
aI2
aI1
aI1
aI1
aI4
aI1
aI1
aI2
aI1
aI1
aI1
aI19
aI8
aI7
aI4
aI8
aI25
aI2
aI1
aI1
aI1
aI1
aI4
aI1
aI1
aI3
aI1
aI1
aI1
aI1
aI3
aI6
aI4
aI4
aI39
aI1
aI12
aI1
aI1
aI1
aI1
aI1
aI2
aI1
aI4
aI1
aI4
aI1
aI4
aI1
aI1
aI1
aI65
aI1
aI1
aI1
aI2
aI6
aI2
aI3
aI1
aI1
aI6
aI1
aI1
aI2
aI1
aI1
aI1
aI1
aI23
aI2
aI1
aI1
aI6
aI1
aI1
aI3
aI2
aI1
aI2
aI2
aI1
aI1
aI1
aI8
aI1
aI1
aI1
aI1
aI1
aI7
aI25
aI1
aI1
aI1
aI1
aI1
aI1
aI2
aI1
aI3
aI3
aI1
aI1
aI1
aI3
aI3
aI1
aI3
aI4
aI1
aI1
aI1
aI1
aI1
aI3
aI1
aI3
aI1
aI1
aI1
aI1
aI2
aI2
aI1
aI2
aI1
aI4
aI1
aI1
aI1
aI1
aI1
aI1
aI2
aI1
aI1
aI1
aI1
aI1
aI1
aI7
aI2
aI1
aI2
aI1
aI2
aI5
aI6
aI1
aI1
aI1
aI2
aI2
aI6
aI15
aI1
aI1
aI1
aI6
aI1
aI1
aI1
aI1
aI1
aI2
aI3
aI2
aI1
aI19
aI1
aI1
aI1
aI3
aI1
aI1
aI1
aI1
aI28
aI18
aI1
aI1
aI1
aI1
aI1
aI1
aI2
aI1
aI4
aI1
aI4
aI3
aI1
aI2
aI1
aI1
aI1
aI1
aI1
aI1
aI1
aI1
aI7
aI6
aI1
aI1
aI1
aI1
aI1
aI1
aI1
aI2
aI2
aI1
aI1
aI3
aI1
aI1
aI1
aI1
aI1
aI1
aI1
aI1
aI1
aI2
aI1
aI7
aI1
aI4
aI2
aI3
aI1
aI1
aI1
aI3
aI1
aI1
aI1
aI1691
aI1
aI2
aI4
aI1
aI7
aI1
aI3
aI2
aI2
aI1
aI1
aI1
aI4
aI4
aI1
aI2
aI1
aI1
aI1
aI1
aI2
aI2
aI1
aI2
aI1
aI1
aI1
aI3
aI1
aI1
aI1
aI1
aI1
aI1
aI1
aI4
aI1
aI2
aI1
aI1
aI1
aI1
aI1
aI2
aI2
aI1
aI2
aI1
aI3
aI2
aI1
aI1
aI1
aI1
aI1
aI3
aI12
aI1
aI1
aI2
aI1
aI1
aI2
aI1
aI1
aI2
aI1
aI3
aI1
aI1
aI2
aI1
aI1
aI3
aI1
aI1
aI6
aI2
aI1
aI562
aI1
aI1
aI1
aI1
aI1
aI1
aI1
aI1
aI10
aI2
aI1
aI1
aI1
aI1
aI1
aI1
aI1
aI2
aI4
aI2
aI2
aI4
aI1
aI25
aI5
aI2
aI1
aI1
aI1
aI2
aI2
aI1
aI3
aI1
aI1
aI1
aI1
aI1
aI2
aI1
aI2
aI1
aI1
aI1
aI1
aI1
aI1
aI2
aI39
aI1
aI2
aI1
aI1
aI3
aI1
aI2
aI2
aI1
aI1
aI1
aI1
aI1
aI1
aI1
aI2
aI3
aI1
aI2
aI1
aI1
aI1
aI9
aI8
aI4
aI2
aI1
aI4
aI1
aI1
aI4
aI1
aI1
aI1
aI1
aI1
aI1
aI2
aI2
aI1
aI19
aI1
aI1
aI1
aI1
aI1
aI1
aI1
aI1
aI1
aI1
aI5
aI4
aI5
aI1
aI2
aI3
aI2
aI1
aI1
aI2
aI1
aI1
aI1
aI1
aI1
aI1
aI2
aI1
aI1
aI1
aI3
aI1
aI1
aI1
aI2
aI2
aI1
aI1
aI2
aI1
aI2
aI1
aI1
aI42
aI1
aI1
aI1
aI2
aI2
aI1
aI1
aI1
aI1
aI1
aI2
aI4
aI1
aI1
aI1
aI6
aI1
aI1
aI28
aI1
aI1
aI1
aI1
aI1
aI3
aI1
aI1
aI1
aI1
aI1
aI3
aI1
aI1
aI1
aI4
aI1
aI1
aI1
aI1
aI1
aI2
aI1
aI1
aI1
aI1
aI1
aI1
aI1
aI3
aI5
aI2
aI1
aI1
aI2
aI1
aI1
aI1
aI2
aI2
aI1
aI2
aI1
aI2
aI3
aI1
aI1
aI1
aI1
aI1
aI1
aI4
aI1
aI1
aI1
aI2
aI1
aI1
aI1
aI20
aI1
aI1
aI1
aI5
aI1
aI1
aI1
aI1
aI1
aI1
aI1
aI1
aI3
aI2
aI1
aI4
aI1
aI2
aI2
aI1
aI1
aI3
aI1
aI1
aI2
aI3
aI1
aI7
aI1
aI1
aI1
aI6
aI1
aI3
aI1
aI1
aI2
aI1
aI2
aI1
aI2
aI4
aI2
aI2
aI1
aI2
aI1
aI1
aI2
aI1
aI1
aI1
aI2
aI1
aI1
aI1
aI3
aI30
aI1
aI1
aI1
aI1
aI3
aI2
aI2
aI1
aI3
aI1
aI11
aI1
aI1
aI2
aI2
aI1
aI1
aI1
aI2
aI1
aI2
aI1
aI2
aI1
aI1
aI3
aI2
aI1
aI1
aI1
aI1
aI1
aI1
aI1
aI1
aI1
aI1
aI1
aI6
aI1
aI2
aI2
aI3
aI8
aI1
aI2
aI1
aI1
aI2
aI1
aI1
aI1
aI2
aI2
aI1
aI2
aI1
aI8
aI1
aI2
aI2
aI1
aI2
aI1
aI2
aI1
aI1
aI1
aI1
aI4
aI1
aI12
aI3
aI3
aI1
aI1
aI1
aI1
aI1
aI2
aI4
aI36
aI1
aI1
aI1
aI1
aI1
aI1
aI4
aI1
aI1
aI1
aI1
aI1
aI2
aI1
aI8
aI1
aI1
aI1
aI1
aI2
aI1
aI1
aI1
aI3
aI11
aI4
aI6
aI1
aI1
aI1
aI1
aI4
aI1
aI1
aI1
aI4812
aI1
aI7
aI1
aI7
aI1
aI1
aI2
aI1
aI4
aI2
aI1
aI2
aI1
aI1
aI1
aI1
aI1
aI1
aI1
aI3
aI3
aI1
aI3
aI1
aI1
aI1
aI13
aI9
aI1
aI1
aI3
aI78
aI1
aI1
aI10
aI1
aI9
aI2
aI1
aI2
aI1
aI3
aI21
aI5
aI6
aI2
aI1
aI1
aI8
aI1
aI1
aI1
aI2
aI1
aI1
aI1
aI3
aI1
aI1
aI3
aI1
aI3
aI1
aI3
aI1
aI1
aI1
aI3
aI1
aI1
aI1
aI3
aI1
aI1
aI1
aI5
aI10
aI1
aI1
aI1
aI23
aI1
aI1
aI1
aI1
aI4
aI1
aI12
aI1
aI1
aI1
aI2
aI1
aI1
aI2
aI20
aI5
aI1
aI1
aI12
aI1
aI1
aI2
aI3
aI1
aI1
aI1
aI1
aI3
aI1
aI1
aI1
aI1
aI1
aI11
aI13
aI2
aI10
aI1
aI1
aI1
aI11
aI1
aI1
aI1
aI1
aI1
aI1
aI3
aI1
aI13
aI17
aI3
aI4
aI3
aI1
aI3
aI8
aI1
aI2
aI1
aI1
aI5
aI1
aI1
aI1
aI1
aI3
aI2
aI2
aI1
aI1
aI1
aI1
aI1
aI1
aI1
aI1
aI3
aI1
aI6
aI1
aI2
aI10
aI1
aI2
aI4
aI1
aI2
aI2
aI1
aI1
aI1
aI2
aI1
aI2
aI1
aI1
aI14
aI37
aI1
aI2
aI2
aI1
aI1
aI1
aI1
aI1
aI2
aI1
aI1
aI2
aI1
aI1
aI4
aI4
aI1
aI1
aI1
aI5
aI1
aI1
aI2
aI1
aI1
aI1
aI1
aI1
aI1
aI1
aI1
aI1
aI1
aI1
aI1
aI1
aI2
aI1
aI1
aI1
aI1
aI7
aI1
aI1
aI2
aI2
aI1
aI6
aI5
aI2
aI3
aI1
aI1
aI1
aI1
aI1
aI1
aI1
aI395
aI1
aI2
aI1
aI24
aI1
aI2
aI1
aI1
aI3
aI3
aI6
aI3
aI2
aI1
aI1
aI7
aI6
aI1
aI1
aI3
aI1
aI2
aI8
aI1
aI3
aI3
aI1
aI1
aI1
aI2
aI1
aI1
aI1
aI2
aI3
aI1
aI1
aI1
aI2
aI1
aI1
aI1
aI1
aI1
aI4
aI3
aI1
aI7
aI1
aI1
aI5
aI1
aI2
aI9
aI1
aI2
aI1
aI5
aI2
aI4
aI2
aI1
aI1
aI1
aI1
aI1
aI3
aI5
aI1
aI1
aI1
aI1
aI3
aI2
aI1
aI2
aI1
aI1
aI1
aI1
aI1
aI1
aI1
aI2
aI2
aI3
aI17
aI2
aI2
aI1
aI1
aI1
aI1
aI1
aI1
aI1
aI1
aI5
aI2
aI1
aI3
aI1
aI1
aI1
aI1
aI1
aI2
aI4
aI1
aI1
aI1
aI1
aI2
aI10
aI2
aI1
aI1
aI3
aI2
aI6
aI1
aI2
aI2
aI217
aI1
aI2
aI2
aI1
aI1
aI1
aI2
aI4
aI1
aI8
aI1
aI1
aI4
aI3
aI1
aI2
aI1
aI1
aI1
aI1
aI1
aI1
aI16
aI1
aI1
aI2
aI1
aI1
aI1
aI1
aI70
aI1
aI2
aI1
aI8
aI5
aI1
aI1
aI3
aI1
aI7
aI1
aI1
aI2
aI2
aI2
aI1
aI21
aI1
aI1
aI2
aI1
aI1
aI5
aI135
aI1
aI2
aI2
aI1
aI1
aI1
aI2
aI2
aI1
aI1
aI1
aI1
aI225
aI1
aI2
aI1
aI2
aI1
aI2
aI3
aI1
aI1
aI1
aI147
aI1
aI1
aI1
aI1
aI2
aI1
aI1
aI1
aI2
aI1
aI1
aI263
aI1
aI1
aI1
aI1
aI1
aI3
aI1
aI9
aI1
aI3
aI1
aI1
aI1
aI1
aI1
aI3
aI1780
aI1
aI1
aI2
aI1
aI6
aI1
aI2
aI3
aI1
aI2
aI1
aI5
aI12
aI1
aI2
aI2
aI1
aI2
aI2
aI4
aI4
aI1
aI7
aI4
aI2
aI1
aI10
aI8
aI1
aI133
aI1
aI1
aI1
aI1
aI1
aI3
aI2
aI1
aI1
aI2
aI1
aI1
aI3
aI1
aI1
aI2
aI1
aI1
aI1
aI1
aI1
aI1
aI1
aI2
aI2
aI2
aI1
aI1
aI1
aI1
aI2
aI6
aI4
aI1
aI1
aI4
aI1
aI1
aI1
aI5
aI1
aI1
aI1
aI1
aI4
aI1
aI3
aI1
aI2
aI1
aI1
aI1
aI1
aI1
aI1
aI5
aI1
aI3
aI14
aI8
aI1
aI1
aI1
aI1
aI5
aI1
aI6
aI5
aI114
aI5
aI1
aI1
aI1
aI2
aI1
aI1
aI1
aI18
aI42
aI1
aI1
aI1
aI2
aI1
aI2
aI1
aI1
aI1
aI1
aI2
aI4
aI2
aI1
aI1
aI3
aI2
aI1
aI2
aI1
aI1
aI2
aI1
aI1
aI1
aI1
aI1
aI2
aI1
aI2
aI2
aI1
aI1
aI4
aI1
aI152
aI1
aI1
aI1
aI1
aI1
aI1
aI1
aI1
aI1
aI8
aI1
aI1
aI1
aI1
aI6
aI2
aI1
aI1
aI2
aI68
aI1
aI1
aI6
aI1
aI1
aI2
aI2
aI1
aI1
aI1
aI1
aI1
aI5
aI1
aI1
aI1
aI1
aI1
aI1
aI5
aI2
aI1
aI2
aI1
aI1
aI2
aI6
aI1
aI2
aI1
aI1
aI1
aI2
aI1
aI1
aI1
aI1
aI1
aI2
aI1
aI1
aI1
aI1
aI1
aI1
aI2
aI1
aI1
aI1
aI3
aI1
aI1
aI2
aI1
aI3
aI2
aI1
aI2
aI1
aI2
aI2
aI1
aI1
aI1
aI1
aI2
aI1
aI1
aI1
aI3
aI3
aI26
aI1
aI1
aI1
aI3
aI4
aI1
aI1
aI1
aI1
aI1
aI1
aI2
aI3
aI1
aI2
aI8
aI2
aI5
aI1
aI19
aI1
aI1
aI2
aI1
aI5
aI10
aI1
aI2
aI1
aI5
aI3
aI1
aI4
aI1
aI1
aI1
aI1
aI1
aI3
aI3
aI1
aI1
aI1
aI4
aI2
aI2
aI3
aI1
aI1
aI1
aI1
aI10
aI1
aI1
aI3
aI2
aI1
aI1
aI3
aI1
aI1
aI9
aI3
aI1
aI1
aI1
aI1
aI2
aI1
aI2
aI1
aI3
aI1
aI1
aI4
aI1
aI1
aI2
aI1
aI3
aI1
aI1
aI8
aI1
aI1
aI1
aI1
aI1
aI1
aI1
aI5
aI1
aI92
aI21
aI2
aI3
aI1
aI1
aI1
aI6
aI1
aI1
aI1
aI1
aI1
aI1
aI1
aI1
aI2
aI19
aI1
aI3
aI4
aI1
aI1
aI3
aI1
aI1
aI2
aI8
aI1
aI1
aI1
aI1
aI6
aI3
aI9
aI2
aI1
aI2
aI1
aI1
aI1
aI1
aI1
aI6
aI3
aI1
aI1
aI1
aI1
aI1
aI1
aI2
aI1
aI1
aI1
aI1
aI1
aI1
aI1
aI1
aI1
aI2
aI1
aI4
aI1
aI4
aI1
aI2
aI1
aI1
aI1
aI108
aI1
aI2
aI1
aI2
aI1
aI1
aI1
aI3
aI4
aI1
aI1
aI1
aI1
aI1
aI1
aI1
aI2
aI1
aI1
aI1
aI1
aI1
aI5
aI2
aI1
aI1
aI1
aI15
aI1
aI1
aI1
aI1
aI1
aI2
aI1
aI1
aI4
aI1
aI1
aI5
aI1
aI1
aI2
aI2
aI2
aI1
aI1
aI1
aI1
aI5
aI2
aI2
aI1
aI2
aI1
aI1
aI1
aI1
aI1
aI1
aI1
aI1
aI2
aI1
aI1
aI1
aI1
aI1
aI2
aI4
aI1
aI1
aI8
aI1
aI1
aI1
aI1
aI2
aI1
aI7
aI1
aI1
aI1
aI1
aI1
aI1
aI1
aI1
aI1
aI1
aI1
aI1
aI94
aI4
aI3
aI1
aI1
aI3
aI1
aI1
aI1
aI2
aI1
aI1
aI1
aI1
aI3
aI6
aI2
aI1
aI1
aI1
aI2
aI1
aI1
aI8
aI1
aI3
aI23
aI2
aI1
aI1
aI1
aI1
aI2
aI1
aI1
aI1
aI1
aI1
aI1
aI1
aI2
aI1
aI2
aI1
aI1
aI1
aI1
aI1
aI1
aI1
aI3
aI1
aI1
aI120
aI1
aI1
aI1
aI1
aI1
aI4
aI1
aI1
aI1
aI1
aI18
aI1
aI46
aI4
aI4
aI2
aI1
aI892
aI1
aI1
aI2
aI2
aI6
aI137
aI1
aI4
aI5
aI1
aI1
aI1
aI2
aI1
aI1
aI5
aI1
aI1
aI1
aI13821
aI4
aI4
aI1
aI1
aI15
aI21
aI1
aI1
aI1
aI1
aI5
aI1
aI1
aI1
aI6
aI1
aI1
aI1
aI1
aI8
aI2
aI1
aI3
aI2
aI1
aI1
aI4
aI1
aI2
aI2
aI1
aI1
aI6
aI1
aI5
aI5
aI1
aI1
aI1
aI1
aI2
aI1
aI1
aI1
aI1
aI2
aI2
aI1
aI2
aI1
aI1
aI1
aI1
aI4
aI1
aI2
aI1
aI1
aI2
aI1
aI3
aI4
aI2
aI5
aI2
aI3
aI1
aI1
aI1
aI1
aI1
aI1
aI1
aI1
aI2
aI1
aI1
aI2
aI1
aI2
aI17
aI1
aI2
aI2
aI1
aI1
aI3
aI8
aI1
aI1
aI1
aI1
aI1
aI2
aI1
aI3
aI1
aI1
aI1
aI9
aI1
aI2
aI1
aI1
aI1
aI1
aI3
aI1
aI2
aI1
aI2
aI3
aI5
aI1
aI1
aI1
aI9
aI1
aI1
aI10
aI2
aI1
aI1
aI1
aI4
aI1
aI1
aI1
aI1
aI2
aI1
aI1
aI1
aI1
aI1
aI6
aI3
aI1
aI1
aI3
aI1
aI2
aI1
aI1
aI1
aI1
aI1
aI1
aI5
aI1
aI3
aI3
aI1
aI1
aI1
aI1
aI1
aI23
aI5
aI2
aI1
aI1
aI2
aI1
aI1
aI1
aI1
aI1
aI1
aI2
aI1
aI7
aI3
aI4
aI1
aI4
aI1
aI10
aI1
aI2
aI2
aI2
aI1
aI1
aI1
aI13
aI15
aI1
aI2
aI1
aI1
aI16
aI1
aI3
aI3
aI3
aI1
aI5
aI2
aI4
aI4
aI1
aI9
aI1
aI1
aI1
aI1
aI1
aI1
aI1
aI1
aI1
aI1
aI1
aI5
aI3
aI1
aI1
aI1
aI3
aI2
aI1
aI2
aI8
aI2
aI2
aI1
aI3
aI1
aI1
aI2
aI2
aI1
aI10
aI1
aI2
aI1
aI1
aI1
aI1
aI2
aI1
aI3
aI1
aI1
aI1
aI1
aI1
aI1
aI1
aI1
aI1
aI1
aI1
aI1
aI1
aI2
aI1
aI2
aI1
aI1
aI108
aI1
aI1
aI1
aI1
aI2
aI1
aI3
aI1
aI3
aI1
aI1
aI1
aI1
aI1
aI1
aI25
aI3
aI1
aI2
aI1
aI1
aI1
aI3
aI3
aI4
aI59
aI1
aI1
aI1
aI1
aI2
aI48
aI3
aI1
aI1
aI1
aI1
aI1
aI3
aI1
aI2
aI3
aI1
aI3
aI1
aI2
aI1
aI3
aI1
aI13
aI1
aI1
aI1
aI2
aI1
aI1
aI1
aI1
aI7
aI1
aI1
aI2
aI1
aI6
aI1
aI1
aI1
aI2
aI1
aI1
aI1
aI1
aI1832
aI2
aI1
aI1
aI1
aI4
aI4
aI3
aI1
aI3
aI1
aI2
aI1
aI2
aI2
aI9
aI1
aI1
aI1
aI5
aI1
aI1
aI2
aI2
aI1
aI2
aI2
aI2
aI5
aI2
aI2
aI10
aI2
aI1
aI3
aI1
aI1
aI1
aI10
aI1
aI4
aI1
aI2
aI1
aI1
aI1
aI1
aI1
aI1
aI2
aI1
aI1
aI5
aI1
aI1
aI1
aI1
aI1
aI1
aI1
aI1
aI1
aI1
aI1
aI7
aI1
aI2
aI2
aI2
aI1
aI2
aI13
aI2
aI2
aI2
aI1
aI1
aI6
aI1
aI46
aI1
aI1
aI2
aI1
aI4
aI1
aI16
aI1
aI7
aI1
aI1
aI2
aI1
aI9
aI2
aI1
aI1
aI7
aI1
aI1
aI1
aI71
aI4
aI1
aI1
aI4
aI1
aI34
aI12
aI2
aI1
aI2
aI10
aI18
aI2
aI2
aI1
aI4
aI34
aI1
aI1
aI1
aI3
aI1
aI6
aI1
aI1
aI1
aI1
aI1
aI1
aI2
aI1
aI3
aI1
aI1
aI30
aI2
aI1
aI12
aI9
aI9
aI1
aI1
aI8
aI1
aI1
aI1
aI1
aI6
aI1
aI6
aI1
aI1
aI1
aI1
aI2
aI1
aI3
aI1
aI1
aI1
aI15
aI1
aI1
aI1
aI1
aI1
aI1
aI1
aI11
aI1
aI1
aI1
aI1
aI11
aI1
aI3
aI1
aI1
aI1
aI2
aI492
aI2
aI3
aI2
aI1
aI1
aI9
aI2
aI1
aI1
aI1
aI12
aI1
aI1
aI1
aI2
aI9
aI1
aI1
aI6
aI1
aI1
aI1
aI1
aI1
aI1
aI1
aI1
aI1
aI1
aI1
aI1
aI1
aI4
aI1
aI2
aI1
aI56
aI1
aI1
aI1
aI1
aI3
aI3
aI2
aI2
aI1
aI8
aI2
aI1
aI1
aI1
aI1
aI2
aI2
aI1
aI1
aI3
aI1
aI1
aI4
aI25
aI1
aI1
aI1
aI1
aI1
aI1
aI1
aI25
aI5
aI1
aI1
aI13
aI1
aI1
aI1
aI1
aI1
aI1
aI1
aI1
aI1
aI1
aI1
aI1
aI1
aI2
aI1
aI2
aI1
aI1
aI1
aI1
aI1
aI1
aI269
aI1
aI1
aI13
aI1
aI1
aI1
aI3
aI2
aI160
aI3
aI1
aI8
aI1
aI1
aI1
aI3
aI1
aI1
aI2
aI1
aI1
aI2
aI2
aI446
aI1
aI6
aI1
aI4
aI10
aI2
aI2
aI2
aI1
aI1
aI1
aI1
aI1
aI2
aI1
aI1
aI26
aI1
aI2
aI1
aI1
aI1
aI6
aI1
aI1
aI1
aI2
aI1
aI1
aI1
aI1
aI1
aI1
aI1
aI2
aI1
aI1
aI2
aI1
aI2
aI3
aI1
aI1
aI2
aI1
aI1
aI2
aI17
aI1
aI1
aI1
aI1
aI1
aI1
aI7
aI1
aI1
aI1
aI3
aI1
aI1
aI1
aI1
aI1
aI2
aI1
aI1
aI22
aI2
aI1
aI2
aI1
aI1
aI2
aI1
aI3
aI1
aI1
aI4
aI2
aI1
aI3
aI3
aI1
aI4
aI1
aI1
aI1
aI6
aI2
aI1
aI1
aI1
aI3
aI1
aI1
aI1
aI1
aI2
aI1
aI6
aI18
aI1
aI1
aI2
aI1
aI1
aI1
aI2
aI10
aI1
aI1
aI4
aI1
aI1
aI1
aI10
aI2
aI3
aI1
aI2
aI4
aI1
aI20
aI1
aI1
aI1
aI1
aI2
aI1
aI1
aI1
aI1
aI6
aI1
aI3
aI1
aI1
aI1
aI2
aI2
aI1
aI1
aI1
aI1
aI1
aI3
aI1
aI1
aI1
aI3
aI1
aI2
aI1
aI2
aI1
aI1
aI1
aI1
aI1
aI1
aI1
aI1
aI1
aI3
aI3
aI1
aI1
aI14
aI5
aI1
aI1
aI2
aI3
aI1
aI2
aI4
aI115
aI1
aI2
aI1
aI31
aI1
aI1
aI1
aI283
aI1
aI10
aI1
aI1
aI1
aI1
aI3
aI2
aI1
aI1
aI69
aI1
aI1
aI4
aI1
aI2
aI1
aI2
aI2
aI3
aI1
aI5
aI2
aI3
aI1
aI2
aI1
aI2
aI1
aI1
aI2
aI1
aI2
aI3
aI1
aI1
aI1
aI22
aI1
aI1
aI1
aI1
aI33
aI1
aI1
aI1
aI1
aI7
aI4
aI1
aI15
aI2
aI1
aI2
aI1
aI1
aI1
aI5
aI1
aI2
aI1
aI2
aI1
aI1
aI1
aI1
aI140
aI2
aI1
aI1
aI1
aI6
aI1
aI1
aI1
aI1
aI1
aI5
aI172
aI1
aI1
aI12
aI1
aI1
aI2
aI1
aI14
aI1
aI1
aI1
aI1
aI1
aI1
aI2
aI51
aI1
aI1
aI1
aI1
aI5
aI1
aI1
aI2
aI1
aI1
aI1
aI1
aI1
aI1
aI1
aI1
aI1
aI1
aI1
aI5
aI2
aI1
aI1
aI1
aI1
aI1
aI2
aI1
aI2
aI1
aI1
aI1
aI3
aI1
aI1
aI1
aI40
aI22
aI1
aI1
aI1
aI1
aI1
aI1
aI1
aI1
aI1
aI1
aI1
aI5
aI1
aI6
aI2
aI1
aI1
aI1
aI1
aI1
aI1
aI2
aI4
aI1
aI1
aI1
aI1
aI1
aI1
aI1
aI1
aI21
aI1
aI5
aI1
aI2
aI1
aI1
aI1
aI1
aI1
aI1
aI1
aI20
aI1
aI1
aI36
aI1
aI1
aI1
aI1
aI29
aI1
aI1
aI1
aI5
aI2
aI1
aI1
aI2
aI1
aI1
aI1
aI1
aI1
aI1
aI1
aI10
aI5
aI6
aI1
aI2
aI2
aI1
aI1
aI7
aI1
aI1
aI1
aI1
aI1
aI2
aI1
aI1
aI4
aI1
aI1
aI2
aI3
aI1
aI1
aI1
aI1
aI2
aI1
aI2
aI2
aI7
aI2
aI3
aI1
aI1
aI1
aI1
aI1
aI1
aI1
aI1
aI1
aI12
aI1
aI1
aI1
aI1
aI1
aI1
aI1
aI1
aI6
aI1
aI1
aI1
aI3
aI1
aI1
aI2
aI1
aI5
aI1
aI3
aI1
aI1
aI3
aI35
aI2
aI2
aI1
aI1
aI1
aI24
aI3
aI1
aI5
aI1
aI1
aI1
aI2
aI4
aI22
aI1
aI1
aI1
aI3
aI1
aI1
aI1
aI98
aI1
aI2
aI3
aI1
aI1
aI2
aI1
aI1
aI4
aI2
aI1
aI4
aI2
aI1
aI1
aI1
aI1
aI1
aI1
aI1
aI1
aI1
aI2
aI1
aI2
aI1
aI1
aI1
aI4
aI5
aI2
aI2
aI1
aI1
aI1
aI5
aI38
aI2
aI3
aI1
aI2
aI1
aI1
aI38
aI1
aI1
aI8
aI1
aI1
aI4
aI2
aI2
aI1
aI1
aI1
aI1
aI2
aI2
aI1
aI1
aI2
aI1
aI1
aI2
aI4
aI1
aI1
aI1
aI1
aI1
aI1
aI1
aI1
aI1
aI1
aI2
aI2
aI1
aI5
aI1
aI4
aI2
aI1
aI1
aI1
aI2
aI1
aI1
aI1
aI2
aI1
aI2
aI2
aI8
aI2
aI3
aI1
aI2
aI1
aI2
aI1
aI1
aI2
aI13
aI1
aI1
aI1
aI1
aI1
aI1
aI1
aI1
aI1
aI4
aI1
aI3
aI1
aI1
aI1
aI39
aI1
aI1
aI17
aI21
aI1
aI1
aI1
aI1
aI18
aI1
aI5
aI1
aI1
aI1
aI22
aI6
aI2
aI2
aI1
aI24
aI1
aI1
aI1
aI4
aI8
aI1
aI6
aI1
aI3
aI1
aI1
aI5
aI1
aI6
aI1
aI1
aI1
aI2
aI9
aI9
aI11
aI1
aI7
aI6
aI1
aI1
aI1
aI1
aI1
aI1
aI2
aI1
aI1
aI1
aI1
aI1
aI1
aI1
aI6
aI14
aI3
aI1
aI3
aI1
aI16
aI5
aI1
aI1
aI2
aI1
aI1
aI2
aI2
aI64
aI1
aI1
aI1
aI1
aI1
aI1
aI1
aI1
aI2
aI1
aI1
aI2
aI1
aI118
aI1
aI1
aI9
aI1
aI2
aI2
aI1
aI2
aI1
aI48
aI3
aI1
aI1
aI2
aI1
aI1
aI12
aI1
aI26
aI1
aI1
aI2
aI1
aI1
aI2
aI1
aI3
aI1
aI2
aI2
aI1
aI1
aI1
aI6
aI1
aI1
aI3
aI1
aI1
aI2
aI82
aI2
aI2
aI1
aI10
aI3
aI4
aI1
aI1
aI1
aI1
aI1
aI2
aI1
aI1
aI1
aI1
aI10
aI1
aI3
aI6
aI1
aI1
aI2
aI1
aI1
aI2
aI1
aI1
aI1
aI9
aI2
aI1
aI2
aI3
aI1
aI1
aI5
aI2
aI1
aI12
aI2
aI21
aI5
aI2
aI2
aI1
aI1
aI2
aI1
aI1
aI1
aI13
aI1
aI1
aI2
aI2
aI1
aI1
aI1
aI1
aI1
aI6
aI1
aI2
aI1
aI1
aI2
aI4
aI1
aI1
aI1
aI3
aI1
aI2
aI1
aI2
aI3
aI1
aI3
aI1
aI1
aI2
aI2
aI1
aI1
aI4
aI36
aI23
aI1
aI13
aI1
aI1
aI1
aI2
aI1
aI1
aI1
aI1
aI1
aI1
aI1
aI2
aI1
aI3
aI2
aI1
aI4
aI1
aI2
aI1
aI1
aI2
aI1
aI1
aI1
aI5
aI1
aI1
aI1
aI1
aI1
aI1
aI1
aI1
aI2
aI3
aI2
aI1
aI10
aI1
aI1
aI2
aI1
aI1
aI1
aI1
aI1
aI7
aI1
aI4
aI1
aI7
aI2
aI8
aI1
aI1
aI1
aI2
aI1
aI3
aI1
aI1
aI1
aI3
aI1
aI1
aI4
aI2
aI13
aI12
aI1
aI1
aI1
aI2
aI1
aI1
aI1
aI7
aI1
aI1
aI1
aI1
aI3
aI3
aI1
aI197
aI2
aI2
aI1
aI1
aI1
aI1
aI1
aI1
aI1
aI1
aI1
aI1
aI1
aI2
aI2
aI2
aI1
aI1
aI3
aI1
aI2
aI29
aI1
aI1
aI2
aI2
aI397
aI1
aI4
aI1
aI12
aI1
aI1
aI1
aI1
aI1
aI10
aI1
aI198
aI2
aI1
aI2
aI1
aI1
aI169
aI2
aI1
aI1
aI3
aI1
aI13
aI1
aI1
aI1
aI3
aI1
aI1
aI3
aI1
aI1
aI5
aI1
aI1
aI1
aI2
aI10
aI3
aI1
aI1
aI11
aI12
aI15
aI1
aI1
aI1
aI1
aI3
aI6
aI1
aI2
aI1
aI1
aI1
aI2
aI1
aI1
aI1
aI1
aI1
aI2
aI1
aI3
aI1
aI1
aI1
aI1
aI61
aI1
aI2
aI1
aI1
aI2
aI1
aI8
aI1
aI2
aI1
aI1
aI3
aI1
aI1
aI2
aI2
aI28
aI1
aI1
aI2
aI8
aI1
aI1
aI1
aI1
aI1
aI2
aI1
aI1
aI3
aI1
aI3
aI1
aI3
aI1
aI8
aI1
aI2
aI1
aI1
aI12
aI1
aI3
aI1
aI3
aI21
aI1
aI1
aI17
aI1
aI3
aI2
aI1
aI2
aI1
aI2
aI1
aI1
aI5
aI13
aI1
aI3
aI1
aI2
aI12
aI1
aI1
aI6
aI1
aI2
aI1
aI13
aI1
aI1
aI3
aI2
aI1
aI1
aI2
aI1
aI1
aI3
aI2
aI1
aI3
aI1
aI1
aI1
aI1
aI27
aI1
aI1
aI13
aI147
aI1
aI1
aI2
aI1
aI2
aI1
aI31
aI4
aI2
aI7
aI2
aI1
aI2
aI1
aI1
aI1
aI1
aI1
aI2
aI2
aI1
aI1
aI5
aI2
aI1
aI2
aI5
aI2
aI1
aI1
aI1
aI1
aI1
aI1
aI4
aI1
aI2
aI3
aI1
aI1
aI4
aI1
aI1
aI2
aI1
aI3
aI4
aI1
aI5
aI1
aI1
aI2
aI3
aI1
aI4
aI3
aI5
aI1
aI2
aI1
aI2
aI1
aI1
aI7
aI1
aI1
aI1
aI1
aI16
aI1
aI1
aI1
aI1
aI1
aI1
aI2
aI1
aI1
aI1
aI1
aI1
aI1
aI1
aI1
aI1
aI1
aI1
aI1
aI1
aI1
aI1
aI1
aI1
aI1
aI2
aI3
aI1
aI1
aI2
aI1
aI1
aI9
aI13
aI1
aI1
aI1
aI1
aI2
aI1
aI12
aI1
aI4
aI1
aI5
aI1
aI1
aI1
aI1
aI2
aI1
aI1
aI4
aI1
aI10
aI2
aI2
aI1
aI1
aI1
aI2
aI1
aI1
aI2
aI1
aI1
aI9
aI309
aI2
aI14
aI1
aI2
aI2
aI5
aI1
aI1
aI2
aI1
aI1
aI1
aI1
aI1
aI1
aI3
aI1
aI1
aI3
aI9
aI1
aI29
aI2
aI1
aI3
aI1
aI1
aI4
aI2
aI1
aI1
aI1
aI9
aI1
aI1
aI4
aI1
aI2
aI4
aI2
aI2
aI1
aI2
aI1
aI2
aI1
aI2
aI1
aI1
aI7
aI43
aI1
aI1
aI3
aI7
aI1
aI1
aI12
aI4
aI1
aI1
aI9
aI2
aI5
aI2
aI1
aI1
aI1
aI1
aI1
aI73
aI5
aI1
aI1
aI1
aI1
aI2
aI1
aI7
aI2
aI1
aI13
aI1
aI1
aI1
aI1
aI1
aI1
aI1
aI1
aI1
aI1
aI34
aI3
aI1
aI2
aI2
aI1
aI5
aI3
aI1
aI10
aI1
aI1
aI1
aI1
aI1
aI1
aI1
aI1
aI1
aI1
aI6
aI5
aI1
aI1
aI1
aI33
aI1
aI1
aI2
aI1
aI1
aI1
aI14
aI1
aI1
aI1
aI1
aI1
aI2
aI1
aI1
aI1
aI2
aI1
aI1
aI1
aI4
aI147
aI21
aI7
aI3
aI1
aI1
aI1
aI1
aI1
aI28
aI1
aI320
aI1
aI1
aI3
aI1
aI1
aI1
aI5
aI2
aI1
aI1
aI261
aI5
aI1
aI1
aI1
aI1
aI1
aI1
aI1
aI1
aI3
aI1
aI1
aI1
aI1
aI1
aI1
aI1
aI2
aI1
aI1
aI1
aI1
aI1
aI4
aI2
aI1
aI1
aI1
aI1
aI2
aI1
aI1
aI1
aI2
aI1
aI2
aI1
aI1
aI1
aI1
aI1
aI2
aI4
aI1
aI3
aI2
aI2
aI2
aI1
aI2
aI1
aI2
aI1
aI1
aI101
aI1
aI1
aI2
aI2
aI1
aI1
aI5
aI2
aI1
aI1
aI4
aI2
aI2
aI2
aI1
aI1
aI1
aI2
aI1
aI1
aI3
aI29
aI1
aI2
aI4
aI1
aI1
aI1
aI1
aI1
aI1
aI1
aI2
aI2
aI1
aI2
aI1
aI18
aI1
aI1
aI1
aI2
aI2
aI1
aI1
aI1
aI2
aI1
aI2
aI1
aI3
aI3
aI2
aI2
aI3
aI3
aI1
aI1
aI1
aI2
aI3
aI2
aI1
aI1
aI2
aI1
aI1
aI1
aI1
aI2
aI1
aI1
aI1
aI1
aI5
aI1
aI2
aI1
aI2
aI1
aI1
aI1
aI1
aI1
aI1
aI2
aI1
aI2
aI1
aI1
aI2
aI1
aI1
aI2
aI3
aI1
aI1
aI1
aI1
aI7
aI4
aI2
aI2
aI2
aI1
aI4
aI1
aI1
aI1
aI1
aI1
aI1
aI1
aI1
aI1
aI1
aI2
aI3
aI1
aI1
aI15
aI6
aI1
aI1
aI1
aI1
aI1
aI1
aI1
aI1
aI268
aI1
aI1
aI1
aI2
aI1
aI1
aI2
aI27
aI1
aI1
aI4
aI2
aI1
aI2
aI1
aI1
aI1
aI2
aI1
aI1
aI3
aI1
aI1
aI1
aI1
aI1
aI32
aI9
aI23
aI1
aI1
aI1
aI2
aI1
aI1
aI1
aI1
aI1
aI1
aI1
aI1
aI1
aI1
aI1
aI1
aI1
aI1
aI1
aI1
aI1
aI1
aI1
aI1
aI1
aI1
aI1
aI2
aI1
aI1
aI1
aI2
aI4
aI3
aI1
aI1
aI2
aI1
aI1
aI1
aI1
aI1
aI1
aI1
aI2
aI1
aI1
aI1
aI1
aI1
aI1
aI2
aI1
aI8
aI1
aI1
aI1
aI1
aI2
aI1
aI1
aI1
aI1
aI1
aI1
aI2
aI1
aI1
aI1
aI1
aI3
aI1
aI3
aI10
aI1
aI1
aI3
aI1
aI1
aI1
aI1
aI1
aI1
aI1
aI1
aI1
aI1
aI1
aI1
aI4
aI8
aI1
aI1
aI1
aI6
aI1
aI2
aI19
aI1
aI7
aI7
aI1
aI1
aI3
aI5
aI3
aI1
aI1
aI5
aI1
aI7
aI1
aI1
aI1
aI2
aI1
aI3
aI1
aI1
aI2
aI1
aI1
aI1
aI1
aI1
aI2
aI27
aI1
aI1
aI1
aI1
aI3
aI1
aI1
aI1
aI2
aI1
aI2
aI2
aI3
aI1
aI1
aI1
aI1
aI1
aI3
aI1
aI3
aI1
aI1
aI1
aI11
aI3
aI16
aI1
aI1
aI1
aI1
aI1
aI1
aI1
aI1
aI1
aI3
aI1
aI1
aI3
aI1
aI1
aI1
aI2
aI1
aI1
aI2
aI1
aI3
aI1
aI3
aI1
aI1
aI1
aI1
aI1
aI1
aI3
aI1
aI1
aI1
aI2
aI1
aI1
aI2
aI2
aI3
aI1
aI1
aI1
aI1
aI1
aI1
aI1
aI1
aI1
aI1
aI1
aI3
aI1
aI1
aI1
aI1
aI1
aI1
aI3
aI1
aI1
aI1
aI3
aI1
aI2
aI1
aI7
aI1
aI1
aI1
aI1
aI2
aI1
aI1
aI1
aI1
aI1
aI2
aI1
aI2
aI2
aI1
aI1
aI1
aI1
aI2
aI1
aI1
aI2
aI2
aI1
aI1
aI1
aI1
aI1
aI1
aI7
aI1
aI44
aI2
aI1
aI1
aI1
aI1
aI4
aI1
aI4
aI1
aI1
aI1
aI3
aI1
aI9
aI1
aI1
aI4
aI1
aI1
aI1
aI1
aI1
aI1
aI1
aI1
aI1
aI1
aI1
aI1
aI4
aI1
aI1
aI1
aI1
aI4
aI4
aI1
aI7
aI1
aI1
aI2
aI2
aI12
aI2
aI1
aI1
aI1
aI1
aI34
aI11
aI1
aI1
aI1
aI8
aI1
aI1
aI1
aI1
aI1
aI4
aI1
aI2
aI1
aI1
aI1
aI3
aI1
aI1
aI1
aI1
aI1
aI1
aI1
aI1
aI2
aI1
aI1
aI1
aI1
aI1
aI1
aI1
aI1
aI46
aI1
aI1
aI1
aI2
aI1
aI3
aI2
aI2
aI2
aI1
aI1
aI1
aI1
aI1
aI1
aI3
aI2
aI1
aI1
aI1
aI1
aI1
aI1
aI1
aI1
aI2
aI1
aI1
aI1
aI1
aI1
aI2
aI109
aI1
aI1
aI1
aI1
aI1
aI1
aI1
aI1
aI5
aI1
aI2
aI25
aI3
aI1
aI1
aI1
aI1
aI4
aI2
aI1
aI1
aI1
aI1
aI1
aI8
aI10
aI2
aI1
aI2
aI1
aI2
aI3
aI1
aI181
aI1
aI2
aI1
aI1
aI1
aI1
aI1
aI1
aI1
aI1
aI1
aI1
aI1
aI1
aI4
aI1
aI1
aI1
aI2
aI1
aI26
aI6
aI1
aI22
aI1
aI8
aI1
aI1
aI1
aI1
aI1
aI7
aI2
aI2
aI1
aI1
aI1
aI1
aI1
aI1
aI1
aI1
aI1
aI1
aI1
aI2
aI1
aI1
aI1
aI3
aI1
aI1
aI1
aI1
aI7
aI1
aI1
aI1
aI2
aI3
aI1
aI1
aI1
aI1
aI1
aI1
aI1
aI1
aI2
aI1
aI1
aI1
aI1
aI5
aI1
aI3
aI3
aI3
aI1
aI3
aI1
aI1
aI1
aI1
aI1
aI1
aI2
aI1
aI1
aI1
aI2
aI1
aI2
aI1
aI1
aI1
aI2
aI2
aI2
aI4
aI1
aI1
aI1
aI1
aI1
aI2
aI1
aI1
aI6
aI1
aI1
aI58
aI1
aI3
aI1
aI1
aI1
aI1
aI1
aI1
aI381
aI1
aI1
aI1
aI1
aI1
aI4
aI1
aI7
aI1
aI1
aI1
aI1
aI1
aI1
aI1
aI1
aI1
aI1
aI1
aI2
aI1
aI1
aI1
aI1
aI1
aI1
aI1
aI1
aI1
aI3
aI4
aI8
aI1
aI1
aI1
aI1
aI1
aI1
aI18
aI1
aI1
aI1
aI1
aI1
aI1
aI1
aI1
aI1
aI1
aI1
aI1
aI3
aI1
aI16
aI1
aI2
aI2
aI1
aI1
aI1
aI1
aI1
aI1
aI3
aI1
aI5
aI1
aI2
aI1
aI3
aI870
aI1
aI1
aI1
aI1
aI1
aI1
aI2
aI2
aI1
aI4
aI6
aI73
aI2
aI12
aI1
aI1
aI1
aI19
aI2
aI19
aI1
aI2
aI1
aI5
aI2
aI1
aI2
aI1
aI1
aI1
aI1
aI1
aI10
aI31
aI1
aI15
aI2
aI3
aI3
aI1
aI1
aI1
aI1
aI3
aI1
aI1
aI1
aI2
aI2
aI2
aI1
aI4
aI1
aI1
aI2
aI1
aI1
aI1
aI1
aI13
aI1
aI1
aI3
aI2
aI1
aI2
aI1
aI49
aI1
aI1
aI1
aI1
aI10
aI2
aI1
aI19
aI1
aI1
aI1
aI1
aI1
aI1
aI1
aI1
aI1
aI1
aI1
aI1
aI1
aI1
aI2
aI1
aI1
aI1
aI1
aI1
aI1
aI1
aI1
aI1
aI1
aI1
aI1
aI1
aI1
aI1
aI41
aI13
aI1
aI1
aI1
aI84
aI1
aI1
aI1
aI1
aI2
aI1
aI1
aI1
aI1
aI1
aI4
aI1
aI1
aI2
aI2
aI1
aI1
aI1
aI3
aI2
aI2
aI4
aI1
aI2
aI3
aI1
aI1
aI1
aI1
aI85
aI1
aI1
aI1
aI4
aI1
aI1
aI1
aI1
aI8
aI2
aI4
aI2
aI15
aI1
aI1
aI1
aI1
aI1
aI1
aI1
aI1
aI7
aI35
aI1
aI1
aI1
aI1
aI4
aI1
aI1
aI1
aI1
aI1
aI2
aI1
aI1
aI1
aI1
aI1
aI1
aI2
aI2
aI1
aI1
aI1
aI2
aI1
aI1
aI2
aI1
aI1
aI1
aI1
aI1
aI1
aI1
aI170
aI1
aI1
aI1
aI1
aI226
aI1
aI1
aI25
aI1
aI26
aI2
aI1
aI1
aI1
aI7
aI1
aI2
aI1
aI1
aI1
aI2
aI5
aI3
aI3
aI1
aI1
aI1
aI1
aI1
aI1
aI2
aI2
aI1
aI3
aI2
aI4
aI19
aI2
aI1
aI2
aI1
aI1
aI3
aI1
aI1
aI1
aI1
aI3
aI1
aI6
aI1
aI2
aI1
aI12
aI1
aI2
aI1
aI1
aI1
aI1
aI1
aI1
aI1
aI1
aI8
aI2
aI1
aI1
aI1
aI1
aI1
aI1
aI1
aI4
aI1
aI4
aI1
aI1
aI1
aI2
aI2
aI1
aI2
aI46
aI1
aI1
aI3
aI2
aI2
aI4
aI1
aI8
aI1
aI2
aI2
aI2
aI3
aI1
aI1
aI1
aI1
aI1
aI2
aI1
aI1
aI1
aI3
aI3
aI2
aI1
aI1
aI1
aI1
aI1
aI1
aI1
aI2
aI1
aI1
aI1
aI1
aI3
aI3
aI2
aI8
aI4
aI3
aI1
aI1
aI1
aI1
aI1
aI1
aI1
aI1
aI1
aI1
aI1
aI1
aI28
aI1
aI1
aI8
aI4
aI1
aI1
aI1
aI9
aI1
aI1
aI4
aI2
aI1
aI1
aI2
aI1
aI1
aI2
aI1
aI2
aI1
aI33
aI1
aI1
aI1
aI4
aI1
aI1
aI1
aI2
aI1
aI1
aI1
aI2
aI2
aI1
aI1
aI1
aI1
aI1
aI1
aI13
aI1
aI1
aI1
aI1
aI1
aI1
aI1
aI5
aI5
aI37
aI2
aI7
aI1
aI2
aI1
aI1
aI1
aI1
aI1
aI1
aI1
aI1
aI1
aI1
aI1
aI1
aI1
aI1
aI1
aI1
aI1
aI1
aI1
aI1
aI1
aI1
aI1
aI2
aI2
aI1
aI1
aI1
aI1
aI2
aI1
aI2
aI1
aI1
aI2
aI1
aI1
aI1
aI1
aI1
aI1
aI1
aI1
aI1
aI1
aI1
aI1
aI298
aI1
aI2
aI1
aI2
aI32
aI1
aI2
aI3
aI1
aI1
aI3
aI1
aI1
aI1
aI38
aI1
aI1
aI1
aI149
aI1
aI1
aI1
aI1
aI1
aI1
aI1
aI1
aI1
aI1
aI1
aI1
aI2
aI1
aI2
aI1
aI1
aI2
aI16
aI116
aI1
aI1
aI1
aI2
aI1
aI1
aI1
aI1
aI1
aI2
aI2
aI5
aI2
aI1
aI1
aI3
aI1
aI2
aI1
aI1
aI1
aI1
aI2
aI1
aI1
aI1
aI1
aI1
aI1
aI1
aI1
aI2
aI1
aI1
aI1
aI3
aI1
aI4
aI1
aI1
aI1
aI1
aI2
aI1
aI1
aI1
aI1
aI1
aI1
aI8
aI1
aI1
aI1
aI1
aI1
aI1
aI1
aI1
aI1
aI1
aI1
aI1
aI1
aI1
aI1
aI2
aI2
aI1
aI2
aI1
aI1
aI1
aI1
aI1
aI1
aI2
aI5
aI1
aI2
aI1
aI2
aI7
aI2
aI17
aI1
aI7
aI1
aI1
aI1
aI2
aI1
aI2
aI2
aI3
aI1
aI3
aI1
aI1
aI11
aI1
aI1
aI5
aI1
aI5
aI1
aI1
aI1
aI1
aI5
aI1
aI1
aI3
aI12
aI1
aI2
aI1
aI17
aI2
aI1
aI1
aI1
aI1
aI1
aI14
aI22
aI6
aI1
aI1
aI1
aI1
aI1
aI1
aI3
aI1
aI1
aI3
aI2
aI1
aI18
aI1
aI1
aI1
aI1
aI1
aI1
aI2
aI3
aI1
aI1
aI2
aI1
aI1
aI3
aI1
aI1
aI1
aI1
aI1
aI1
aI1
aI3
aI2
aI1
aI1
aI1
aI1
aI1
aI1
aI3
aI1
aI1
aI8
aI1
aI1
aI1
aI2
aI1
aI1
aI1
aI1
aI1
aI1
aI1
aI2
aI12
aI1
aI2
aI1
aI3
aI1
aI210
aI1
aI1
aI1
aI1
aI1
aI1
aI1
aI1
aI2
aI1
aI3
aI2
aI1
aI1
aI1
aI1
aI1
aI1
aI1
aI2
aI1
aI2
aI6
aI1
aI1
aI1
aI4
aI1
aI4
aI1
aI1
aI1
aI1
aI1
aI2
aI1
aI67
aI1
aI19
aI1
aI1
aI2
aI3
aI3
aI1
aI1
aI1
aI1
aI8
aI1
aI3
aI2
aI4
aI6
aI1
aI1
aI357
aI1
aI1
aI1
aI1
aI1
aI1
aI1
aI1
aI1
aI1
aI1
aI1
aI2
aI1
aI1
aI1
aI1
aI1
aI6
aI1
aI5
aI1
aI5
aI1
aI1
aI1
aI1
aI1
aI3
aI1
aI1
aI1
aI1
aI1
aI2
aI1
aI14
aI1
aI1
aI2
aI1
aI1
aI2
aI1
aI1
aI1
aI1
aI1
aI1
aI1
aI1
aI1
aI1
aI1
aI1
aI1
aI2
aI1
aI3
aI1
aI9
aI1
aI16
aI2
aI7
aI23
aI6
aI1
aI1
aI1
aI4
aI24
aI1
aI5
aI1
aI3
aI1
aI1
aI13
aI1
aI2
aI1
aI2
aI3
aI2
aI1
aI1
aI1
aI1
aI9
aI2
aI1
aI3
aI1
aI2
aI8
aI1
aI2
aI1
aI1
aI1
aI1
aI2
aI10
aI1
aI1
aI1
aI1
aI2
aI1
aI1
aI1
aI1
aI1
aI1
aI1
aI1
aI1
aI1
aI1
aI1
aI1
aI1
aI1
aI1
aI1
aI1
aI1
aI1
aI3
aI2
aI1
aI1
aI51
aI1
aI1
aI2
aI1
aI6
aI1
aI1
aI1
aI1
aI1
aI1
aI1
aI5
aI1
aI1
aI1
aI1
aI2
aI1
aI1
aI9
aI157
aI3
aI1
aI2
aI1
aI1
aI1
aI1
aI1
aI1
aI1
aI3
aI1
aI1
aI1
aI1
aI2
aI1
aI1
aI2
aI10
aI5
aI1
aI3
aI1
aI2
aI10
aI2
aI1
aI1
aI3
aI1
aI1
aI1
aI1
aI1
aI2
aI2
aI3
aI1
aI3
aI1
aI1
aI1
aI1
aI1
aI1
aI1
aI2
aI1
aI1
aI2
aI1
aI1
aI1
aI1
aI1
aI1
aI14
aI1
aI1
aI1
aI1
aI1
aI1
aI3
aI7
aI1
aI1
aI1
aI3
aI1
aI1
aI1
aI4
aI1
aI1
aI1
aI1
aI1
aI1
aI1
aI2
aI1
aI8
aI1
aI1
aI1
aI2
aI2
aI1
aI1
aI1
aI1
aI1
aI1
aI3
aI3
aI1
aI1
aI1
aI1
aI1
aI1
aI1
aI5
aI1
aI1
aI1
aI1
aI1
aI1
aI3
aI2
aI4
aI1
aI1
aI1
aI6
aI1
aI1
aI1
aI2
aI4
aI1
aI1
aI1
aI1
aI1
aI2
aI1
aI4
aI1
aI3
aI14
aI1
aI1
aI1
aI1
aI1
aI18
aI293
aI2
aI5
aI3
aI4
aI3
aI1
aI1
aI1
aI1
aI1
aI5
aI2
aI1
aI1
aI1957
aI1
aI1
aI1
aI1
aI1
aI1
aI2
aI7
aI1
aI4
aI1
aI1
aI1
aI1
aI1
aI1
aI32
aI1
aI1
aI1
aI1
aI1
aI1
aI1
aI4
aI1
aI1
aI347
aI1
aI1
aI1
aI1
aI1
aI2
aI2
aI3
aI1
aI1
aI3
aI1
aI1
aI2
aI1
aI5
aI2
aI3
aI7
aI1
aI1
aI2
aI1
aI1
aI1
aI1
aI4
aI2
aI3
aI1
aI2
aI1
aI1
aI4
aI1
aI1
aI1
aI1
aI5
aI2
aI1
aI1
aI3
aI1
aI1
aI1
aI23
aI2
aI1
aI1
aI8
aI4
aI2
aI1
aI1
aI2
aI4
aI3
aI1
aI1
aI1
aI1
aI1
aI2
aI4
aI6
aI1
aI2
aI26
aI1
aI1
aI1
aI266
aI1
aI4
aI4
aI1
aI1
aI1
aI1
aI1
aI2
aI1
aI2
aI1
aI1
aI1
aI2
aI1
aI1
aI1
aI1
aI1
aI1
aI1
aI1
aI1
aI1
aI1
aI3
aI1
aI1
aI2
aI1
aI1
aI1
aI1
aI3
aI56
aI1
aI1
aI1
aI17
aI1
aI1
aI1
aI1
aI1
aI1
aI2
aI1
aI1
aI1
aI1
aI1
aI481
aI1
aI1
aI1
aI2
aI2
aI3
aI1
aI4
aI1
aI19
aI1
aI2
aI1
aI23
aI1
aI5
aI2
aI1
aI1
aI2
aI4
aI4
aI1
aI1
aI1
aI1
aI3
aI1
aI5
aI1
aI2
aI3
aI1
aI1
aI1
aI2
aI1
aI2
aI6
aI1
aI2
aI1
aI1
aI1
aI1
aI2
aI2
aI1
aI4
aI2
aI1
aI3
aI2
aI1
aI10
aI1
aI2
aI2
aI1
aI2
aI1
aI2
aI11
aI1
aI1
aI1
aI1
aI97
aI1
aI1
aI1
aI3
aI1
aI1
aI1
aI1
aI1
aI1
aI1
aI1
aI1
aI1
aI1
aI1
aI1
aI1
aI3
aI1
aI1
aI3
aI2
aI1
aI1
aI1
aI1
aI1
aI1
aI1
aI1
aI16
aI1
aI1
aI1
aI1
aI1
aI1
aI3
aI1
aI1
aI1
aI1
aI1
aI1
aI1
aI1
aI2
aI6
aI1
aI1
aI1
aI1
aI1
aI3
aI1
aI1
aI6
aI4
aI1
aI1
aI1
aI1
aI1
aI3
aI2
aI1
aI1
aI15
aI4
aI1
aI2
aI1
aI1
aI4
aI2
aI1
aI5
aI1
aI1
aI1
aI7
aI1
aI1
aI1
aI1
aI3
aI2
aI1
aI1
aI1
aI1
aI1
aI1
aI1
aI1
aI1
aI127
aI1
aI1
aI1
aI1
aI1
aI1
aI1
aI1
aI4
aI2
aI1
aI1
aI1
aI2
aI1
aI1
aI6
aI1
aI1
aI1
aI1
aI2
aI2
aI19
aI1
aI1
aI3
aI2
aI1
aI1
aI1
aI2
aI1
aI2
aI1
aI1
aI2
aI1
aI7
aI2
aI1
aI1
aI1
aI2
aI1
aI2
aI12
aI1
aI1
aI2
aI5
aI1
aI1
aI1
aI2
aI1
aI1
aI1
aI1
aI8
aI1
aI1
aI1
aI2
aI1
aI2
aI3
aI1
aI1
aI2
aI2
aI1
aI1
aI2
aI4
aI1
aI1
aI1
aI2
aI1331
aI1
aI1
aI2
aI1
aI2
aI3
aI1
aI1
aI1
aI1
aI1
aI5
aI1
aI2
aI4
aI1
aI1
aI1
aI2
aI1
aI1
aI1
aI2
aI46
aI1
aI1
aI1
aI1
aI1
aI1
aI3
aI2
aI1
aI1
aI1
aI1
aI1
aI2
aI1
aI1
aI1
aI5
aI1
aI3
aI1
aI1
aI2
aI1
aI1
aI1
aI1
aI1
aI1
aI2
aI4
aI1
aI7
aI2
aI2
aI1
aI1
aI1
aI1
aI1
aI2
aI2
aI1
aI1
aI3
aI5
aI1
aI1
aI1
aI1
aI1
aI1
aI1
aI8
aI3
aI1
aI1
aI1
aI1
aI10
aI1
aI2
aI1
aI6
aI1
aI1
aI1
aI4
aI1
aI2
aI1
aI1
aI3
aI5
aI1
aI32
aI1
aI1
aI1
aI1
aI1
aI1
aI1
aI2
aI1
aI4
aI2
aI23
aI91
aI2
aI1
aI1
aI1
aI12
aI1
aI1
aI1
aI1
aI38
aI1
aI1
aI1
aI2
aI27
aI1
aI1
aI2
aI1
aI3
aI1
aI2
aI3
aI1
aI1
aI1
aI1
aI1
aI1
aI1
aI1
aI1
aI2
aI1
aI3
aI1
aI3
aI1
aI1
aI1
aI1
aI1
aI1
aI2
aI1
aI2
aI1
aI1
aI2
aI1
aI9
aI4
aI1
aI1
aI1
aI1
aI1
aI1
aI1
aI1
aI2
aI6
aI1
aI1
aI1
aI2
aI1
aI5
aI2
aI5
aI1
aI1
aI1
aI25
aI80
aI1
aI1
aI1
aI3
aI1
aI1
aI1
aI1
aI3
aI1
aI1
aI1
aI1
aI1
aI1
aI1
aI1
aI2
aI1
aI1
aI2
aI3
aI1
aI1
aI1
aI1
aI4
aI1
aI1
aI1
aI1
aI1
aI1
aI1
aI2
aI1
aI1
aI1
aI1
aI1
aI1
aI16
aI1
aI2
aI1
aI1
aI3
aI3
aI2
aI1
aI1
aI1
aI6
aI1
aI1
aI1
aI2
aI1
aI1
aI1
aI1
aI1
aI1
aI1
aI2
aI1
aI1
aI3
aI2
aI1
aI1
aI1
aI1
aI3
aI8
aI1
aI1
aI3
aI8
aI1
aI2
aI70
aI5
aI1
aI1
aI1
aI1
aI2
aI1
aI1
aI1
aI2
aI8
aI27
aI1
aI4
aI2
aI1
aI1
aI1
aI1
aI1
aI1
aI1
aI1
aI8
aI248
aI14
aI1
aI1
aI1
aI1
aI1
aI1
aI2
aI2
aI3
aI2
aI3
aI1
aI1
aI1
aI3
aI1
aI101
aI1
aI62
aI1
aI18
aI23
aI2
aI5
aI3
aI3
aI1
aI1
aI1
aI2
aI16
aI1
aI3
aI1
aI1
aI1
aI8
aI1
aI1
aI1
aI1
aI1
aI1
aI1
aI1
aI1
aI1
aI1
aI2
aI1
aI2
aI1
aI1
aI1
aI1
aI1
aI1
aI1
aI1
aI1
aI1
aI3
aI10
aI1
aI1
aI1
aI1
aI6
aI1
aI2
aI1
aI1
aI2
aI1
aI1
aI4
aI1
aI1
aI1
aI1
aI6
aI1
aI1
aI333
aI6
aI1
aI1
aI1
aI2
aI1
aI1
aI14
aI2
aI1
aI3
aI2
aI3
aI1
aI1
aI1
aI1
aI1
aI2
aI1
aI1
aI1
aI3
aI1
aI1
aI1
aI1
aI4
aI1
aI1
aI52
aI2
aI1
aI4
aI1
aI1
aI4
aI1
aI27
aI3
aI2
aI1
aI1
aI5
aI3
aI3
aI1
aI1
aI1
aI1
aI1
aI1
aI7
aI1
aI2
aI1
aI111
aI1
aI12
aI1
aI1
aI2
aI1
aI1
aI1
aI4
aI1
aI7
aI1
aI2
aI16
aI3
aI1
aI1
aI1
aI1
aI1
aI2
aI1
aI1
aI1
aI1
aI1
aI1
aI24
aI1
aI1
aI1
aI1
aI1
aI1
aI1
aI1
aI1
aI2
aI2
aI1
aI1
aI8
aI1
aI1
aI1
aI2
aI1
aI1
aI1
aI1
aI1
aI1
aI1
aI2
aI1
aI1
aI2
aI3
aI1
aI1
aI1
aI2
aI1
aI1
aI1
aI2
aI1
aI1
aI3
aI2
aI1
aI1
aI1
aI6
aI1
aI1
aI1
aI1
aI4
aI25
aI1
aI1
aI3
aI1
aI1
aI40
aI1
aI1
aI2
aI1
aI1
aI1
aI4
aI2
aI1
aI1
aI1
aI9
aI1
aI1
aI1
aI1
aI4
aI51
aI1
aI4
aI1
aI1
aI1
aI1
aI1
aI1
aI3
aI2
aI1
aI1
aI2
aI2
aI86
aI1
aI43
aI2
aI1
aI1
aI1
aI2
aI1
aI2
aI1
aI2
aI1
aI1
aI1
aI2
aI1
aI1
aI3
aI1
aI1
aI1
aI1
aI1
aI1
aI1
aI1
aI4
aI1
aI1
aI1
aI2
aI1
aI4
aI1
aI1
aI1
aI1
aI1
aI1
aI2
aI1
aI1
aI2
aI1
aI2
aI1
aI1
aI1
aI1
aI2
aI1
aI1
aI2
aI1
aI2
aI2
aI1
aI1
aI1
aI1
aI1
aI3
aI2
aI1
aI1
aI1
aI4
aI1
aI2
aI1
aI14
aI2
aI83
aI1
aI2
aI1
aI1
aI1
aI1
aI1
aI3
aI2
aI4
aI1
aI1
aI1
aI1
aI1
aI3
aI2
aI1
aI2
aI1
aI1
aI1
aI1
aI1
aI1
aI1
aI1
aI76
aI2
aI1
aI2
aI1
aI1
aI1
aI1
aI23
aI10
aI1
aI3
aI1
aI1
aI1
aI1
aI1
aI1
aI12
aI2
aI2
aI1
aI1
aI12
aI1
aI2
aI1
aI2
aI2
aI3
aI1
aI1
aI1
aI1
aI1
aI1
aI1
aI1
aI18
aI1
aI1
aI2
aI1
aI2
aI2
aI1
aI1
aI1
aI1
aI1
aI1
aI2
aI1
aI1
aI1
aI1
aI2
aI1
aI1
aI3
aI1
aI1
aI1
aI1
aI1
aI1
aI1
aI4
aI1
aI1
aI1
aI1
aI4
aI1
aI9
aI2
aI1
aI4
aI1
aI2
aI2
aI2
aI1
aI1
aI1
aI1
aI2
aI5
aI1
aI1
aI35
aI2
aI1
aI2
aI7
aI1
aI2
aI1
aI3
aI3
aI1
aI1
aI9
aI2
aI3
aI6
aI1
aI1
aI1
aI1
aI2
aI2
aI1
aI1
aI1
aI1
aI2
aI7
aI1
aI1
aI1
aI1
aI3
aI2
aI2
aI2
aI1
aI3
aI1
aI1
aI1
aI1
aI1
aI2
aI1
aI1
aI1
aI1
aI2
aI2
aI1
aI2
aI1
aI1
aI2
aI1
aI1
aI3
aI1
aI1
aI1
aI1
aI1
aI2
aI1
aI1
aI2
aI5
aI8
aI4
aI2
aI2
aI2
aI1
aI1
aI1
aI3
aI2
aI1
aI1
aI1
aI1
aI1
aI2
aI1
aI1
aI1
aI1
aI1
aI1
aI1
aI1
aI1
aI1
aI1
aI1
aI4
aI8
aI1
aI1
aI1
aI4
aI1
aI1
aI1
aI1
aI1
aI2
aI1
aI1
aI1
aI9
aI26
aI2
aI1
aI2
aI1
aI1
aI1
aI64
aI1
aI4
aI1
aI1
aI1
aI3
aI32
aI1
aI4
aI1
aI2
aI1
aI1
aI236
aI2
aI1
aI6
aI1
aI21
aI1
aI1
aI4
aI1
aI1
aI1
aI1
aI5
aI1
aI2
aI2
aI1
aI1
aI1
aI1
aI2
aI2
aI1
aI1
aI1
aI4
aI2
aI2
aI1
aI2
aI1
aI2
aI1
aI1
aI1
aI1
aI1
aI1
aI1
aI1
aI1
aI1
aI3
aI1
aI2
aI1
aI1
aI2
aI37
aI1
aI1
aI1
aI2
aI1
aI1
aI1
aI1
aI1
aI1
aI1
aI3
aI1
aI1
aI15
aI1
aI1
aI2
aI1
aI1
aI2
aI1
aI4
aI1
aI2
aI1
aI3
aI1
aI248
aI1
aI3
aI3
aI1
aI1
aI1
aI1
aI1
aI1
aI1
aI18
aI2
aI1
aI2
aI1
aI2
aI1
aI4
aI2
aI1
aI1
aI1
aI2
aI1
aI1
aI3
aI4
aI2
aI2
aI1
aI1
aI1
aI6
aI1
aI1
aI1
aI1
aI1
aI1
aI1
aI1
aI1
aI1
aI1
aI1
aI1
aI4
aI1
aI1
aI1
aI1
aI2
aI1
aI2
aI1
aI1
aI1
aI1
aI2
aI1
aI1
aI1
aI1
aI1
aI1
aI4
aI1
aI1
aI2
aI2
aI1
aI2
aI1
aI1
aI2
aI1
aI1
aI1
aI1
aI1
aI1
aI1
aI1
aI1
aI2
aI1
aI3
aI1
aI1
aI2
aI1
aI2
aI1
aI1
aI6
aI1
aI1
aI7
aI2
aI3
aI1
aI1
aI1
aI3
aI1
aI1
aI1
aI1
aI1
aI1
aI4
aI1
aI1
aI1
aI4
aI1
aI2
aI1
aI1
aI1
aI1
aI1
aI8
aI1
aI1
aI4
aI1
aI1
aI1
aI2
aI15
aI1
aI1
aI1
aI1
aI1
aI1
aI2
aI10
aI5
aI3
aI4
aI1
aI1
aI1
aI1
aI1
aI1
aI2
aI1
aI1
aI1
aI1
aI10
aI1
aI1
aI23
aI2
aI1
aI2
aI2
aI1
aI3
aI1
aI1
aI2
aI39
aI1
aI1
aI1
aI1
aI1
aI1
aI1
aI1
aI1
aI1
aI1
aI135
aI9
aI2
aI3
aI1
aI3
aI1
aI6
aI1
aI2
aI1
aI1
aI1
aI1
aI1
aI1
aI1
aI1
aI1
aI1
aI1
aI2
aI1
aI241
aI1
aI2
aI1
aI9
aI2
aI1
aI1
aI1
aI1
aI1
aI2
aI5
aI1
aI1
aI1
aI1
aI1
aI3
aI1
aI2
aI1
aI12
aI1
aI2
aI4
aI1
aI1
aI1
aI1
aI18
aI2
aI1
aI2
aI1
aI1
aI1
aI1
aI1
aI3
aI2
aI1
aI1
aI3
aI1
aI3
aI1
aI10
aI1
aI7
aI1
aI1
aI1
aI1
aI7
aI1
aI1
aI1
aI2
aI1
aI4
aI1
aI2
aI1
aI1
aI1
aI1
aI6
aI1
aI2
aI1
aI1
aI1
aI2
aI1
aI1
aI1
aI1
aI1
aI1
aI1
aI1
aI3
aI1
aI1
aI1
aI2
aI1
aI1
aI4
aI1
aI1
aI1
aI1
aI1
aI8
aI7
aI1
aI1
aI1
aI1
aI1
aI3
aI1
aI6
aI1
aI1
aI1
aI1
aI1
aI1
aI1
aI1
aI1
aI1
aI1
aI1
aI1
aI1
aI1
aI1
aI34
aI2
aI1
aI1
aI2
aI1
aI1
aI1
aI1
aI1
aI1
aI1
aI1
aI1
aI2
aI2
aI1
aI1
aI2
aI1
aI15
aI1
aI1
aI1
aI1
aI1
aI1
aI1
aI1
aI1
aI24
aI1
aI13
aI1
aI1
aI1
aI1
aI4
aI1
aI1
aI1
aI1
aI109
aI1
aI3
aI1
aI1
aI5
aI1
aI2
aI1
aI2
aI2
aI1
aI1
aI1
aI1
aI2
aI2
aI1
aI1
aI4
aI1
aI1
aI1
aI1
aI3
aI1
aI1
aI1
aI3
aI5
aI1
aI1
aI3
aI2
aI38
aI1
aI1
aI1
aI1
aI1
aI1
aI11
aI1
aI1
aI1
aI1
aI1
aI9
aI1
aI2
aI10
aI4
aI1
aI4
aI1
aI4
aI2
aI2
aI1
aI1
aI2
aI2
aI1
aI1
aI1
aI1
aI13
aI14
aI1
aI1
aI2
aI1
aI1
aI3
aI1
aI1
aI3
aI102
aI1
aI3
aI1
aI1
aI12
aI1
aI1
aI1
aI1
aI1
aI1
aI1
aI1
aI1
aI3
aI3
aI2
aI1
aI1
aI1
aI1
aI1
aI1
aI6
aI9
aI2
aI2
aI1
aI1
aI1
aI1
aI1
aI1
aI1
aI3
aI1
aI1
aI1
aI1
aI4
aI3
aI1
aI1
aI1
aI2
aI1
aI3
aI1
aI1
aI4
aI1
aI4
aI4
aI2
aI1
aI1
aI1
aI1
aI1
aI5
aI1
aI5
aI1
aI1
aI2
aI3
aI3
aI1
aI3
aI1
aI1
aI1
aI1
aI1
aI2
aI1
aI2
aI1
aI3
aI1
aI1
aI1
aI1
aI1
aI2
aI1
aI1
aI2
aI1
aI1
aI1
aI1
aI1
aI1
aI1
aI2
aI1
aI13
aI13
aI23
aI1
aI1
aI5
aI11
aI1
aI1
aI1
aI82
aI2
aI1
aI4
aI1
aI1
aI18
aI21
aI4
aI1
aI3
aI1
aI1
aI4
aI1
aI16
aI1
aI1
aI3
aI6
aI1
aI3
aI2
aI6
aI2
aI1
aI1
aI1
aI1
aI1
aI1
aI1
aI149
aI3
aI1
aI1
aI1
aI1
aI1
aI55
aI1
aI664
aI1
aI1
aI1
aI1
aI1
aI2
aI1
aI1
aI12
aI1
aI1
aI4
aI1
aI1
aI2
aI1
aI14
aI1
aI2
aI31
aI1
aI1
aI1
aI1
aI1
aI1
aI3
aI1
aI1
aI2
aI1
aI44
aI1
aI1
aI4
aI7
aI1
aI75
aI1
aI1
aI1
aI1
aI1
aI1
aI2
aI1
aI1
aI1
aI1
aI1
aI1
aI1
aI1
aI1
aI2
aI1
aI1
aI1
aI9
aI2
aI1
aI3
aI1
aI1
aI2
aI14
aI1
aI1
aI1
aI2
aI1
aI1
aI1
aI4
aI17
aI1
aI1
aI2
aI1
aI1
aI1
aI4
aI2
aI2
aI13
aI1
aI1
aI2
aI1
aI1
aI1
aI1
aI1
aI1
aI1
aI4
aI1
aI1
aI1
aI1
aI1
aI1
aI1
aI1
aI2
aI1
aI1
aI1
aI1
aI1
aI1
aI475
aI1
aI1
aI7
aI1
aI1
aI1
aI1
aI4
aI3
aI1
aI1
aI35
aI1
aI3
aI2
aI1
aI1
aI3
aI5
aI1
aI2
aI1
aI1
aI1
aI1
aI6
aI1
aI2
aI1
aI1
aI1
aI1
aI1
aI17
aI1
aI2
aI5
aI1
aI5
aI1
aI2
aI1
aI1
aI1
aI3
aI1
aI1
aI6
aI4
aI2
aI1
aI1
aI1
aI1
aI1
aI1
aI1
aI1
aI2
aI1
aI1
aI1
aI1
aI2
aI1
aI1
aI1
aI3
aI4
aI3
aI1
aI1
aI1
aI2
aI1
aI1
aI2
aI1
aI1
aI5
aI1
aI20
aI2
aI6
aI2
aI1
aI4
aI1
aI1
aI2
aI1
aI1
aI1
aI21
aI1
aI2
aI1
aI1
aI1
aI4
aI1
aI3
aI1
aI1
aI2
aI1
aI19
aI2
aI1
aI1
aI1
aI1
aI3
aI1
aI1
aI107
aI1
aI4
aI1
aI1
aI1
aI1
aI1
aI1
aI3
aI1
aI1
aI1
aI2
aI1
aI2
aI3
aI1
aI1
aI1
aI1
aI2
aI3
aI1
aI1
aI1
aI4
aI1
aI7
aI2
aI1
aI2
aI1
aI4
aI1
aI3
aI1
aI1
aI1
aI1
aI1
aI5
aI7
aI2
aI9
aI2
aI2
aI6
aI1
aI1
aI1
aI1
aI1
aI1
aI1
aI1
aI1
aI9
aI2
aI1
aI1
aI1
aI1
aI1
aI8
aI1
aI1
aI1
aI1
aI5
aI1
aI1
aI1
aI1
aI2
aI1
aI2
aI1
aI2
aI1
aI1
aI1
aI1
aI1
aI1
aI3
aI1
aI1
aI1
aI1
aI1
aI2
aI1
aI1
aI2
aI1
aI1
aI1
aI1
aI4
aI1
aI2
aI2
aI1
aI5
aI1
aI1
aI1
aI1
aI1
aI1
aI136
aI1
aI2
aI1
aI24
aI1
aI1
aI15
aI1
aI1
aI1
aI1
aI2
aI3
aI5
aI1
aI1
aI1
aI1
aI3
aI1
aI3
aI2
aI1
aI1
aI1
aI1
aI1
aI2
aI1
aI1
aI1
aI3
aI2
aI4
aI1
aI2
aI1
aI1
aI1
aI1
aI2
aI2
aI1
aI1
aI1
aI1
aI11
aI1
aI1
aI1
aI1
aI2
aI4
aI1
aI1
aI1
aI1
aI1
aI1
aI1
aI1
aI1
aI2
aI1
aI1
aI1
aI1
aI1240
aI1
aI1
aI1
aI1
aI1
aI1
aI1
aI64
aI33
aI1
aI1
aI1
aI1
aI1
aI1
aI1
aI4
aI1
aI1
aI13
aI1
aI1
aI4
aI6
aI3
aI1
aI1
aI1
aI4
aI4
aI1
aI1
aI19
aI1
aI1
aI1
aI2
aI2
aI1
aI1
aI1
aI1
aI1
aI1
aI1
aI1
aI1
aI2
aI26
aI1
aI40
aI1
aI1
aI21
aI2
aI1
aI1
aI2
aI1
aI1
aI7
aI1
aI2
aI1
aI3
aI9
aI2
aI1
aI1
aI1
aI1
aI1
aI1
aI1
aI4
aI1
aI2
aI3
aI1
aI1
aI1
aI1
aI2
aI1
aI2
aI1
aI1
aI1
aI2
aI1
aI1
aI2
aI1
aI3
aI2
aI3
aI1
aI1
aI1
aI2
aI2
aI1
aI1
aI1
aI1
aI1
aI2
aI1
aI1
aI2
aI1
aI1
aI3
aI2
aI1
aI4
aI8
aI3
aI1
aI2
aI1
aI1
aI1
aI5
aI1
aI1
aI1
aI1
aI2
aI1
aI1
aI1
aI3
aI1
aI2
aI1
aI1
aI1
aI1
aI1
aI1
aI4
aI1
aI3
aI2
aI1
aI11
aI19
aI1
aI3
aI1
aI13
aI1
aI1
aI1
aI12
aI1
aI1
aI1
aI2
aI1
aI4
aI1
aI2
aI1
aI1
aI1
aI1
aI13
aI1
aI7
aI1
aI1
aI1
aI2
aI1
aI1
aI4
aI1
aI1
aI1
aI1
aI3
aI1
aI1
aI1
aI3
aI3
aI1
aI1
aI1
aI1
aI2
aI1
aI1
aI1
aI4
aI4
aI3
aI2
aI4
aI1
aI1
aI5
aI2
aI1
aI2
aI1
aI3
aI2
aI1
aI11
aI4
aI1
aI1
aI1
aI1
aI1
aI1
aI1
aI1
aI1
aI1
aI1
aI1
aI1
aI2
aI38
aI1
aI46
aI1
aI6
aI1
aI22
aI1
aI1
aI1
aI105
aI1
aI1
aI1
aI1
aI3
aI1
aI2
aI2
aI1
aI5
aI1
aI1
aI5
aI1
aI1
aI16
aI1
aI1
aI1
aI1
aI1
aI2
aI1
aI1
aI1
aI1
aI1
aI25
aI1
aI1
aI1
aI1
aI2
aI1
aI1
aI1
aI1
aI3
aI1
aI1
aI1
aI2
aI5
aI2
aI1
aI1
aI1
aI5
aI1
aI4
aI1
aI2
aI2
aI1
aI12
aI1
aI1
aI29
aI1
aI2
aI4
aI1
aI1
aI1
aI1
aI1
aI2
aI1
aI1
aI1
aI1
aI15
aI2
aI1
aI1
aI1
aI1
aI1
aI1
aI1
aI1
aI23
aI4
aI1
aI1
aI1
aI1
aI20
aI1
aI1
aI1
aI1
aI163
aI1
aI1
aI1
aI37
aI2
aI1
aI1
aI2
aI1
aI27
aI1
aI1
aI3
aI6
aI1
aI2
aI7
aI1
aI1
aI1
aI4
aI1
aI1
aI1
aI1
aI1
aI3
aI1
aI1
aI2
aI2
aI2
aI2
aI1
aI1
aI1
aI1
aI1
aI5
aI1
aI2
aI1
aI2
aI2
aI1
aI3
aI1
aI1
aI1
aI1
aI7
aI3
aI1
aI1
aI1
aI2
aI5
aI1
aI1
aI1
aI1
aI2
aI23
aI1
aI1
aI1
aI1
aI1
aI1
aI1
aI1
aI2
aI1
aI2
aI1
aI4
aI1
aI3
aI2
aI1
aI2
aI2
aI1
aI1
aI2
aI2
aI1
aI1
aI1
aI1
aI1
aI2
aI1
aI1
aI1
aI2
aI1
aI1
aI2
aI1
aI1
aI1
aI1
aI1
aI1
aI1
aI1
aI1
aI1
aI1
aI2
aI1
aI1
aI1
aI2
aI1
aI5
aI1
aI1
aI1
aI1
aI1
aI1
aI2
aI1
aI1
aI1
aI1
aI1
aI128
aI8
aI1
aI1
aI1
aI2
aI2
aI5
aI1
aI1
aI1
aI1
aI1
aI1
aI1
aI1
aI1
aI1
aI1
aI1
aI1
aI1
aI2
aI1
aI1
aI2
aI1
aI1
aI1
aI1
aI1
aI1
aI3
aI3
aI9
aI2
aI1
aI1
aI1
aI1
aI1
aI6
aI1
aI1
aI1
aI1
aI319
aI1
aI1
aI1
aI5
aI1
aI2
aI78
aI1
aI1
aI1
aI1
aI1
aI10
aI1
aI1
aI1
aI2
aI1
aI32
aI1
aI1
aI1
aI2
aI19
aI5
aI1
aI1
aI1
aI1
aI1
aI3
aI1
aI3
aI1
aI3
aI1
aI1
aI1
aI1
aI1
aI2
aI1
aI1
aI1
aI1
aI1
aI1
aI1
aI7
aI10
aI1
aI1
aI1
aI2
aI11
aI1
aI1
aI1
aI1
aI1
aI1
aI1
aI10
aI2
aI2
aI2
aI1
aI1
aI1
aI1
aI2
aI2
aI1
aI1
aI2
aI1
aI1
aI2
aI2
aI4
aI2
aI1
aI8
aI1
aI1
aI1
aI1
aI5
aI1
aI1
aI1
aI1
aI2
aI5
aI2
aI2
aI1
aI1
aI1
aI1
aI2
aI6
aI1
aI1
aI1
aI1
aI1
aI6
aI13
aI2
aI1
aI1
aI1
aI1
aI1
aI1
aI1
aI1
aI1
aI2
aI1
aI1
aI1
aI1
aI1
aI1
aI1
aI29
aI2
aI2
aI6
aI4
aI1
aI1
aI1
aI1
aI1
aI2
aI102
aI1
aI1
aI1
aI1
aI1
aI1
aI1
aI2
aI3
aI1
aI1
aI1
aI1
aI1
aI2
aI7
aI1
aI2
aI2
aI1
aI1
aI2
aI1
aI1
aI1
aI1
aI1
aI1
aI1
aI1
aI1
aI1
aI1
aI1
aI2
aI1
aI13
aI1
aI1
aI4
aI1
aI1
aI1
aI1
aI1
aI5
aI1
aI1
aI4
aI1
aI3
aI1
aI1
aI1
aI1
aI1
aI1
aI1
aI1
aI2
aI265
aI11
aI1
aI1
aI1
aI1
aI2
aI4
aI1
aI1
aI8
aI1
aI11
aI9
aI1
aI3
aI1
aI1
aI1
aI1
aI2
aI2
aI1
aI5
aI1
aI3
aI1
aI1
aI18
aI1
aI1
aI1
aI1
aI1
aI1
aI1
aI1
aI1
aI1
aI1
aI2
aI1
aI1
aI1
aI2
aI2
aI2
aI1
aI2
aI3
aI2
aI1
aI1
aI1
aI1
aI34
aI1
aI141
aI16
aI1
aI1
aI1
aI7
aI3
aI8
aI1
aI1
aI2
aI1
aI1
aI1
aI1
aI1
aI1
aI1
aI1
aI1
aI1
aI4
aI1
aI1
aI5
aI1
aI2
aI1
aI6
aI3
aI4
aI1
aI2
aI1
aI4
aI3
aI1
aI1
aI2
aI1
aI2
aI1
aI1
aI1
aI2
aI1
aI9
aI6
aI3
aI1
aI1
aI1
aI3
aI1
aI2
aI1
aI1
aI3
aI1
aI2
aI2
aI1
aI1
aI1
aI2
aI1
aI1
aI1
aI2
aI1
aI2
aI2
aI1
aI1
aI1
aI1
aI6
aI1
aI62
aI2
aI2
aI1
aI2
aI2
aI1
aI1
aI1
aI1
aI1
aI5
aI1
aI1
aI11
aI1
aI3
aI1
aI1
aI1
aI1
aI1
aI2
aI2
aI12
aI1
aI5
aI1
aI1
aI24
aI1
aI1
aI1
aI21
aI998
aI2
aI1
aI1
aI1
aI1
aI1
aI1
aI1
aI2
aI1
aI1
aI2
aI1
aI1
aI1
aI1
aI3
aI3
aI1
aI10
aI1
aI1
aI1
aI1
aI2
aI1
aI7
aI4
aI1
aI1
aI1
aI4
aI9
aI1
aI1
aI1
aI2
aI2
aI1
aI2
aI1
aI1
aI1
aI1
aI1
aI2
aI1
aI1
aI1
aI1
aI1
aI2
aI1
aI1
aI1
aI1
aI1
aI2
aI1
aI1
aI1
aI1
aI1
aI1
aI1
aI1
aI1
aI2
aI1
aI1
aI3
aI36
aI1
aI1
aI1
aI1
aI1
aI2
aI1
aI1
aI2
aI1
aI2
aI2
aI1
aI1
aI2
aI8
aI1
aI1
aI1
aI2
aI1
aI51
aI1
aI1
aI8
aI1
aI4
aI1
aI1
aI1
aI1
aI6
aI1
aI1
aI1
aI1
aI1
aI2
aI1
aI1
aI1
aI1
aI1
aI1
aI1
aI1
aI1
aI1
aI1
aI1
aI2
aI3
aI4
aI1
aI3
aI2
aI1
aI4
aI2
aI6
aI1
aI25
aI2
aI3
aI1
aI1
aI1
aI1
aI1
aI1
aI1
aI1
aI2
aI2
aI1
aI1
aI1
aI2
aI1
aI10
aI1
aI1
aI1
aI2
aI1
aI1
aI1
aI1
aI6
aI10
aI1
aI1
aI1
aI1
aI8
aI1
aI3
aI2
aI1
aI1
aI1
aI10
aI1
aI2
aI1
aI1
aI1
aI1
aI6
aI4
aI1
aI1
aI1
aI1
aI4
aI1
aI6
aI4
aI7
aI1
aI1
aI1
aI2
aI32
aI3
aI1
aI2
aI2
aI1
aI5
aI1
aI1
aI1
aI6
aI2
aI5
aI559
aI1
aI1
aI1
aI1
aI1
aI8
aI1
aI1
aI8
aI2
aI3
aI1
aI1
aI1
aI1
aI2
aI1
aI1
aI1
aI1
aI1
aI1
aI1
aI1
aI35
aI3
aI7
aI1
aI1
aI1
aI1
aI1
aI7
aI51
aI1
aI1
aI1
aI1
aI1
aI3
aI1
aI1
aI1
aI2
aI1
aI13
aI1
aI1
aI2
aI2
aI1
aI1
aI1
aI1
aI2
aI1
aI2
aI1
aI1
aI1
aI1
aI1
aI4
aI2
aI2
aI7
aI3
aI1
aI6
aI1
aI1
aI2
aI1
aI1
aI1
aI1
aI1
aI2
aI1
aI5
aI1
aI1
aI3
aI1
aI1
aI1
aI1
aI1
aI319
aI3
aI6
aI2
aI2
aI1
aI1
aI1
aI1
aI1
aI3
aI1
aI1
aI1
aI1
aI1
aI1
aI1
aI30
aI1
aI3
aI63
aI1
aI2
aI2
aI3
aI1
aI1
aI2
aI8
aI1
aI1
aI6
aI2
aI5
aI1
aI2
aI1
aI1
aI2
aI1
aI3
aI1
aI4
aI2
aI1
aI1
aI1
aI1
aI1
aI1
aI1
aI1
aI1
aI1
aI3
aI5
aI2
aI1
aI7
aI3
aI1
aI1
aI2
aI3
aI1
aI1
aI1
aI1
aI3
aI1
aI2
aI1
aI2
aI1
aI4
aI6
aI1
aI3
aI1
aI1
aI1
aI7
aI1
aI1
aI8
aI1
aI1
aI1
aI2
aI1
aI1
aI1
aI12
aI1
aI1
aI1
aI1
aI1
aI2
aI1
aI2
aI1
aI1
aI3
aI2
aI1
aI3
aI1
aI1
aI2
aI1
aI49
aI3
aI1
aI1
aI2
aI1
aI5
aI1
aI1
aI2
aI1
aI13
aI1
aI22
aI23
aI1
aI2
aI1
aI6
aI1
aI1
aI5
aI16
aI1
aI1
aI1
aI1
aI4
aI1
aI1
aI1
aI1
aI1
aI2
aI1
aI10
aI6
aI1
aI2
aI4
aI2
aI1
aI5
aI1
aI2
aI2
aI2
aI2
aI1
aI2
aI1
aI1
aI5
aI2
aI1
aI1
aI1
aI3
aI1
aI4
aI1
aI1
aI16
aI1
aI24
aI1
aI1
aI1
aI2
aI2
aI2
aI1
aI2
aI1
aI1
aI1
aI1
aI1
aI13
aI1
aI2
aI1
aI1
aI1
aI1
aI5
aI3
aI6
aI1
aI1
aI3
aI1
aI1
aI4
aI2
aI1
aI1
aI1
aI1
aI1
aI1
aI2
aI3
aI1
aI3
aI2
aI3
aI4
aI1
aI1
aI1
aI1
aI1
aI1
aI2
aI1
aI1
aI1
aI1
aI1
aI1
aI1
aI2
aI1
aI1
aI1
aI1
aI1
aI1
aI2
aI292
aI1
aI5
aI1
aI7
aI1
aI2
aI2
aI2
aI1
aI1
aI2
aI5
aI7
aI3
aI1
aI1
aI60
aI1
aI1
aI1
aI2
aI1
aI4
aI1
aI1
aI1
aI1
aI1
aI1
aI1
aI1
aI13
aI1
aI3
aI1
aI1
aI6
aI1
aI1
aI3
aI1
aI3
aI2
aI3
aI1
aI1
aI1
aI9
aI1
aI1
aI1
aI2
aI1
aI1
aI1
aI1
aI8
aI5
aI1
aI3
aI1
aI1
aI1
aI5
aI1
aI2
aI1
aI1
aI1
aI1
aI1
aI1
aI1
aI1
aI2
aI7
aI1
aI2
aI4
aI1
aI1
aI3
aI1
aI4
aI6
aI1
aI1
aI1
aI1
aI5
aI1
aI1
aI1
aI1
aI1
aI1
aI2
aI1
aI2
aI1
aI1
aI1
aI1
aI1
aI1
aI1
aI1
aI1
aI1
aI5
aI1
aI1
aI1
aI1
aI5
aI1
aI1
aI1
aI1
aI1
aI1
aI2
aI2
aI3
aI1
aI2
aI1
aI2
aI1
aI2
aI1
aI1
aI2
aI11
aI4
aI2
aI1
aI1
aI2
aI1
aI7
aI2
aI15
aI1
aI1
aI2
aI54
aI3
aI1
aI3
aI2
aI1
aI2
aI4
aI1
aI1
aI2
aI3
aI1
aI2
aI1
aI2
aI2
aI3
aI1
aI1
aI2
aI41
aI2
aI1
aI1
aI1
aI1
aI1
aI1
aI2
aI3
aI1
aI1
aI2
aI1
aI1
aI5
aI1
aI1
aI18
aI2
aI1
aI1
aI3
aI11
aI2
aI1
aI1
aI1
aI1
aI1
aI1
aI1
aI21
aI1
aI2
aI44
aI1
aI2
aI8
aI6
aI1
aI1
aI1
aI1
aI1
aI1
aI1
aI1
aI1
aI1
aI9
aI1
aI1
aI1
aI2
aI4
aI4
aI5
aI1
aI1
aI3
aI1
aI4
aI2
aI2
aI1
aI3
aI1
aI148
aI1
aI2
aI1
aI1
aI9
aI1
aI1
aI2
aI1
aI1
aI4
aI1
aI1
aI1
aI2
aI2
aI1
aI1
aI1
aI1
aI2
aI2
aI4
aI1
aI1
aI1
aI1
aI1
aI1
aI5
aI1
aI1
aI1
aI2
aI3
aI1
aI6
aI1
aI2
aI1
aI1
aI5
aI1
aI1
aI1
aI4
aI1
aI11
aI1
aI1
aI1
aI3
aI1
aI1
aI1
aI44
aI1
aI86
aI1
aI1
aI1
aI17
aI1
aI1
aI1
aI2
aI1
aI1
aI203
aI1
aI1
aI1
aI1
aI1
aI1
aI1
aI2
aI2
aI1
aI1
aI1
aI2
aI1
aI2
aI1
aI8
aI1
aI1
aI1
aI13
aI1
aI7
aI1
aI3
aI8
aI1
aI2
aI1
aI1
aI6
aI1
aI1
aI7
aI14
aI1
aI1
aI1
aI1
aI2
aI1
aI1
aI1
aI1
aI1
aI2
aI2
aI1
aI1
aI1
aI1
aI1
aI1
aI1
aI1
aI1
aI1
aI1
aI2071
aI2
aI3
aI1
aI1
aI2
aI1
aI1
aI1
aI1
aI2
aI1
aI25
aI2
aI1
aI1
aI2
aI4
aI1
aI1
aI2
aI1
aI1
aI2
aI2
aI1
aI1
aI1
aI1
aI4
aI2
aI3
aI1
aI2
aI1
aI1
aI1
aI1
aI6
aI1
aI1
aI1
aI3
aI2
aI2
aI2
aI1
aI4
aI2
aI1
aI5
aI1
aI1
aI1
aI1
aI2
aI1
aI1
aI1
aI1
aI1
aI1
aI1
aI1
aI1
aI1
aI8
aI1
aI10
aI2
aI1
aI1
aI1
aI1
aI4
aI1
aI1
aI1
aI2
aI1
aI1
aI2
aI5
aI1
aI3
aI2
aI1
aI1
aI1
aI3
aI2
aI1
aI1
aI1
aI7
aI1
aI2
aI74
aI1
aI1
aI1
aI2
aI2
aI9
aI1
aI20
aI1
aI1
aI2
aI2
aI3
aI13
aI1
aI1
aI2
aI1
aI4
aI3
aI1
aI2
aI1
aI1
aI1
aI7
aI1
aI1
aI1
aI1
aI1
aI3
aI2
aI1
aI2
aI1
aI2
aI5
aI1
aI1
aI26
aI1
aI1
aI1
aI1
aI1
aI1
aI1
aI1
aI3
aI1
aI1
aI1
aI1
aI1
aI1
aI2
aI1
aI2
aI1
aI1
aI3
aI1
aI1
aI2
aI1
aI3
aI4
aI1
aI2
aI6
aI2
aI2
aI1
aI1
aI1
aI1
aI1
aI5
aI2
aI1
aI1
aI3
aI1
aI1
aI1
aI1
aI2
aI1
aI1
aI1
aI2
aI1
aI2
aI4
aI1
aI1
aI1
aI1
aI1
aI4
aI3
aI1
aI1
aI1
aI1
aI1
aI1
aI1
aI1
aI1
aI1
aI1
aI1
aI1
aI1
aI1
aI2
aI2
aI2
aI1
aI1
aI1
aI1
aI1
aI1
aI1
aI1
aI3
aI1
aI1
aI1
aI2
aI2
aI5
aI1
aI4
aI1
aI2
aI2
aI1
aI3
aI1
aI1
aI1
aI1
aI8
aI1
aI7
aI1
aI1
aI1
aI1
aI1
aI1
aI1
aI1
aI2
aI1
aI1
aI3
aI6
aI1
aI1
aI1
aI1
aI1
aI1
aI1
aI11
aI3
aI1
aI2
aI1
aI12
aI1
aI3
aI4
aI1
aI2
aI1
aI7
aI1
aI1
aI1
aI1
aI1
aI7
aI1
aI12
aI363
aI5
aI3
aI2
aI1
aI2
aI1
aI1
aI5
aI2
aI1
aI15
aI5
aI1
aI1
aI1
aI4
aI2
aI2
aI6
aI2
aI1
aI2
aI1
aI2
aI1
aI8
aI2
aI2
aI1
aI1
aI1
aI2
aI4
aI1455
aI1
aI1
aI1
aI1
aI20
aI1
aI1
aI2
aI2
aI1
aI1
aI2
aI1
aI1
aI1
aI1
aI1
aI2
aI1
aI2
aI5
aI4
aI1
aI1
aI3
aI1
aI353
aI1
aI2
aI50
aI2
aI3
aI2
aI4
aI3
aI1
aI1
aI1
aI3
aI1
aI1
aI4
aI2
aI2
aI1
aI9
aI1
aI1
aI3
aI1
aI1
aI1
aI1
aI64
aI1
aI1
aI2
aI3
aI1
aI1
aI2
aI27
aI1
aI2
aI16
aI1
aI1
aI1
aI2
aI1
aI1
aI1
aI1
aI1
aI3
aI2
aI2
aI7
aI1
aI1
aI1
aI1
aI10
aI1
aI1
aI2
aI1
aI1
aI1
aI1
aI1
aI1
aI28
aI1
aI1
aI1
aI1
aI1
aI1
aI1
aI1
aI1
aI1
aI1
aI1
aI1
aI1
aI1
aI2
aI4
aI1
aI5
aI1
aI1
aI1
aI1
aI1
aI1
aI4
aI1
aI1
aI28
aI3
aI2
aI1
aI1
aI1
aI1
aI1
aI1
aI1
aI2
aI1
aI1
aI1
aI1
aI1
aI1
aI1
aI1
aI1
aI2
aI1
aI2
aI8
aI17
aI1
aI1
aI4
aI1
aI1
aI1
aI1
aI666
aI3
aI1
aI3
aI2
aI1
aI3
aI2
aI1
aI1
aI1
aI2
aI1
aI1
aI2
aI1
aI1
aI2
aI5
aI1
aI6
aI3
aI2
aI1
aI1
aI2
aI3
aI4
aI3
aI1
aI1
aI1
aI1
aI1
aI2
aI1
aI2
aI2
aI1
aI1
aI1
aI1
aI1
aI1
aI1
aI2
aI1
aI5
aI2
aI2
aI2
aI5
aI1
aI2
aI3
aI3
aI1
aI1
aI2
aI2
aI1
aI1
aI1
aI1
aI1
aI1
aI5
aI1
aI1
aI5
aI1
aI1
aI13
aI1
aI2
aI1
aI1
aI14
aI1
aI1
aI1
aI1
aI1
aI1
aI4
aI1
aI1
aI2
aI2
aI6
aI2
aI1
aI1
aI1
aI1
aI1
aI1
aI1
aI1
aI1
aI1
aI4504
aI1
aI2
aI1
aI1
aI1
aI1
aI1
aI4
aI1
aI1
aI1
aI1
aI34
aI1
aI237
aI1
aI2
aI4
aI1
aI120
aI1
aI5
aI1
aI1
aI6
aI4
aI1
aI1
aI1
aI3
aI1
aI2
aI1
aI1
aI1
aI1
aI7
aI1
aI324
aI1
aI1
aI1
aI35
aI1
aI1
aI1
aI6
aI1
aI1
aI2
aI1
aI2
aI54
aI2
aI1
aI3
aI2
aI9
aI2
aI4
aI8
aI8
aI1
aI1
aI1
aI3
aI3
aI6
aI1
aI1
aI2
aI1
aI1
aI1
aI1
aI1
aI8
aI1
aI1
aI1
aI1
aI1
aI1
aI1
aI1
aI1
aI1
aI1
aI1
aI13
aI1
aI1
aI1
aI1
aI2
aI1
aI1
aI1
aI1
aI1
aI1
aI1
aI1
aI12
aI3
aI3
aI1
aI5
aI1
aI2
aI1
aI1
aI3
aI1
aI6
aI1
aI1
aI2
aI5
aI6
aI1
aI1
aI1
aI3
aI1
aI1
aI2
aI1
aI4
aI1
aI1
aI1
aI1
aI1
aI1
aI1
aI1
aI1
aI10
aI1
aI1
aI1
aI1
aI1
aI1
aI1
aI1
aI4
aI3
aI19
aI9
aI7
aI2
aI3
aI2
aI1
aI1
aI2
aI5
aI2
aI1
aI1
aI1
aI1
aI1
aI4
aI2
aI1
aI6
aI1
aI1
aI1
aI4
aI1
aI1
aI1
aI2
aI9
aI1
aI1
aI1
aI1
aI3
aI1
aI1
aI1
aI1
aI2
aI2
aI1
aI1
aI1
aI1
aI1
aI2
aI1
aI1
aI2
aI1
aI1
aI1
aI1
aI5
aI1
aI1
aI10
aI1
aI1
aI1
aI1
aI1
aI2
aI1
aI2
aI1
aI1
aI1
aI2
aI1
aI1
aI1
aI7
aI3
aI1
aI1
aI2
aI2
aI1
aI1
aI2
aI1
aI1
aI14
aI1
aI1
aI2
aI1
aI1
aI1
aI1
aI1
aI2
aI3
aI1
aI6
aI1
aI1
aI1
aI1
aI1
aI1
aI1
aI1
aI1
aI6
aI8
aI1
aI2
aI1
aI1
aI1
aI1
aI1
aI2
aI1
aI1
aI1
aI1
aI4
aI1
aI1
aI3
aI4
aI3
aI1
aI15
aI4
aI4
aI4
aI5
aI3
aI1
aI1
aI1
aI1
aI1
aI5
aI2
aI3
aI32
aI3
aI1
aI1
aI1
aI6
aI1
aI1
aI1
aI8
aI1
aI1
aI1
aI1
aI1
aI1
aI5
aI1
aI4
aI1
aI1
aI1
aI1
aI1
aI1
aI1
aI2
aI3
aI1
aI1
aI1
aI1
aI1
aI2
aI1
aI6
aI1
aI1
aI1
aI1
aI1
aI2
aI14
aI1
aI1
aI1
aI25
aI1
aI1
aI1
aI2
aI3
aI1
aI3
aI1
aI4
aI2
aI1
aI3
aI1
aI1
aI1
aI8
aI1
aI2
aI1
aI1
aI1
aI1
aI4
aI1
aI2
aI5
aI4
aI1
aI1
aI1
aI30
aI1
aI1
aI5
aI6
aI1
aI1
aI1
aI1
aI1
aI1
aI1
aI1
aI2
aI1
aI3
aI12
aI1
aI6
aI2
aI2
aI1
aI1
aI1
aI1
aI1
aI1
aI1
aI1
aI5
aI1
aI1
aI2
aI84
aI1
aI1
aI2
aI1
aI1
aI1
aI1
aI2
aI2
aI3
aI1
aI1
aI1
aI36
aI1
aI1
aI1
aI1
aI1
aI3
aI6
aI4
aI1
aI1
aI1
aI1
aI1
aI1
aI4
aI2
aI7
aI1
aI3
aI2
aI1
aI3
aI2
aI1
aI1
aI1
aI1
aI4
aI2
aI4
aI1
aI1
aI1
aI1
aI1
aI3
aI5
aI2
aI1
aI1
aI1
aI1
aI1
aI1
aI1
aI1
aI1
aI1
aI6
aI1
aI1
aI1
aI1
aI1
aI1
aI1
aI1
aI1
aI1
aI1
aI2
aI2
aI2
aI2
aI1
aI1
aI1
aI1
aI1
aI2
aI1
aI1
aI1
aI1
aI1
aI1
aI1
aI3
aI1
aI34
aI49
aI1
aI1
aI1
aI3
aI1
aI6
aI1
aI1
aI1
aI1
aI1
aI1
aI1
aI1
aI1
aI1
aI3
aI1
aI1
aI2
aI2
aI1
aI1
aI35
aI1
aI20
aI2
aI1
aI1
aI3
aI75
aI2
aI1
aI10
aI1
aI2
aI1
aI1
aI3
aI1
aI1
aI1
aI1
aI1
aI1
aI3
aI8
aI1
aI1
aI3
aI163
aI1
aI1
aI48
aI1
aI1
aI1
aI1
aI1
aI1
aI1
aI1
aI1
aI1
aI1
aI2
aI1
aI41
aI3
aI29
aI4
aI2
aI1
aI1
aI1
aI1
aI1
aI1
aI4
aI1
aI1
aI8
aI1
aI2
aI1
aI4
aI2
aI1
aI1
aI1
aI1
aI1
aI2
aI2
aI2
aI1
aI1
aI1
aI2
aI1
aI1
aI2
aI1
aI1
aI1
aI1
aI1
aI1
aI1
aI1
aI1
aI1
aI1
aI49
aI1
aI1
aI1
aI1
aI3
aI2
aI2
aI3
aI1
aI3
aI1
aI3
aI3
aI1
aI1
aI4
aI1
aI1
aI2
aI1
aI1
aI27
aI13
aI3
aI1
aI1
aI2
aI6
aI1
aI1
aI1
aI167
aI1
aI1
aI2
aI2
aI2
aI1
aI1
aI1
aI1
aI80
aI2
aI1
aI1
aI1
aI3
aI1
aI1
aI1
aI5
aI1
aI1
aI1
aI1
aI1
aI1
aI1
aI1
aI1
aI1
aI2
aI3
aI1
aI2
aI1
aI1
aI1
aI1
aI1
aI2
aI1
aI2
aI3
aI2
aI1
aI1
aI1
aI3
aI1
aI1
aI1
aI1
aI1
aI1
aI1
aI185
aI1
aI1
aI4
aI1
aI1
aI1
aI1
aI1
aI1
aI1
aI1
aI1
aI2
aI4
aI1
aI1
aI20
aI3
aI1
aI2
aI3
aI1
aI1
aI1
aI1
aI1
aI1
aI1
aI45
aI82
aI1
aI4
aI1
aI3
aI1
aI2
aI8
aI2
aI1
aI10
aI2
aI2
aI1
aI6
aI2
aI2
aI1
aI15
aI1
aI1
aI1
aI1
aI1
aI6
aI1
aI1
aI1
aI1
aI1
aI20
aI1
aI3
aI1
aI1
aI16
aI1
aI2
aI1
aI46
aI1
aI2
aI2
aI1
aI1
aI2
aI1
aI1
aI1
aI2
aI1
aI1
aI1
aI107
aI1
aI1
aI5
aI3
aI1
aI1
aI1
aI3
aI1
aI6
aI1
aI1
aI1
aI1
aI1
aI2
aI1
aI10
aI1
aI2
aI2
aI2
aI3
aI1
aI1
aI2
aI1
aI1
aI2
aI4
aI1
aI1
aI1
aI3
aI1
aI2
aI1
aI2
aI1
aI1
aI1
aI1
aI1
aI5
aI1
aI3
aI1
aI1
aI1
aI1
aI2
aI1
aI1
aI1
aI1
aI1
aI1
aI1
aI2
aI1
aI2
aI3
aI6
aI1
aI4
aI1
aI16
aI1
aI4
aI1
aI1
aI36
aI1
aI1
aI3
aI1
aI4
aI1
aI6
aI1
aI6
aI3
aI7
aI1
aI2
aI1
aI1
aI1
aI1
aI1
aI19
aI1
aI12
aI1
aI1
aI1
aI1
aI2
aI1
aI2
aI2
aI1
aI1
aI1
aI1
aI1
aI2
aI1
aI1
aI1
aI1
aI2
aI1
aI1
aI1
aI2
aI2
aI2
aI1
aI2
aI4
aI6
aI4
aI3
aI1
aI373
aI2
aI1
aI1
aI1
aI1
aI522
aI1
aI1
aI1
aI7
aI1
aI1
aI2
aI1
aI3
aI1
aI2
aI1
aI1
aI5
aI2
aI2
aI1
aI1
aI14
aI1
aI8
aI1
aI5
aI1
aI1
aI1
aI5
aI1
aI20
aI1
aI24
aI50
aI1
aI1
aI40
aI1
aI4
aI1
aI8
aI1
aI4
aI1
aI4
aI1
aI2
aI2
aI1
aI1
aI1
aI1
aI2
aI5
aI3
aI2
aI1
aI1
aI1
aI1
aI1
aI1
aI29
aI1
aI1
aI1
aI1
aI1
aI1
aI1
aI1
aI1
aI2
aI1
aI1
aI2
aI1
aI2
aI1
aI1
aI2
aI1
aI84
aI1
aI1
aI1
aI1
aI1
aI1
aI2
aI1
aI5
aI1
aI2
aI1
aI1
aI1
aI4
aI1
aI2
aI1
aI5
aI2
aI1
aI1
aI1
aI4
aI2
aI3
aI1
aI3
aI1
aI40
aI1
aI1
aI1
aI1
aI818
aI1
aI8
aI20
aI1
aI1
aI1
aI1
aI1
aI1
aI1
aI24
aI2
aI1
aI3
aI4
aI1
aI2
aI8
aI1
aI1
aI2
aI1
aI1
aI1
aI1
aI13
aI1
aI1
aI1
aI1
aI3
aI1
aI1
aI1
aI1
aI3
aI2
aI1
aI6
aI1
aI1
aI1
aI1
aI1
aI2
aI1
aI1
aI2
aI14
aI1
aI1
aI1
aI2
aI1
aI8
aI9
aI1
aI3
aI54
aI1
aI1
aI1
aI1
aI2
aI1
aI1
aI1
aI4
aI1
aI1
aI8
aI1
aI1
aI1
aI3
aI1
aI1
aI5
aI1
aI4
aI1
aI1
aI1
aI3
aI2
aI1
aI1
aI1
aI3
aI10
aI1
aI2
aI3
aI1
aI1
aI1
aI1
aI1
aI1
aI2
aI1
aI1
aI1
aI2
aI1
aI1
aI2
aI1
aI1
aI3178
aI2
aI2
aI2
aI1
aI1
aI3
aI2
aI1
aI1
aI2
aI1
aI1
aI1
aI1
aI1
aI1
aI1
aI10
aI1
aI4
aI1
aI1
aI1
aI1
aI1
aI1
aI1
aI1
aI1
aI2
aI1
aI2
aI1
aI2
aI1
aI3
aI8
aI2
aI1
aI1
aI1
aI1
aI1
aI1
aI1
aI8
aI4
aI6
aI1
aI2
aI1
aI1
aI1
aI22
aI1
aI1
aI38
aI1
aI1
aI1
aI1
aI1
aI5
aI27
aI1
aI6
aI1
aI2
aI1
aI1
aI1
aI3
aI2
aI4
aI1
aI1
aI5
aI1
aI3
aI1
aI1
aI1
aI1
aI2
aI1
aI1
aI2
aI1
aI1
aI2
aI1
aI1
aI1
aI1
aI1
aI1
aI9
aI1
aI3
aI2
aI2
aI2
aI3
aI3
aI3
aI2
aI1
aI33
aI2
aI1
aI1
aI1
aI5
aI1
aI2
aI1
aI1
aI1
aI1
aI1
aI2
aI1
aI1
aI1
aI2
aI1
aI1
aI1
aI20
aI1
aI1
aI1
aI3
aI1
aI1
aI3
aI2
aI2
aI2
aI1
aI2
aI1
aI13
aI1
aI3
aI1
aI2
aI1
aI1
aI1
aI124
aI1
aI3
aI1
aI1
aI1
aI1
aI1
aI1
aI4
aI2
aI9
aI1
aI1
aI1
aI1
aI1
aI2
aI5
aI1
aI4
aI2
aI4
aI2
aI1
aI2
aI4
aI5
aI1
aI1
aI1
aI2
aI1
aI1
aI1
aI1
aI1
aI4
aI1
aI3
aI1
aI1
aI3
aI1
aI3
aI1
aI2
aI4
aI4
aI2
aI1
aI1
aI1
aI2
aI1
aI1
aI1
aI4
aI1
aI1
aI6
aI1
aI1
aI20
aI2
aI1
aI1
aI2
aI13
aI2
aI2
aI1
aI2
aI1
aI1
aI1
aI37
aI1
aI3
aI1
aI6
aI1
aI3
aI1
aI2
aI2
aI2
aI17
aI6
aI3
aI1
aI1
aI5
aI1
aI7
aI1
aI2
aI3
aI3
aI1
aI1
aI2
aI2
aI1
aI1
aI1
aI10
aI2
aI1
aI1
aI3
aI1
aI1
aI1
aI1
aI32
aI1
aI1
aI16
aI2
aI2
aI3
aI5
aI1
aI1
aI1
aI105
aI2
aI2
aI1
aI1
aI3
aI1
aI1
aI1
aI1
aI1
aI3
aI1
aI1
aI2
aI1
aI1
aI2
aI1
aI5
aI1
aI6
aI1
aI1
aI1
aI1
aI1
aI3
aI1
aI1
aI1
aI2
aI5
aI1
aI2
aI1
aI2
aI1
aI1
aI1
aI1
aI1
aI21
aI1
aI1
aI1
aI4
aI143
aI2
aI1
aI1
aI1
aI2
aI1
aI1
aI1
aI118
aI1
aI1
aI1
aI1
aI1
aI1
aI6
aI1
aI6
aI1
aI2
aI2
aI1
aI1
aI1
aI5
aI12
aI1
aI1
aI3
aI1
aI1
aI1
aI2
aI1
aI1
aI1
aI5
aI2
aI1
aI1
aI1
aI2
aI1
aI6
aI1
aI105
aI5
aI2
aI1
aI1
aI1
aI92
aI30
aI7
aI1
aI2
aI1
aI4
aI10
aI2
aI1
aI1
aI1
aI1
aI1
aI1
aI8
aI1
aI2
aI3
aI1
aI2
aI3
aI2
aI1
aI3
aI1
aI1
aI1
aI1
aI11
aI1
aI4
aI1
aI1
aI278
aI1
aI1
aI1
aI1
aI1
aI1
aI1
aI1
aI1
aI78
aI1
aI2
aI1
aI2
aI2
aI1
aI1
aI1
aI1
aI1
aI7
aI1
aI8
aI1
aI1
aI1
aI1
aI1
aI1
aI1
aI1
aI1
aI1
aI2
aI1
aI1
aI3
aI11
aI5
aI7
aI4
aI1
aI1
aI1
aI1
aI1
aI4
aI1
aI1
aI1
aI1
aI2
aI17
aI1
aI1
aI1
aI1
aI1
aI1
aI1
aI1
aI1
aI2
aI3
aI1
aI2
aI1
aI1
aI1
aI1
aI1
aI2
aI1
aI1
aI1
aI1
aI1
aI1
aI3
aI1
aI2
aI1
aI1
aI3
aI1
aI1
aI2
aI18
aI1
aI1
aI1
aI1
aI1
aI1
aI1
aI1
aI1
aI6
aI1
aI1
aI4
aI26
aI1
aI1
aI19
aI2
aI1
aI2
aI3
aI3
aI1
aI1
aI1
aI1
aI2
aI1
aI1
aI68
aI1
aI1
aI1
aI1
aI1
aI1
aI4
aI1
aI5
aI1
aI1
aI1
aI1
aI1
aI1
aI2
aI2
aI28
aI1
aI1
aI2
aI5
aI1
aI1
aI1
aI1
aI1
aI2
aI6
aI2
aI1
aI1
aI1
aI9
aI2
aI1
aI1
aI1
aI1
aI1
aI2
aI2
aI1
aI1
aI2
aI1
aI4
aI2
aI99
aI2
aI1
aI33
aI1
aI1
aI1
aI7
aI1
aI3
aI4
aI4
aI1
aI1
aI1
aI3
aI113
aI1
aI1
aI1
aI1
aI1
aI1
aI1
aI2
aI1
aI1
aI2
aI3
aI1
aI18808
aI2
aI91
aI1
aI1
aI1
aI42
aI1
aI1
aI1
aI1
aI15
aI1
aI1
aI1
aI5
aI3
aI1
aI2
aI1
aI1
aI5
aI1
aI2
aI7
aI1
aI1
aI1
aI1
aI1
aI1
aI1
aI2
aI1
aI1
aI1
aI1
aI1
aI1
aI1
aI1
aI1
aI1
aI1
aI1
aI1
aI2
aI3
aI1
aI1
aI1
aI1
aI1
aI1
aI1
aI1
aI1
aI1
aI1
aI3
aI1
aI3
aI2
aI1
aI133
aI1
aI1
aI1
aI1
aI1
aI1
aI2
aI41
aI1
aI1
aI2
aI12
aI1
aI1
aI6
aI2
aI3
aI12
aI1
aI8
aI1
aI1
aI1
aI1
aI1
aI1
aI1
aI17
aI2
aI1
aI29
aI1
aI1
aI1
aI1
aI2
aI1
aI1
aI2
aI3
aI1
aI2
aI2
aI2
aI2
aI1
aI1
aI1
aI2
aI3
aI1
aI1
aI1
aI1
aI1
aI1
aI2
aI1
aI7
aI1
aI1
aI8
aI1
aI2
aI1
aI1
aI1
aI1
aI2
aI1
aI1
aI3589
aI2
aI1
aI2
aI2
aI1
aI1
aI4
aI1
aI1
aI2
aI1
aI1
aI2
aI2
aI3
aI1
aI1
aI9
aI2
aI1
aI3
aI1
aI1
aI2
aI24
aI1
aI1
aI1
aI2
aI1
aI1
aI2
aI1
aI1
aI1
aI1
aI1
aI1
aI1
aI1
aI21
aI1
aI4
aI1
aI8
aI1
aI1
aI6
aI5
aI1
aI1
aI1
aI4
aI1
aI1
aI4
aI1
aI1
aI1
aI1
aI1
aI2
aI1
aI1
aI1
aI2
aI2
aI1
aI1
aI1
aI2
aI1
aI1
aI28
aI2
aI1
aI1
aI1
aI2
aI1
aI1
aI7
aI1
aI1
aI1
aI1
aI1
aI8
aI1
aI2
aI1
aI1
aI1
aI1
aI1
aI1
aI1
aI2
aI1
aI2
aI3
aI1
aI1
aI1
aI1
aI1
aI2
aI1
aI2
aI1
aI10
aI1
aI2
aI11
aI1
aI1
aI1
aI1
aI1
aI1
aI2
aI1
aI3
aI1
aI2
aI3
aI28
aI1
aI1
aI1
aI1
aI1
aI4
aI1
aI2
aI1
aI2
aI2
aI1
aI1
aI6
aI1
aI10
aI3
aI3
aI2
aI5
aI1
aI20
aI1
aI1
aI9
aI1
aI1
aI9
aI2
aI6
aI2
aI1
aI1
aI2
aI2
aI1
aI1
aI2
aI1
aI4
aI2
aI1
aI25
aI1
aI10
aI2
aI1
aI1
aI2
aI1
aI1
aI2
aI7
aI4
aI1
aI1
aI1
aI1
aI2
aI1
aI1
aI1
aI1
aI1
aI2
aI3
aI1
aI3
aI3
aI1
aI1
aI1
aI4
aI3
aI3
aI2
aI1
aI1
aI1
aI1
aI1
aI2
aI1
aI1
aI1
aI2
aI5
aI6
aI1
aI7
aI1
aI1
aI2
aI1
aI1
aI1
aI2
aI1
aI1
aI1
aI1
aI2
aI1
aI1
aI1
aI1
aI1
aI1
aI1
aI1
aI4
aI1
aI3
aI1
aI2
aI1
aI1
aI2
aI2
aI1
aI3
aI1
aI1
aI1
aI1
aI1
aI2
aI1
aI1
aI1
aI2
aI1
aI1
aI1
aI85
aI1
aI1
aI1
aI1
aI2
aI1
aI27
aI2
aI1
aI4
aI4
aI1
aI2
aI1
aI1
aI7
aI1
aI2
aI1
aI1
aI2
aI2
aI2
aI1
aI1
aI1
aI1
aI1
aI1
aI1
aI8
aI2
aI1
aI5
aI1214
aI1
aI1
aI2
aI1
aI2
aI1
aI2
aI2
aI3
aI1
aI1
aI3
aI1
aI1
aI1
aI2
aI2
aI1
aI1
aI2
aI4
aI1
aI2
aI1
aI1
aI2
aI6
aI1
aI1
aI1
aI1
aI1
aI1
aI15
aI1
aI5
aI7
aI1
aI1
aI53
aI1
aI1
aI1
aI1
aI1
aI2
aI1
aI2
aI1
aI2
aI3
aI1
aI1
aI4
aI1
aI1
aI2
aI2
aI2
aI1
aI81
aI1
aI1
aI1
aI2
aI2
aI6
aI1
aI2
aI1
aI1
aI2
aI7
aI3
aI8
aI7
aI1
aI1
aI1
aI1
aI1
aI1
aI1
aI2
aI1
aI3
aI1
aI1
aI1
aI1
aI1
aI2
aI2
aI1
aI1
aI2
aI6
aI1
aI12
aI1
aI3
aI1
aI1
aI1
aI1
aI142
aI1
aI6
aI1
aI1
aI57
aI1
aI1
aI1
aI4
aI1
aI1
aI1
aI2
aI1
aI1
aI1
aI1
aI1
aI28
aI3
aI5
aI2
aI1
aI1
aI1
aI1
aI1
aI1
aI1
aI2
aI1
aI1
aI2
aI6
aI1
aI9
aI3
aI1
aI119
aI1
aI2
aI2
aI1
aI4
aI38
aI2
aI1
aI1
aI1
aI1
aI1
aI1
aI1
aI1
aI1
aI1
aI1
aI1
aI1
aI1
aI1
aI1
aI1
aI2
aI1
aI1
aI7
aI2
aI2
aI1
aI2
aI1
aI1
aI1
aI1
aI1
aI1
aI1
aI1
aI1
aI17
aI1
aI1
aI1
aI1
aI1
aI1
aI1
aI1
aI1
aI2
aI1
aI1
aI2
aI4
aI1
aI2
aI3
aI1
aI2
aI1
aI1
aI1
aI2
aI2
aI1
aI2
aI5
aI1
aI1
aI1
aI1
aI1
aI1
aI2
aI14
aI28
aI1
aI10
aI1
aI1
aI1
aI3
aI1
aI55
aI1
aI1
aI2
aI1
aI1
aI1
aI1
aI2
aI2
aI1
aI1
aI1
aI1
aI1
aI1
aI1
aI1
aI4
aI1
aI1
aI1
aI1
aI1
aI1
aI1
aI1
aI1
aI1
aI1
aI2
aI7
aI2
aI1
aI1
aI1
aI1
aI1
aI1
aI1
aI1
aI1
aI1
aI1
aI2
aI1
aI1
aI1
aI1
aI1
aI3
aI1
aI1
aI1
aI1
aI3
aI3
aI2
aI1
aI1
aI1
aI1
aI4
aI1
aI1
aI3
aI1
aI1
aI21
aI1
aI1
aI1
aI2
aI1
aI7
aI1
aI1
aI1
aI1
aI1
aI1
aI12
aI2
aI1
aI1
aI171
aI1
aI1
aI1
aI6
aI1
aI4
aI2
aI3
aI1
aI1
aI1
aI862
aI1
aI33
aI6
aI3
aI1
aI3
aI1
aI1
aI3
aI2
aI1
aI1
aI1
aI1
aI1
aI1
aI2
aI1
aI2
aI1
aI2
aI2
aI1
aI1
aI1
aI1
aI52
aI2
aI3
aI3
aI1
aI1
aI2
aI1
aI1
aI1
aI2
aI1
aI5
aI1
aI6
aI1
aI1
aI1
aI5
aI81
aI5
aI1
aI1
aI2
aI1
aI21
aI13
aI1
aI1
aI3
aI1
aI1
aI1
aI2
aI1
aI3
aI1
aI1
aI1
aI5
aI2
aI1
aI1
aI1
aI1
aI3
aI1
aI1
aI3
aI21
aI17
aI1
aI1
aI2
aI1
aI6
aI1
aI1
aI1
aI1
aI1
aI1
aI5
aI1
aI78
aI1
aI4
aI1
aI4
aI1
aI1
aI2
aI1
aI1
aI1
aI2
aI2
aI4
aI2
aI5
aI1
aI9
aI3
aI1
aI1
aI1
aI1
aI2
aI7
aI2
aI1
aI3
aI1
aI1
aI1
aI6
aI1
aI1
aI2
aI2
aI1
aI1
aI2
aI2
aI4
aI2
aI1
aI1
aI1
aI1
aI1
aI1
aI12
aI1
aI1
aI1
aI1
aI3
aI11
aI1
aI7
aI1
aI1
aI1
aI4
aI4
aI1
aI1
aI1
aI1
aI1
aI2
aI5
aI8
aI1
aI4
aI2
aI1
aI1
aI1
aI1
aI1
aI5
aI3
aI1
aI1
aI3
aI1
aI1
aI1
aI1
aI1
aI1
aI1
aI1
aI1
aI1
aI3
aI2
aI1
aI1
aI39
aI1
aI1
aI1
aI2
aI1
aI1
aI1
aI113
aI1
aI1
aI1
aI1
aI2
aI1
aI1
aI217
aI2
aI1
aI1
aI1
aI1
aI1
aI3
aI1
aI1
aI1
aI1
aI1
aI1
aI1
aI5
aI1
aI1
aI1
aI1
aI2
aI1
aI1
aI1
aI1
aI16
aI8
aI2
aI1
aI2
aI1
aI1
aI6
aI1
aI1
aI1
aI1
aI1
aI2
aI2
aI1
aI1
aI3
aI1
aI6
aI3
aI1
aI1
aI1
aI1
aI4
aI1
aI2
aI1
aI1
aI2
aI1
aI2
aI1
aI3
aI3
aI1
aI1
aI1
aI2
aI1
aI1
aI3
aI1
aI1
aI1
aI1
aI1
aI1
aI1
aI1
aI1
aI1
aI7
aI12
aI1
aI2
aI2
aI5
aI5
aI1
aI1
aI1
aI1
aI1
aI1557
aI15
aI1
aI1
aI1
aI1
aI6
aI1
aI1
aI2
aI1
aI2
aI1
aI1
aI2
aI1
aI1
aI1
aI5
aI3
aI1
aI1
aI2
aI1
aI1
aI1
aI1
aI1
aI2
aI1
aI2
aI1
aI1
aI1
aI1
aI1
aI1
aI3
aI1
aI2
aI25
aI1
aI1
aI1
aI8
aI2
aI1
aI1
aI1
aI1
aI2
aI1
aI1
aI1
aI2
aI1
aI1
aI2
aI1
aI2
aI2
aI1
aI3
aI1
aI1
aI1
aI2
aI1
aI1
aI1
aI2
aI1
aI1
aI4
aI2
aI1
aI1
aI1
aI2
aI1
aI2
aI1
aI1
aI7
aI1
aI1
aI3
aI1
aI3
aI2
aI1
aI1
aI1
aI1
aI5
aI1
aI10
aI1
aI80
aI1
aI1
aI1
aI1
aI1
aI2
aI2
aI186
aI1
aI1
aI1
aI1
aI1
aI10
aI3
aI2
aI6
aI2
aI2
aI1
aI1
aI1
aI1
aI1
aI1
aI1
aI1
aI1
aI2
aI1
aI4
aI3
aI1
aI1
aI2
aI1
aI98
aI1
aI77
aI3
aI2
aI1
aI1
aI1
aI1
aI1
aI2
aI4
aI1
aI1
aI1
aI7
aI2
aI1
aI2
aI1
aI1
aI1
aI2
aI1
aI1
aI1
aI1
aI1
aI1
aI2
aI1
aI3
aI2
aI4
aI1
aI1
aI1
aI2
aI1
aI1
aI2
aI16
aI1
aI3
aI1
aI2
aI1
aI1
aI1
aI4
aI1
aI1
aI1
aI21
aI2
aI2
aI1
aI1
aI2
aI1
aI2
aI1
aI1
aI4
aI1
aI1
aI2
aI5
aI2
aI1
aI1
aI3
aI1
aI8
aI1
aI3
aI1
aI1
aI1
aI1
aI1
aI1
aI1
aI10
aI1
aI1
aI1
aI1
aI1
aI5
aI2
aI1
aI10
aI1
aI1
aI1
aI1
aI2
aI1
aI1
aI1
aI1
aI8
aI1
aI10
aI2
aI1
aI1
aI1
aI1
aI2
aI1
aI1
aI3
aI1
aI75
aI2
aI2
aI2
aI1
aI1
aI1
aI1
aI1
aI1
aI436
aI1
aI1
aI3
aI1
aI1
aI1
aI1
aI1
aI1
aI1
aI2
aI5
aI1
aI1
aI63
aI2
aI2
aI2
aI1
aI4
aI8
aI7
aI1
aI1
aI3
aI1
aI1
aI1
aI1
aI1
aI2
aI1
aI2
aI1
aI1
aI1
aI1
aI1
aI1
aI1
aI1
aI1
aI2
aI3
aI1
aI2
aI1
aI1
aI3
aI5
aI2
aI1
aI1
aI1
aI1
aI1
aI1
aI1
aI1
aI1
aI1
aI1
aI741
aI1
aI1
aI7
aI3
aI2
aI1
aI2
aI6
aI1
aI1
aI1
aI1
aI1
aI1
aI1
aI1
aI1
aI1
aI1
aI1
aI1
aI1
aI1
aI1
aI1
aI3
aI1
aI4
aI1
aI1
aI1
aI1
aI1
aI2
aI3
aI1
aI1
aI1
aI1
aI2
aI1
aI1
aI1
aI1
aI1
aI3
aI1
aI2
aI1
aI1
aI29
aI1
aI1
aI2
aI1
aI1
aI1
aI3
aI1
aI1
aI28
aI1
aI1
aI1
aI1
aI1
aI5
aI6
aI1
aI2
aI4
aI1
aI1
aI4
aI1
aI1
aI2
aI1
aI2
aI19
aI1
aI2
aI2
aI1
aI4
aI1
aI2
aI1
aI1
aI1
aI1
aI1
aI1
aI462
aI1
aI1
aI7
aI1
aI1
aI11
aI2
aI1
aI1
aI313
aI1
aI1
aI1
aI1
aI1
aI9
aI4
aI5
aI2
aI1
aI7
aI1
aI2
aI2
aI3
aI3
aI1
aI1
aI2
aI1
aI1
aI11
aI1
aI1
aI1
aI6
aI1
aI2
aI1
aI3
aI3
aI3
aI1
aI1
aI2
aI2
aI2
aI2
aI1
aI1
aI1
aI2
aI12
aI2
aI1
aI1
aI13
aI1
aI1
aI1
aI1
aI1
aI2
aI15
aI2
aI1
aI3
aI5
aI1
aI1
aI1
aI1
aI1
aI1
aI1
aI1
aI1
aI1
aI1
aI2
aI1
aI1
aI1
aI1
aI2
aI1
aI1
aI1
aI3
aI1
aI1
aI1
aI2
aI1
aI1
aI1
aI2
aI1
aI3
aI4
aI2
aI2
aI1
aI1
aI1
aI1
aI3
aI1
aI1
aI1
aI5
aI3
aI1
aI1
aI2
aI1
aI2
aI1
aI1
aI1
aI3
aI1
aI3
aI1
aI7
aI3
aI1
aI1
aI1
aI1
aI1
aI1
aI1
aI1
aI5
aI1
aI1
aI1
aI1
aI1
aI4
aI1
aI1
aI3
aI1
aI2
aI1
aI2
aI1
aI1
aI1
aI1
aI1
aI1
aI1
aI4
aI1
aI1
aI1
aI7
aI1
aI7
aI1
aI1
aI1
aI1
aI6
aI1
aI7
aI1
aI1
aI1
aI1
aI1
aI71
aI3
aI1
aI6
aI1
aI1
aI1
aI3
aI1
aI1
aI1
aI1
aI1
aI1
aI2
aI3
aI1
aI1
aI1
aI10
aI13
aI1
aI1
aI2
aI1
aI1
aI6
aI1
aI2
aI2
aI1
aI1
aI1
aI1
aI2
aI3
aI1
aI1
aI1
aI3
aI147
aI1
aI1
aI1
aI1
aI1
aI3
aI1
aI1
aI1
aI10
aI2
aI2
aI2
aI1
aI1
aI2
aI1
aI1
aI1
aI1
aI1
aI3
aI2
aI1
aI1
aI2
aI3
aI1
aI1
aI1
aI1
aI1
aI1
aI1
aI385
aI1
aI1
aI1
aI1
aI1
aI1
aI6
aI19
aI1
aI1
aI2
aI2
aI1
aI4
aI1
aI2
aI1
aI5
aI1
aI1
aI1
aI1
aI1
aI4
aI1
aI1
aI1
aI1
aI1
aI1
aI1
aI1
aI1
aI1
aI1
aI55
aI2
aI3
aI1
aI1
aI15
aI1
aI2
aI4
aI7
aI1
aI1
aI8
aI1
aI1
aI224
aI1
aI2
aI1
aI1
aI1
aI95
aI1
aI1
aI1
aI1
aI2
aI1
aI1
aI2
aI4
aI1
aI1
aI1
aI2
aI162
aI1
aI1
aI1
aI1
aI1
aI2
aI1
aI2
aI1
aI3
aI1
aI3
aI26
aI2
aI1
aI1
aI1
aI1
aI1
aI1
aI6
aI1
aI1
aI9
aI2
aI1
aI1
aI5
aI1
aI1
aI3
aI1
aI5
aI1
aI1
aI1
aI1
aI1
aI6
aI33
aI1
aI1
aI2
aI1
aI1
aI3
aI2
aI1
aI1
aI1
aI1
aI1
aI1
aI1
aI5
aI1
aI1
aI3
aI1
aI1
aI1
aI1
aI2
aI1
aI2
aI1
aI1
aI48
aI1
aI1
aI1
aI1
aI1
aI2
aI2
aI1
aI1
aI1
aI1
aI1
aI6
aI4
aI1
aI1
aI1
aI1
aI1
aI8
aI1
aI1
aI1
aI1
aI16
aI3
aI1
aI18
aI1
aI1
aI6
aI1
aI1
aI1
aI1
aI1
aI4
aI1
aI2
aI2
aI1
aI1
aI1
aI1
aI1
aI1
aI1
aI4
aI10
aI1
aI1
aI1
aI20
aI1
aI1
aI1
aI7
aI4
aI1
aI30
aI3
aI5
aI5
aI1
aI1
aI1
aI1
aI1
aI1
aI1
aI1
aI6
aI3
aI1
aI1
aI27
aI1
aI1
aI3
aI1
aI7
aI1
aI1
aI1
aI1
aI1
aI1
aI1
aI1
aI1
aI1
aI1
aI1
aI1
aI5
aI1
aI1
aI1
aI1
aI1
aI1
aI1
aI1
aI1
aI17
aI1
aI1
aI1
aI1
aI1
aI1
aI1
aI2
aI1
aI1
aI1
aI10
aI1
aI1
aI4
aI1
aI1
aI1
aI1
aI1
aI1
aI1
aI1
aI1
aI2
aI1
aI1
aI1
aI3
aI1
aI1
aI1
aI1
aI1
aI1
aI1
aI1
aI6
aI1
aI1
aI1
aI1
aI1
aI1
aI1
aI1
aI1
aI1
aI1
aI1
aI1
aI4
aI8
aI2
aI2
aI2
aI1
aI1
aI2
aI1
aI8
aI1
aI1
aI1
aI1
aI6
aI2
aI1
aI1
aI1
aI1
aI1
aI8
aI1
aI1
aI1
aI1
aI1
aI1
aI1
aI1
aI9
aI1
aI17
aI1
aI1
aI1
aI1
aI2
aI1
aI2
aI1
aI1
aI1
aI2
aI1
aI1
aI1
aI1
aI1
aI174
aI1
aI1
aI38
aI1
aI1
aI1
aI3
aI1
aI2
aI1
aI15
aI1
aI2
aI1
aI2
aI1
aI1
aI1
aI1
aI1
aI1
aI4
aI4
aI1
aI1
aI1
aI1
aI4
aI1
aI7
aI11
aI2
aI3
aI1
aI4
aI2
aI1
aI2
aI1
aI1
aI1
aI1
aI25
aI2
aI3
aI1
aI1
aI1
aI1
aI3
aI1
aI2
aI1
aI3
aI2
aI2
aI1
aI1
aI1
aI1
aI1
aI1
aI1
aI1
aI1
aI1
aI1
aI7
aI1
aI3
aI3
aI1
aI1
aI1
aI2
aI1
aI1
aI1
aI1
aI1
aI8
aI1
aI2
aI11
aI1
aI1
aI17
aI3
aI1
aI1
aI1
aI1
aI11
aI1
aI1
aI5
aI6
aI3
aI1
aI1
aI1
aI1
aI1
aI1
aI1
aI1
aI1
aI1
aI1
aI1
aI1
aI9
aI1
aI3
aI1
aI2
aI1
aI3
aI2
aI1
aI1
aI2
aI1
aI1
aI1
aI6
aI1
aI5
aI1
aI1
aI1
aI2
aI16
aI1
aI2
aI1
aI1
aI2
aI1
aI1
aI1
aI1
aI6
aI6
aI1
aI1
aI1
aI1
aI5
aI1
aI13
aI2
aI6
aI1
aI2
aI1
aI1
aI1
aI1
aI1
aI1
aI4
aI1
aI4
aI10
aI1
aI1
aI1
aI1
aI5
aI1
aI1
aI1
aI1
aI3
aI1
aI25
aI2
aI36
aI2
aI2
aI1
aI2
aI1
aI1
aI1
aI1
aI1
aI1
aI1
aI4
aI2
aI1
aI1
aI1
aI1
aI1
aI5
aI2
aI2
aI1
aI1
aI1
aI1
aI1
aI1
aI2
aI1
aI1
aI3
aI1
aI1
aI5
aI13
aI1
aI4
aI1
aI1
aI1
aI1
aI1
aI1
aI1
aI1
aI1
aI1
aI1
aI1
aI1
aI1
aI1
aI1
aI1
aI1
aI1
aI1
aI7
aI4
aI1
aI1
aI2
aI8
aI1
aI1
aI1
aI2
aI1
aI1
aI1
aI1
aI1
aI2
aI1
aI4
aI1
aI3
aI2
aI1
aI1
aI1
aI1
aI1
aI1
aI2
aI1
aI2
aI1
aI3
aI1
aI1
aI3
aI1
aI1
aI2
aI1
aI3
aI1
aI1
aI8
aI1
aI1
aI1
aI1
aI1
aI1
aI1
aI3
aI4
aI6
aI2
aI3
aI2
aI52
aI1
aI1
aI1
aI1
aI2
aI1
aI3
aI1
aI1
aI1
aI1
aI2
aI3
aI1
aI1
aI206
aI4
aI1
aI1
aI1
aI1
aI1
aI1
aI2
aI1
aI1
aI2
aI1
aI2
aI1
aI1
aI1
aI1
aI1
aI1
aI1
aI1
aI2
aI1
aI1
aI1
aI1
aI1
aI1
aI1
aI1
aI1
aI1
aI1
aI1255
aI1
aI1
aI1
aI1
aI1
aI1
aI1
aI1
aI6
aI2
aI1
aI4
aI2
aI2
aI1
aI1
aI1
aI2
aI2
aI1
aI1
aI3
aI1
aI1
aI2
aI2
aI1
aI1
aI1
aI4
aI1
aI2
aI1
aI1
aI1
aI2
aI1
aI4
aI1
aI1
aI1
aI1
aI1
aI3
aI1
aI14
aI1
aI1
aI1
aI1
aI2
aI1
aI13
aI1
aI1
aI2
aI2
aI2
aI1
aI3
aI26
aI12
aI1
aI3
aI1
aI89
aI11
aI13
aI4
aI74
aI2
aI1
aI5
aI1
aI1
aI17
aI1
aI2
aI5
aI1
aI1
aI1
aI8
aI1
aI1
aI1
aI22
aI2
aI2
aI1
aI3
aI1
aI1
aI1
aI3
aI1
aI5
aI1
aI2
aI1
aI1
aI1
aI1
aI1
aI3
aI17
aI1
aI3
aI1
aI2
aI1
aI1
aI1
aI2
aI1
aI1
aI1
aI1
aI1
aI1
aI1
aI5
aI1
aI1
aI1
aI1
aI2
aI3
aI2
aI1
aI1
aI2
aI4
aI128
aI1
aI3
aI6
aI1
aI1
aI1
aI1
aI1
aI1
aI1
aI1
aI1
aI1
aI1
aI3
aI1
aI1
aI1
aI3
aI2
aI9
aI1
aI1
aI7
aI3
aI1
aI1
aI2
aI1
aI1
aI2
aI1
aI1
aI1
aI2
aI1
aI5
aI1
aI1
aI3
aI1
aI1
aI1
aI1
aI16
aI3
aI1
aI5
aI1
aI1
aI3
aI20
aI1
aI1
aI1
aI1
aI1
aI1
aI1
aI1
aI1
aI9
aI1
aI1
aI2
aI1
aI2
aI1
aI6
aI1
aI1
aI2
aI1
aI1
aI1
aI3
aI1
aI1
aI1
aI1
aI3
aI1
aI2
aI1
aI1
aI2
aI10
aI80
aI1
aI1
aI47
aI1
aI1
aI1
aI1
aI1
aI1
aI1
aI1
aI1
aI1
aI1
aI1
aI1
aI2
aI1
aI1
aI1
aI1
aI83
aI1
aI1
aI1
aI1
aI1
aI1
aI1
aI25
aI1
aI1
aI1
aI1
aI1
aI2
aI1
aI1
aI1
aI1
aI1
aI1
aI1
aI1
aI1
aI1
aI1
aI1
aI1
aI1
aI1
aI1
aI1
aI2
aI1
aI3
aI1
aI2
aI19
aI3
aI1
aI1
aI1
aI1
aI1
aI2
aI1
aI2
aI1
aI1
aI1
aI1
aI1
aI1
aI3
aI1
aI1
aI1
aI1
aI1
aI1
aI1
aI1
aI2
aI1
aI3
aI1
aI1
aI1
aI1
aI3
aI14
aI5
aI1
aI1
aI3
aI1
aI1
aI1
aI1
aI1
aI1
aI1
aI1
aI1
aI1
aI1
aI1
aI1
aI1
aI1
aI1
aI2
aI1
aI1
aI1
aI1
aI1
aI1
aI1
aI3
aI1
aI1
aI1
aI1
aI1
aI1
aI4
aI1
aI1
aI2
aI11
aI1
aI1
aI2
aI1
aI1
aI3
aI3
aI1
aI4
aI1
aI1
aI1
aI7
aI2
aI3
aI61
aI4
aI1
aI1
aI1
aI2
aI5
aI13
aI3
aI2
aI2
aI1
aI2
aI1
aI9
aI3
aI1
aI1
aI1
aI210
aI12
aI1
aI6
aI1
aI1
aI1
aI4
aI1
aI1
aI1
aI1
aI1
aI1
aI1
aI1
aI2
aI1
aI1
aI2
aI3
aI1
aI1
aI1
aI1
aI4
aI1
aI5
aI1
aI1
aI2
aI1
aI1
aI1
aI1
aI1
aI24
aI1
aI9
aI4
aI1
aI1
aI13
aI1
aI1
aI2
aI1
aI1
aI1
aI1
aI1
aI1
aI13
aI13
aI1
aI1
aI2
aI1
aI1
aI1
aI1
aI2
aI1
aI1
aI1
aI1
aI3
aI1
aI1
aI1
aI30
aI9
aI1
aI1
aI7
aI3
aI1
aI1
aI7
aI17
aI1
aI1
aI2
aI1
aI1
aI3
aI2
aI1
aI1
aI1
aI6
aI1
aI1
aI1
aI4
aI1
aI1
aI2
aI1
aI1
aI11
aI1
aI1
aI3
aI3
aI1
aI3
aI1
aI3
aI1
aI3
aI2
aI1
aI165
aI1
aI1
aI1
aI1
aI1
aI1
aI1
aI2
aI2
aI1
aI1
aI1
aI2
aI1
aI1
aI1
aI2
aI4
aI2
aI1
aI1
aI1
aI16
aI1
aI2
aI1
aI1
aI2
aI1
aI1
aI118
aI1
aI2
aI15
aI1
aI1
aI1
aI22
aI1
aI2
aI1
aI3
aI3
aI1
aI2
aI2
aI2
aI1
aI1
aI2
aI2
aI1
aI115
aI1
aI1
aI1
aI2
aI1
aI1
aI1
aI1
aI2
aI1
aI1
aI1
aI1
aI1
aI1
aI59
aI13
aI1
aI1
aI27
aI2
aI1
aI1
aI1
aI6
aI2
aI1
aI2
aI13
aI1
aI3
aI3
aI25
aI1
aI11
aI2
aI18
aI5
aI1
aI1
aI1
aI2
aI2
aI1
aI1
aI1
aI3
aI1
aI2
aI1
aI1
aI1
aI2
aI2
aI1
aI3
aI2
aI1
aI1
aI2
aI2
aI3
aI1
aI8
aI1
aI1
aI1
aI3
aI1
aI1
aI1
aI1
aI1
aI1
aI1
aI1
aI1
aI1
aI2
aI4
aI8
aI2
aI1
aI25
aI2
aI1
aI1
aI2
aI1
aI2
aI6
aI1
aI1
aI1
aI1
aI1
aI1
aI1
aI24
aI1
aI1
aI1
aI2
aI1
aI1
aI2
aI1
aI3
aI1
aI1
aI1
aI1
aI1
aI1
aI1
aI1
aI2
aI1
aI3
aI1
aI1
aI1
aI1
aI2
aI1
aI1
aI3
aI7
aI1
aI3
aI1
aI2
aI1
aI1
aI2
aI1
aI1
aI1
aI1
aI3
aI1
aI1
aI1
aI1
aI1
aI1
aI439
aI1
aI1
aI1
aI2
aI1
aI3
aI3
aI1
aI1
aI1
aI8
aI1
aI2
aI1
aI1
aI15
aI1
aI2
aI1
aI1
aI6
aI1
aI2
aI1
aI1
aI3
aI1
aI2
aI1
aI1
aI1
aI1
aI4
aI5
aI1
aI1
aI1
aI1
aI1
aI1
aI3
aI1
aI1
aI1
aI2
aI2
aI1
aI6248
aI1
aI2
aI1
aI1
aI2
aI2
aI17
aI2
aI1
aI1
aI1
aI1
aI1
aI4
aI1
aI1
aI2
aI1
aI1
aI1
aI1
aI1
aI1411
aI9
aI1
aI1
aI3
aI1
aI1
aI1
aI2
aI1
aI1
aI198
aI1
aI1
aI4
aI3
aI1
aI5
aI2
aI1
aI1
aI1
aI1
aI1
aI1
aI2
aI2
aI1
aI2
aI1
aI1
aI4
aI1
aI1
aI1
aI1
aI1
aI1
aI3
aI1
aI1
aI2
aI2
aI2
aI4
aI1
aI1
aI30
aI2
aI1
aI1
aI8
aI1
aI2
aI8
aI1
aI1
aI1
aI1
aI256
aI90
aI1
aI1
aI3
aI1
aI1
aI1
aI1
aI1
aI1
aI1
aI2
aI225
aI1
aI1
aI1
aI1
aI1
aI4
aI1
aI1
aI9
aI2
aI1
aI2
aI1
aI1
aI1
aI2
aI1
aI1
aI1
aI1
aI1
aI2
aI1
aI1
aI30
aI1
aI1
aI3
aI1
aI36
aI1
aI1
aI2
aI1
aI1
aI1
aI1
aI1
aI2
aI2
aI1
aI12
aI1
aI1
aI1
aI7
aI2
aI1
aI2
aI1
aI1
aI2
aI2
aI1
aI1
aI5
aI7
aI1
aI5
aI1
aI1
aI1
aI1
aI1
aI1
aI1
aI1
aI1
aI1
aI1
aI1
aI1
aI8
aI2
aI6
aI1
aI2
aI1
aI1
aI1
aI1
aI1
aI1
aI1
aI1
aI4
aI1
aI1
aI2
aI1
aI1
aI1
aI1
aI5
aI2
aI1
aI1
aI1
aI1
aI1
aI1
aI1
aI2
aI3
aI4
aI1
aI1
aI1
aI1
aI5
aI1
aI1
aI1
aI1
aI1
aI1
aI2
aI1
aI1
aI1
aI22
aI1
aI1
aI1
aI1
aI15
aI1
aI1
aI2
aI1
aI17
aI55
aI12
aI16
aI1
aI1
aI2
aI2
aI1
aI1
aI1
aI1
aI1
aI1
aI4
aI1
aI1
aI2
aI1
aI1
aI1
aI3
aI1
aI1
aI4
aI1
aI1
aI1
aI2
aI2
aI1
aI1
aI3
aI1
aI1
aI7
aI1
aI1
aI1
aI1
aI1
aI1
aI1
aI5
aI1
aI2
aI2
aI1
aI1
aI1
aI2
aI8
aI1
aI1
aI1
aI1
aI1
aI1
aI1
aI1
aI1
aI1
aI1
aI1
aI1
aI1
aI3
aI1
aI1
aI2
aI1
aI2
aI1
aI1
aI1
aI1
aI3
aI1
aI1
aI3
aI1
aI1
aI1
aI2
aI2
aI1
aI1
aI1
aI1
aI1
aI2
aI1
aI1
aI1
aI1
aI3
aI2
aI1
aI1
aI1
aI1
aI1
aI3
aI1
aI5
aI1
aI1
aI1
aI1
aI2
aI4
aI5
aI1
aI1
aI1
aI2
aI3
aI1
aI1
aI1
aI1
aI1
aI3
aI1
aI1
aI1
aI1
aI6
aI1
aI1
aI1
aI1
aI6
aI2
aI2
aI10
aI1
aI32
aI1
aI21
aI1
aI9
aI1
aI1
aI1
aI3
aI1
aI1
aI2
aI3
aI13
aI1
aI1
aI1
aI1
aI2
aI1
aI1
aI58
aI1
aI1
aI1
aI1
aI1
aI14
aI2
aI2
aI1
aI1
aI1
aI1
aI1
aI2
aI1
aI1
aI1
aI6
aI4
aI2
aI1
aI2
aI2
aI1
aI1
aI2
aI1
aI4
aI1
aI1
aI55
aI2
aI1
aI1
aI2
aI1
aI1
aI1
aI1
aI1
aI1
aI1
aI3
aI1
aI1
aI2
aI1
aI1
aI1
aI2
aI2
aI1
aI1
aI1
aI1
aI2
aI1
aI1
aI1
aI2
aI2
aI1
aI1
aI1
aI7
aI1
aI2
aI1
aI2
aI1
aI1
aI1
aI1
aI25
aI1
aI1
aI1
aI1
aI1
aI1
aI1
aI1
aI1
aI1
aI1
aI1
aI1
aI1
aI1
aI1
aI1
aI1
aI1
aI1
aI1
aI1
aI1
aI9
aI1
aI1
aI1
aI2
aI1
aI1
aI1
aI207
aI22
aI1
aI1
aI3
aI1
aI1
aI1
aI1
aI1
aI2
aI1
aI1
aI2
aI1
aI14
aI2
aI2
aI1
aI1
aI1
aI1
aI2
aI1
aI2
aI1
aI1
aI1
aI4
aI4
aI4
aI1
aI1
aI1
aI1
aI2
aI1
aI1
aI2
aI1
aI2
aI2
aI3
aI1
aI1
aI1
aI2
aI1
aI1
aI1
aI2
aI1
aI1
aI1
aI1
aI1
aI50
aI2
aI2
aI14
aI4
aI1
aI1
aI1
aI1
aI1
aI1
aI55
aI1
aI1
aI1
aI2
aI1
aI1
aI1
aI1
aI1
aI1
aI6
aI2
aI2
aI1
aI1
aI1
aI12
aI1
aI1
aI1
aI1
aI1
aI1
aI1
aI1
aI1
aI1
aI1
aI1
aI1
aI1
aI17
aI5
aI1
aI3
aI1
aI1
aI1
aI5
aI2
aI1
aI1
aI1
aI2
aI1
aI1
aI6
aI1
aI1
aI1
aI2
aI1
aI1
aI2
aI2
aI1
aI1
aI4
aI1
aI1
aI1
aI1
aI3
aI1
aI1
aI2
aI1
aI1
aI1
aI1
aI2
aI1
aI1
aI1
aI1
aI1
aI2
aI1
aI1
aI3
aI1
aI60
aI1
aI1
aI1
aI4
aI1
aI1
aI2
aI2
aI4
aI1
aI1
aI4
aI1
aI1
aI1
aI1
aI1
aI3
aI2
aI2
aI1
aI1
aI1
aI1
aI1
aI1
aI1
aI1
aI2
aI2
aI11
aI1
aI5
aI2
aI1
aI1
aI2
aI1
aI1
aI3
aI1
aI1
aI1
aI1
aI1
aI1
aI1
aI15
aI1
aI1
aI1
aI1
aI1
aI1
aI3
aI1
aI1
aI106
aI1
aI3
aI1
aI1
aI8
aI1
aI1
aI3
aI1
aI1
aI35
aI1
aI1
aI1
aI1
aI1
aI3
aI17
aI1
aI1
aI1
aI1
aI1
aI1
aI1
aI1
aI1
aI1
aI6
aI1
aI2
aI2
aI2
aI1
aI1
aI1
aI1
aI3
aI1
aI1
aI2
aI1
aI2
aI1
aI7
aI1
aI1
aI2
aI11
aI1
aI5
aI4
aI10
aI1
aI1
aI1
aI1
aI1
aI11
aI1
aI1
aI1
aI2
aI1
aI9
aI1
aI1
aI1
aI2
aI20
aI1
aI1
aI1
aI1
aI1
aI1
aI1
aI1
aI2
aI1
aI3
aI1
aI2
aI1
aI1
aI1
aI3
aI1
aI1
aI1
aI4
aI1
aI1
aI1
aI1
aI2
aI2
aI1
aI1
aI1
aI1
aI4
aI1
aI1
aI1
aI2
aI1
aI1
aI3
aI1
aI1
aI3
aI20
aI2
aI1
aI1
aI1
aI1
aI1
aI1
aI1
aI2
aI1
aI1
aI1
aI1
aI3
aI1
aI1
aI1
aI1
aI3
aI6
aI1
aI1
aI1
aI1
aI1
aI1
aI1
aI1
aI1
aI1
aI1
aI1
aI1
aI1
aI1
aI11
aI1
aI1
aI1
aI1
aI1
aI1
aI17
aI1
aI1
aI2
aI2
aI1
aI1
aI1
aI1
aI2
aI1
aI1
aI5
aI2
aI1
aI2
aI1
aI1
aI1
aI1
aI1
aI24
aI23
aI1
aI1
aI1
aI1
aI1
aI1
aI1
aI1
aI1
aI1
aI1
aI1
aI5
aI1
aI1
aI1
aI2
aI1
aI1
aI5
aI1
aI1
aI1
aI1
aI1
aI1
aI1
aI3
aI1
aI1
aI1
aI1
aI2
aI2
aI1
aI7
aI1
aI1
aI1
aI3
aI68
aI1
aI1
aI1
aI1
aI2
aI2
aI1
aI1
aI1
aI1
aI1
aI1
aI2
aI2
aI1
aI2
aI20
aI4
aI1
aI1
aI24
aI1
aI1
aI1
aI1
aI1
aI1
aI4
aI2
aI1
aI1
aI2
aI1
aI1
aI1
aI1
aI1
aI1
aI3
aI2
aI2
aI96
aI1
aI1
aI24
aI1
aI7
aI2
aI1
aI1
aI1
aI1
aI1
aI7
aI1
aI1
aI7
aI1
aI10
aI1
aI1
aI1
aI1
aI2
aI1
aI5
aI1
aI1
aI1
aI16
aI1
aI2
aI1
aI14
aI1
aI1
aI1
aI1
aI28
aI1
aI4
aI1
aI1
aI1
aI1
aI1
aI1
aI1
aI1
aI1
aI1
aI1
aI5
aI1
aI1
aI3
aI1
aI2
aI6
aI1
aI1
aI2
aI1
aI1
aI1
aI1
aI1
aI3
aI1
aI1
aI1
aI2
aI1
aI11
aI1
aI1
aI3
aI10
aI2
aI1
aI13
aI1
aI1
aI1
aI2
aI2
aI22
aI1
aI1
aI2
aI1
aI1
aI6
aI1
aI1
aI1
aI1
aI1
aI2
aI1
aI8
aI1
aI3
aI1
aI1
aI5
aI1
aI1
aI1
aI2
aI1
aI1
aI1
aI7
aI1
aI1
aI1
aI1
aI1
aI1
aI1
aI1
aI1
aI1
aI1
aI1
aI5
aI1
aI1
aI4
aI2
aI2
aI2
aI2
aI1
aI4
aI1
aI9
aI1
aI1
aI1
aI1
aI1
aI1
aI1
aI10
aI1
aI1
aI1
aI1
aI1
aI1
aI1
aI1
aI1
aI1
aI1
aI1
aI1
aI1
aI23
aI1
aI1
aI1
aI1
aI1
aI8
aI1
aI1
aI1
aI1
aI7
aI2
aI1
aI1
aI1
aI1
aI1
aI1
aI1
aI1
aI1
aI2
aI1
aI1
aI1
aI1
aI1
aI3
aI1
aI1
aI1
aI2
aI1
aI2
aI1
aI7
aI1
aI12
aI63
aI1
aI1
aI1
aI1
aI2
aI7
aI1
aI2
aI17
aI1
aI5
aI1
aI1
aI1
aI1
aI1
aI3
aI1
aI1
aI1
aI2
aI1
aI4
aI1
aI1
aI1
aI11
aI1
aI1
aI2
aI29
aI3
aI1
aI1
aI1
aI1
aI1
aI421
aI1
aI1
aI2
aI2
aI1
aI1
aI1
aI2
aI1
aI1
aI28
aI1
aI1
aI1
aI1
aI1
aI6
aI2
aI1
aI1
aI2
aI2
aI1
aI1
aI1
aI1
aI1
aI2
aI1
aI1
aI3
aI2
aI2
aI10
aI1
aI1
aI1
aI1
aI1
aI1
aI1
aI1
aI1
aI1
aI8
aI2
aI1
aI1
aI1
aI1
aI1
aI1
aI1
aI1
aI4
aI4
aI1
aI1
aI3
aI3
aI1
aI1
aI2
aI2
aI2
aI1
aI1
aI1
aI1
aI1
aI1
aI1
aI1
aI1
aI1
aI1
aI1
aI1
aI1
aI7
aI1
aI4
aI1
aI1
aI12
aI1
aI2
aI4
aI1
aI1
aI15
aI15
aI2
aI2
aI56
aI1
aI1
aI1
aI4
aI1
aI1
aI1
aI11
aI1
aI1
aI1
aI1
aI1
aI1
aI1
aI1
aI1
aI1
aI1
aI1
aI1
aI1
aI20
aI1
aI1
aI1
aI2
aI1
aI1
aI1
aI1
aI2
aI1
aI10
aI1
aI1
aI1
aI1
aI13
aI15
aI3
aI1
aI1
aI3
aI1
aI1
aI1
aI17
aI1
aI3
aI1
aI2
aI2
aI2
aI65
aI25
aI2
aI1
aI1
aI1
aI14
aI1
aI6
aI1
aI1
aI1
aI2
aI1
aI1
aI6
aI1
aI34
aI1
aI1
aI3
aI1
aI2
aI1
aI1
aI1
aI1
aI1
aI1
aI1
aI1
aI3
aI1
aI1
aI9
aI1
aI13
aI1
aI1
aI1
aI1
aI1
aI1
aI42
aI1
aI1
aI2
aI2
aI1
aI8
aI1
aI1
aI1
aI31
aI1
aI7
aI1
aI2
aI1
aI2
aI1
aI2
aI1
aI1
aI2
aI1
aI1
aI24
aI1
aI15
aI1
aI15
aI2
aI1
aI1
aI1
aI1
aI1
aI7
aI1
aI1
aI1
aI1
aI3
aI3
aI1
aI4
aI1
aI2
aI1
aI1
aI1
aI1
aI1
aI1
aI1
aI3
aI5
aI1
aI1
aI1
aI2
aI1
aI1
aI476
aI1
aI1
aI1
aI1
aI1
aI4
aI2
aI131
aI2
aI2
aI1
aI1
aI1
aI3
aI1
aI1
aI1
aI1
aI1
aI1
aI1
aI1
aI2
aI1
aI1
aI1
aI1
aI1
aI1
aI1
aI1163
aI1
aI1
aI2
aI1
aI2
aI1
aI1
aI1
aI3
aI1
aI1
aI1
aI1
aI1
aI1
aI489
aI1
aI2
aI3
aI1
aI1
aI44
aI2
aI1
aI1
aI1
aI1
aI1
aI7
aI1
aI1
aI3
aI1
aI1
aI2
aI1
aI2
aI1
aI1
aI6
aI1
aI1
aI25
aI2
aI1
aI1
aI1
aI1
aI1
aI1
aI1
aI3
aI1
aI1
aI1
aI19
aI17
aI1
aI4
aI2
aI1
aI1
aI1
aI2
aI1
aI1
aI1
aI1
aI1
aI1
aI1
aI14
aI3
aI1
aI1
aI1
aI1
aI1
aI1
aI1
aI1
aI1
aI3
aI4
aI1
aI1
aI1
aI3
aI5
aI2
aI1
aI2
aI1
aI1
aI1
aI7
aI1
aI1
aI1
aI2
aI1
aI1
aI2
aI4
aI1
aI2
aI1
aI1
aI1
aI1
aI1
aI2
aI5
aI1
aI1
aI8
aI5
aI1
aI3
aI4
aI1
aI7
aI4
aI27
aI1
aI1
aI1
aI1
aI1
aI1
aI1
aI1
aI1
aI2
aI3
aI1
aI1
aI3
aI1
aI1
aI2
aI6
aI1
aI1
aI2
aI1
aI1
aI1
aI4
aI1
aI1
aI6
aI1
aI1
aI5
aI1
aI1
aI1
aI2
aI1
aI1
aI1
aI2
aI10
aI1
aI46
aI1
aI2
aI2
aI4
aI16
aI2
aI1
aI2
aI1
aI3
aI1
aI1
aI5
aI2
aI2
aI1
aI1
aI2
aI2
aI1
aI1
aI3
aI1
aI2
aI1
aI1
aI1
aI3
aI1
aI1
aI1
aI2
aI1
aI1
aI1
aI1
aI1
aI1
aI1
aI1
aI1
aI1
aI2
aI1
aI1
aI1
aI3
aI1
aI2
aI1
aI10
aI3
aI12
aI2
aI1
aI1
aI1
aI3
aI1
aI1
aI1
aI1
aI1
aI1
aI1
aI1
aI1
aI50
aI2
aI8
aI3
aI14
aI1
aI1
aI1
aI1
aI1
aI1
aI2
aI3
aI4
aI40
aI1
aI3
aI2
aI1
aI1
aI1
aI1
aI1
aI1
aI124
aI8
aI1
aI1
aI1
aI1
aI1
aI2
aI4
aI1
aI2
aI5
aI1
aI1
aI1
aI1
aI1
aI323
aI1
aI1
aI17
aI3
aI2
aI4
aI9
aI1
aI2
aI1
aI1
aI1
aI1
aI1
aI1
aI1
aI1
aI2
aI1
aI1
aI7
aI6
aI1
aI1
aI1
aI7
aI1
aI2
aI10
aI12
aI1
aI1
aI1
aI1
aI3
aI5
aI1
aI4
aI2
aI1
aI3
aI1
aI1
aI2
aI2
aI2
aI1
aI10
aI2
aI1
aI1
aI1
aI3
aI1
aI1
aI3
aI1
aI47
aI1
aI15
aI1
aI2
aI8
aI3
aI1
aI1
aI1
aI1
aI1
aI1
aI1
aI1
aI1
aI2
aI1
aI3
aI2
aI1
aI1
aI1
aI1
aI7
aI2
aI1
aI1
aI1
aI8
aI2
aI2
aI1
aI1
aI1
aI3
aI24
aI1
aI3
aI1
aI2
aI4
aI1
aI4
aI8
aI1
aI60
aI1
aI1
aI1
aI15
aI1
aI1
aI1
aI6
aI3
aI1
aI31
aI1
aI4
aI1
aI1
aI1
aI1
aI3
aI1
aI1
aI2
aI5
aI15
aI1
aI1
aI1
aI1
aI1
aI3
aI1
aI46
aI4
aI1
aI1
aI1
aI1
aI1
aI1
aI1
aI3
aI1
aI2
aI182
aI6
aI1
aI1
aI1
aI1
aI1
aI3
aI2
aI1
aI1
aI1
aI2
aI2
aI1
aI5
aI2
aI1
aI1
aI118
aI1
aI2
aI2
aI2
aI1
aI1
aI1
aI1
aI1
aI1
aI1
aI1
aI1
aI4
aI1
aI1
aI1
aI2
aI2
aI1
aI11
aI1
aI18
aI1
aI1
aI2
aI1
aI1
aI1
aI30
aI1
aI1
aI1
aI1
aI15
aI3
aI1
aI1
aI5
aI1
aI2
aI1
aI1
aI2
aI1
aI1
aI1
aI3
aI1
aI1
aI1
aI1
aI1
aI3
aI1
aI4
aI1
aI1
aI2
aI1
aI1
aI1
aI5
aI2
aI3
aI2
aI1
aI2
aI3
aI1
aI1
aI1
aI2
aI1
aI2
aI6
aI1
aI1
aI1
aI1
aI1
aI1
aI1
aI1
aI2
aI3
aI1
aI1
aI2
aI44
aI1
aI7
aI2
aI2
aI1
aI16
aI1
aI1
aI1
aI1
aI1
aI1
aI2
aI5
aI2
aI1
aI3
aI1
aI2
aI1
aI1
aI1
aI1
aI2
aI1
aI2
aI1
aI48
aI1
aI48
aI1
aI1
aI2
aI1
aI3
aI2
aI1
aI1
aI3
aI1
aI1
aI3
aI1
aI1
aI1
aI1
aI35
aI1
aI1
aI3
aI1
aI16
aI1
aI1
aI1
aI2
aI1
aI1
aI1
aI1
aI2
aI1
aI1
aI2
aI1
aI3
aI2
aI1
aI1
aI1
aI2
aI1
aI5
aI1
aI3
aI1
aI1
aI1
aI4
aI1
aI5
aI2
aI5
aI1
aI2
aI2
aI1
aI1
aI1
aI1
aI1
aI1
aI1
aI1
aI1
aI1
aI2
aI4
aI1
aI1
aI1
aI2
aI2
aI2
aI1
aI1
aI2
aI4
aI1
aI2
aI1
aI1
aI1
aI1
aI3
aI1
aI3
aI4
aI1
aI75
aI1
aI1
aI1
aI1
aI1
aI1
aI1
aI1
aI1
aI1
aI1
aI3
aI2
aI1
aI1
aI3
aI1
aI1
aI1
aI2
aI1
aI1
aI1
aI1
aI1
aI1
aI2
aI5
aI16
aI1
aI1
aI1
aI1
aI1
aI1
aI1
aI1
aI3
aI1
aI1
aI1
aI1
aI279
aI1
aI1
aI1
aI2
aI2
aI1
aI2
aI1
aI1
aI1
aI1
aI1
aI1
aI1
aI1
aI1
aI2
aI2
aI2
aI5
aI2
aI2
aI6
aI1
aI3
aI1
aI1
aI2
aI1
aI3
aI1
aI2
aI1
aI8
aI25
aI1
aI1
aI9
aI1
aI1
aI6
aI1
aI1
aI1
aI12
aI3
aI19
aI1
aI443
aI1
aI1
aI310
aI1
aI1
aI1
aI1
aI1
aI1
aI1
aI2
aI1
aI8
aI1
aI1
aI1
aI1
aI1
aI3
aI1
aI2
aI3
aI4
aI1
aI1
aI4
aI1
aI1
aI1
aI1
aI4
aI2
aI1
aI14
aI4
aI1
aI1
aI1
aI1
aI1
aI1
aI6
aI1
aI2
aI2
aI3
aI1
aI1
aI1
aI1
aI1
aI1
aI1
aI2
aI1
aI1
aI1
aI2
aI1
aI1
aI1
aI1
aI1
aI2
aI1
aI4
aI2
aI1
aI2
aI1
aI1
aI6
aI1
aI1
aI5
aI3
aI20
aI1
aI1
aI1
aI1
aI1
aI1
aI1
aI1
aI4
aI1
aI2
aI2
aI1
aI1
aI1
aI2
aI3
aI1
aI1
aI2
aI1
aI1
aI1
aI5
aI2
aI9
aI10
aI1
aI1
aI1
aI1
aI1
aI3
aI1
aI1
aI1
aI1
aI1
aI1
aI1
aI1
aI5
aI1
aI1
aI27
aI2
aI49
aI1
aI1
aI3
aI1
aI9
aI3
aI1
aI3
aI1
aI1
aI1
aI2
aI141
aI1
aI1
aI1
aI46
aI1
aI6
aI1
aI43
aI1
aI1
aI3
aI1
aI1
aI1
aI1
aI1
aI1
aI1
aI2
aI41
aI1
aI1
aI1
aI1
aI1
aI1
aI1
aI2
aI1
aI17
aI1
aI2
aI1
aI14
aI1
aI4
aI1
aI1
aI1
aI1
aI1
aI1
aI1
aI2
aI1
aI1
aI1
aI1
aI1
aI1
aI1
aI1
aI7
aI5
aI1
aI1
aI1
aI1
aI1
aI1
aI2
aI5
aI1
aI3
aI2
aI9
aI1
aI1
aI1
aI2
aI1
aI1
aI3
aI1
aI2
aI1
aI1
aI1
aI1
aI1
aI1
aI1
aI1
aI1
aI1
aI21
aI1
aI1
aI1
aI9
aI1
aI1
aI1
aI1
aI1
aI1
aI1
aI1
aI2
aI1
aI1
aI1
aI1
aI2
aI1
aI1
aI1
aI1
aI1
aI1
aI3
aI1
aI1
aI5
aI1
aI1
aI32
aI2
aI3
aI2
aI1
aI1
aI1
aI3
aI3
aI1
aI37
aI4
aI2
aI2
aI3
aI5
aI1
aI1
aI1
aI1
aI1
aI6
aI1
aI2
aI3
aI2
aI1
aI1
aI1
aI1
aI1
aI2
aI1
aI1
aI7
aI1
aI58
aI4
aI1
aI2
aI1
aI1
aI1
aI1
aI2
aI1
aI3
aI2
aI1
aI1
aI1
aI1
aI1
aI5
aI1
aI1
aI1
aI18
aI1
aI4
aI1
aI2
aI1
aI2
aI4
aI1
aI1
aI1
aI1
aI5
aI1
aI1
aI1
aI1
aI1
aI1
aI1
aI1
aI2
aI3
aI3
aI1
aI1
aI1
aI1
aI1
aI1
aI3
aI4
aI1
aI3
aI1
aI1
aI2
aI1
aI1
aI1
aI24
aI2
aI33
aI1
aI2
aI1
aI1
aI1
aI1
aI2
aI27
aI2
aI1
aI4
aI2
aI17
aI1
aI1
aI1
aI2
aI3
aI1
aI1
aI1
aI4
aI2
aI1
aI2
aI1
aI8
aI1
aI1
aI1
aI1
aI1
aI1
aI1
aI1
aI1
aI124
aI2
aI2
aI6
aI5
aI1
aI3
aI10
aI2
aI3
aI1
aI1
aI1
aI3
aI1
aI4
aI1
aI1
aI1
aI1
aI1
aI1
aI1
aI1
aI1
aI1
aI1
aI1
aI4
aI2
aI1
aI1
aI1
aI1
aI1
aI1
aI1
aI1
aI1
aI1
aI186
aI1
aI1
aI2
aI1
aI1
aI1
aI2
aI1
aI1
aI1
aI1
aI1
aI2
aI3
aI3
aI2
aI2
aI10
aI1
aI1
aI1
aI1
aI1
aI2
aI1
aI1
aI10
aI3
aI1
aI1
aI1
aI2
aI15
aI2
aI2
aI2
aI1
aI11
aI1
aI2
aI12
aI3
aI1
aI5
aI1
aI1
aI2
aI1
aI1
aI1
aI1
aI3
aI3
aI1
aI3
aI1
aI1
aI1
aI9
aI1
aI1
aI1
aI1
aI1
aI1
aI1
aI1
aI5
aI1
aI605
aI2
aI1
aI1
aI1
aI1
aI1
aI12
aI2
aI3
aI3
aI1
aI2
aI2
aI1
aI11
aI1
aI2
aI1
aI3
aI4
aI2
aI1
aI119
aI2
aI1
aI2
aI1
aI1
aI1
aI1
aI1
aI1
aI1
aI1
aI1
aI1
aI61
aI1
aI3
aI3
aI1
aI1
aI1
aI2
aI1
aI2
aI1
aI2
aI1
aI1
aI1
aI1
aI1
aI1
aI1
aI1
aI2
aI1
aI1
aI3
aI1
aI1
aI1
aI1
aI1
aI1
aI2
aI6
aI1
aI1
aI2
aI2
aI1
aI11
aI1
aI1
aI15
aI1
aI12
aI1
aI1
aI1
aI1
aI1
aI1
aI2
aI1
aI3
aI1
aI7
aI1
aI2
aI1
aI2
aI1
aI1
aI3
aI17
aI1
aI1
aI3
aI1
aI6
aI1
aI4
aI1
aI2
aI1
aI1
aI1
aI1
aI1
aI1
aI1
aI4
aI2
aI2
aI1
aI19
aI1
aI1
aI3
aI2
aI9
aI4
aI1
aI2
aI1
aI2
aI1
aI1
aI1
aI1
aI3
aI4
aI4
aI1
aI18
aI1
aI1
aI1
aI1
aI2
aI1
aI1
aI1
aI62
aI1
aI1
aI1
aI1
aI3
aI1
aI1
aI2
aI1
aI1
aI1
aI1
aI1
aI1
aI2
aI1
aI7
aI1
aI1
aI1
aI2
aI7
aI4
aI1
aI2
aI1
aI1
aI3
aI1
aI31
aI2
aI1
aI1
aI24
aI3
aI1
aI1
aI5
aI1
aI7
aI1
aI4
aI2
aI1
aI1
aI2
aI6
aI5
aI2
aI3
aI1
aI1
aI1
aI1
aI1
aI2
aI24
aI3
aI1
aI1
aI1
aI1
aI4
aI8
aI1
aI1
aI1
aI1
aI1
aI1
aI1
aI3
aI2
aI1
aI19
aI1
aI3
aI1
aI1
aI1
aI1
aI2
aI1
aI1
aI1
aI1
aI1
aI2
aI2
aI1
aI1
aI1
aI10
aI1
aI1
aI11
aI1
aI4
aI1
aI3
aI1
aI2
aI2
aI1
aI1
aI3
aI53
aI1
aI1
aI5
aI1
aI1
aI1
aI5
aI1
aI1
aI1
aI1
aI1
aI1
aI1
aI2
aI1
aI1
aI6
aI2
aI12
aI4
aI1
aI1
aI1
aI10
aI13
aI1
aI2
aI1
aI1
aI1
aI3
aI3
aI8
aI1
aI2
aI1
aI1
aI1
aI2
aI1
aI1
aI3
aI11
aI1
aI1
aI1
aI1
aI1
aI1
aI1
aI2
aI1
aI1
aI1
aI7
aI1
aI1
aI4
aI6
aI8
aI1
aI2
aI1
aI1
aI1
aI1
aI4
aI1
aI1
aI1
aI2
aI2
aI1
aI1
aI2
aI1
aI2
aI2
aI3
aI1
aI3
aI1
aI1
aI1
aI1
aI1
aI1
aI1
aI1
aI26
aI2
aI1
aI4
aI9
aI1
aI1
aI1
aI5
aI2
aI1
aI2
aI1
aI1
aI1
aI2
aI1
aI2
aI1
aI2
aI1
aI5
aI1
aI7
aI1
aI1
aI2
aI1
aI39
aI1
aI1
aI1
aI17
aI1
aI1
aI1
aI1
aI1
aI20
aI1
aI1
aI1
aI2
aI1
aI1
aI1
aI1
aI1
aI1
aI1
aI1
aI1
aI1
aI2
aI1
aI1
aI1
aI1
aI1
aI1
aI1
aI1
aI3
aI2
aI1
aI1
aI1
aI1
aI3
aI2
aI1
aI4
aI1
aI1
aI1
aI1
aI1
aI15
aI1
aI1
aI1
aI1
aI1
aI1
aI1
aI2
aI1
aI2
aI1
aI1
aI1
aI1
aI1
aI1
aI16
aI1
aI4
aI1
aI1
aI5
aI1
aI1
aI2
aI91
aI1
aI1
aI1
aI3
aI2
aI1
aI2
aI8
aI1
aI2
aI1
aI6
aI2
aI1
aI1
aI1
aI1
aI1
aI1
aI1
aI1
aI1
aI2
aI2
aI7
aI1
aI1
aI1
aI1
aI1
aI1
aI1
aI1
aI1
aI1
aI1
aI3
aI1
aI1
aI2
aI1
aI1
aI1
aI1
aI1
aI1
aI1
aI1
aI1
aI1
aI4
aI1
aI1
aI1
aI1
aI1
aI1
aI1
aI1
aI2
aI2
aI2
aI3
aI2
aI1
aI1
aI3
aI1
aI3
aI1
aI1
aI1
aI2
aI1
aI1
aI2
aI1
aI4
aI4
aI1
aI1
aI16
aI1
aI6
aI1
aI1
aI1
aI7
aI2
aI2
aI1
aI1
aI1
aI1
aI3
aI3
aI1
aI4
aI1
aI1
aI1
aI15
aI1
aI1
aI1
aI1
aI1
aI1
aI1
aI1
aI1
aI2
aI1
aI2
aI1
aI1
aI1
aI2
aI1
aI2
aI1
aI20
aI1
aI2
aI5
aI6
aI6
aI1
aI1
aI1
aI1
aI1
aI1
aI2
aI1
aI1
aI1
aI8
aI1
aI3
aI1
aI3
aI6
aI3
aI2
aI2
aI1
aI1
aI1
aI2
aI2
aI1
aI1
aI1
aI2
aI1
aI1
aI1
aI33
aI1
aI1
aI1
aI1
aI1
aI2
aI1
aI1
aI1
aI2
aI2
aI1
aI1
aI1
aI1
aI1
aI1
aI77
aI1
aI1
aI1
aI1
aI1
aI1
aI1
aI1
aI7
aI3
aI2
aI2
aI1
aI1
aI4
aI1
aI2
aI5
aI1
aI1
aI1
aI1
aI1
aI4
aI3
aI9
aI1
aI1
aI1
aI6
aI6
aI1
aI2
aI3
aI6
aI1
aI1
aI6
aI1
aI1
aI1
aI1
aI2
aI1
aI2
aI3
aI2
aI1
aI1
aI1
aI1
aI3
aI7
aI1
aI1
aI1
aI1
aI1
aI2
aI1
aI1
aI1
aI1
aI1
aI1
aI1
aI1
aI1
aI2
aI1
aI9
aI1
aI2
aI1
aI1
aI1
aI1
aI3
aI1
aI1
aI1
aI1
aI1
aI1
aI6
aI2
aI8
aI1
aI1
aI1
aI1
aI2
aI1
aI1
aI1
aI1
aI1
aI1
aI1
aI2
aI1
aI3
aI2
aI1
aI1
aI4
aI1
aI4
aI1
aI1
aI1
aI1
aI1
aI3
aI1
aI1
aI3
aI1
aI1
aI1
aI1
aI4
aI1
aI3
aI7
aI2
aI2
aI2
aI329
aI1
aI1
aI1
aI1
aI2
aI2
aI8
aI1
aI3
aI1
aI1
aI1
aI1
aI1
aI1
aI1
aI9
aI1
aI1
aI1
aI1
aI1
aI1
aI1
aI1
aI1
aI3
aI23
aI1
aI2
aI6
aI1
aI1
aI1
aI1
aI1
aI1
aI1
aI1
aI1
aI1
aI2
aI6
aI2
aI3
aI52
aI1
aI1
aI2
aI1
aI1
aI1
aI3
aI1
aI1
aI2
aI2
aI1
aI1
aI1
aI1
aI4
aI1
aI1
aI1
aI1
aI1
aI3
aI1
aI2
aI1
aI1
aI1
aI28
aI1
aI3
aI1
aI1
aI1
aI1
aI1
aI3
aI1
aI1
aI1
aI1
aI3
aI1
aI1
aI1
aI1
aI2
aI2
aI1
aI1
aI1
aI2
aI2
aI12
aI11
aI1
aI1
aI2
aI252
aI1
aI1
aI4
aI9
aI1
aI5
aI1
aI6
aI2
aI1
aI3
aI1
aI1
aI1
aI3
aI3
aI1
aI1
aI2
aI2
aI1
aI1
aI1
aI1
aI1
aI2
aI1
aI2
aI1
aI3
aI1
aI1
aI3
aI1
aI1
aI1
aI2
aI1
aI1
aI1
aI8
aI2
aI20
aI7
aI1
aI1
aI3
aI3
aI1
aI2
aI5
aI1
aI1
aI2
aI5
aI1
aI1
aI1
aI4
aI1
aI1
aI1
aI3
aI1
aI2
aI4
aI1
aI2
aI1
aI1
aI40
aI1
aI1
aI1
aI1
aI5
aI1
aI1
aI1
aI1
aI1
aI1
aI1
aI1
aI4
aI1
aI1
aI1
aI1
aI1
aI1
aI1
aI1
aI1
aI26
aI1
aI1
aI29
aI1
aI2
aI1
aI1
aI1
aI1
aI4
aI1
aI1
aI1
aI5
aI1
aI1
aI1
aI1
aI2
aI2
aI1
aI1
aI1
aI1
aI2
aI2
aI1
aI1
aI1
aI114
aI1
aI1
aI1
aI1
aI1
aI1
aI1
aI1
aI2
aI15
aI1
aI1
aI1
aI1
aI2
aI2
aI1
aI1
aI1
aI1
aI1
aI1
aI1
aI1
aI2
aI1
aI2
aI2
aI1
aI1
aI2
aI9
aI1
aI1
aI1
aI1
aI1
aI1
aI1
aI3
aI3
aI1
aI3
aI1
aI1
aI1
aI5
aI16
aI1
aI1
aI29
aI1
aI1
aI2
aI3
aI2
aI1
aI1
aI1
aI1
aI1
aI1
aI1
aI1
aI2
aI1
aI1
aI1
aI4
aI2
aI2
aI2
aI1
aI1
aI1
aI2
aI1
aI13
aI3
aI5
aI1
aI1
aI1
aI3
aI1
aI1
aI2
aI2
aI1
aI2
aI1
aI1
aI1
aI1
aI3
aI1
aI2
aI3
aI1
aI1
aI2
aI1
aI1
aI1
aI1
aI1
aI1
aI5
aI9
aI1
aI2
aI1
aI1
aI1
aI1
aI1
aI1
aI1
aI1
aI2
aI1
aI1
aI1
aI1
aI1
aI3
aI1
aI3
aI2
aI3
aI2
aI1
aI1
aI4
aI1
aI1
aI1
aI12
aI3
aI15
aI1
aI1
aI1
aI2
aI1
aI1
aI1
aI1
aI1
aI1
aI2
aI1
aI1
aI2
aI1
aI5
aI1
aI1
aI2
aI1
aI1
aI1
aI3
aI1
aI1
aI1
aI19
aI1
aI2
aI3
aI1
aI1
aI12
aI1
aI5
aI3
aI1
aI63
aI1
aI3
aI1
aI1
aI1
aI1
aI1
aI1
aI2
aI1
aI1
aI1
aI1
aI1
aI27
aI2
aI1
aI1
aI1
aI1
aI1
aI1
aI1
aI1
aI2
aI1
aI9
aI1
aI4
aI2
aI1
aI1
aI1
aI12
aI1
aI1
aI229
aI2
aI1
aI1
aI19
aI4
aI1
aI2
aI2
aI2
aI1
aI1
aI1
aI2
aI1
aI1
aI1
aI1
aI1
aI1
aI1
aI1
aI10
aI2
aI1
aI7
aI1
aI1
aI3
aI1
aI2
aI3
aI1
aI1
aI1
aI1
aI26
aI1
aI1
aI1
aI2
aI2
aI2
aI1
aI6
aI1
aI1
aI1
aI1
aI1
aI1
aI1
aI8
aI1
aI2
aI1
aI1
aI1
aI1
aI1
aI1
aI1
aI3
aI46
aI1
aI1
aI1
aI1
aI1
aI2
aI1
aI3
aI1
aI3
aI6
aI1
aI1
aI1
aI62
aI1
aI3
aI2
aI4
aI1
aI1
aI2
aI1
aI1
aI1
aI1
aI1
aI1
aI1
aI1
aI1
aI1
aI1
aI1
aI1
aI1
aI11
aI3
aI13
aI13
aI1
aI1
aI4
aI1
aI1
aI12
aI1
aI3
aI10
aI1
aI1
aI2
aI3
aI5
aI2
aI1
aI1
aI7
aI1
aI1
aI1
aI1
aI1
aI1
aI2
aI1
aI1
aI1
aI1
aI1
aI2
aI1
aI1
aI1
aI3
aI4
aI1
aI1
aI19
aI1
aI1
aI1
aI32
aI1
aI5
aI1
aI7
aI1
aI1
aI1
aI2
aI1
aI1
aI1
aI3
aI1
aI7
aI4
aI1
aI1
aI1
aI1
aI1
aI1
aI65
aI4
aI1
aI2
aI2
aI1
aI213
aI10
aI7
aI1
aI1
aI2
aI4
aI2
aI1
aI1
aI1
aI1
aI2
aI1
aI1
aI1
aI1
aI4
aI1
aI3
aI1
aI1
aI1
aI1
aI2
aI1
aI1
aI4
aI3
aI1
aI1
aI1
aI2
aI1
aI1
aI1
aI1
aI2
aI3
aI1
aI1
aI2
aI11
aI1
aI1
aI3
aI1
aI1
aI1
aI1
aI1
aI1
aI135
aI1
aI1
aI1
aI1
aI1
aI1
aI1
aI1
aI18
aI11
aI2
aI1
aI1
aI3
aI2
aI1
aI64
aI2
aI1
aI3
aI1
aI24
aI1
aI14
aI1
aI4
aI40
aI1
aI1
aI1
aI1
aI3
aI1
aI1
aI2
aI1
aI13
aI9
aI1
aI1
aI3
aI1
aI1
aI1
aI2
aI1
aI1
aI1
aI1
aI3
aI1
aI1
aI4
aI1
aI1
aI1
aI1
aI1
aI1
aI2
aI21
aI1
aI1
aI1
aI2
aI2
aI1
aI1
aI1
aI2
aI8
aI1
aI1
aI1
aI46
aI1
aI1
aI1
aI1
aI2
aI1
aI1
aI1
aI2
aI1
aI4
aI1
aI5
aI2
aI1
aI1
aI2
aI1
aI1
aI33
aI1
aI1
aI4
aI1
aI1
aI4
aI1
aI1
aI1
aI1
aI1
aI5
aI1
aI1
aI1
aI1
aI1
aI1
aI2
aI1
aI3
aI5
aI1
aI1
aI4
aI1
aI1
aI1
aI1
aI1
aI3
aI1
aI1
aI1
aI1
aI1
aI1
aI1
aI1
aI1
aI1
aI1
aI1
aI2
aI1
aI1
aI1
aI1
aI1
aI2
aI2
aI1
aI1
aI2
aI2
aI1
aI1
aI4
aI1
aI7
aI1
aI1
aI1
aI1
aI1
aI2
aI3
aI1
aI5
aI1
aI2
aI1
aI2
aI1
aI1
aI1
aI1
aI1
aI3
aI1
aI2
aI1
aI5
aI6
aI2
aI1
aI1
aI1
aI5
aI3
aI1
aI3
aI3
aI1
aI1
aI5
aI2
aI1
aI1
aI1
aI1
aI4
aI1
aI7
aI43
aI1
aI2
aI1
aI3
aI1
aI1
aI1
aI1
aI1
aI1
aI1
aI1
aI1
aI1
aI1
aI4
aI1
aI8
aI1
aI1
aI1
aI1
aI1
aI1
aI1
aI1
aI1
aI1
aI1
aI11
aI2
aI1
aI1
aI2
aI2
aI6
aI1
aI2
aI1
aI6
aI1
aI2
aI1
aI1
aI1
aI1
aI3
aI2
aI3
aI1
aI1
aI1
aI3
aI1
aI1
aI1
aI1
aI5
aI1
aI19
aI1
aI10
aI1
aI1
aI1
aI3
aI1
aI2
aI1
aI1
aI1
aI1
aI1
aI1
aI6
aI1
aI2
aI2
aI1
aI2
aI1
aI1
aI1
aI1
aI2
aI2
aI1
aI1
aI1
aI4
aI1
aI1
aI1
aI1
aI1
aI1
aI1
aI1
aI1
aI2
aI1
aI1
aI2
aI2
aI1
aI1
aI1
aI1
aI1
aI1
aI1
aI1
aI1
aI3
aI1
aI1
aI19
aI1
aI3
aI11
aI1
aI8
aI1
aI1
aI7
aI1
aI1
aI5
aI1
aI1
aI1
aI8
aI56
aI2
aI1
aI1
aI1
aI1
aI1
aI2
aI1
aI4
aI1
aI1
aI1
aI3
aI1
aI20
aI2
aI4
aI2
aI1
aI1
aI2
aI1
aI3
aI1
aI1
aI1
aI1
aI2
aI1
aI51
aI11
aI2
aI1
aI2
aI1
aI1
aI1
aI3
aI3
aI8
aI2
aI2
aI1
aI1
aI3
aI1
aI1
aI2
aI2
aI10
aI7
aI58
aI7
aI1
aI3
aI13
aI1
aI3
aI1
aI1
aI3
aI1
aI1
aI2
aI1
aI1
aI2
aI1
aI2
aI3
aI46
aI2
aI1
aI31
aI1
aI1
aI2
aI2
aI1
aI1
aI4
aI1
aI10
aI3
aI1
aI2
aI1
aI3
aI7
aI1
aI2
aI2
aI2
aI4
aI1
aI1
aI1
aI3
aI1
aI1
aI1
aI2
aI9
aI1
aI1
aI1
aI1
aI9
aI2
aI5
aI1
aI2
aI2
aI1
aI3
aI3
aI2
aI1
aI1
aI1
aI2
aI1
aI1
aI2
aI15
aI7
aI1
aI1
aI1
aI1
aI3
aI2
aI1
aI4
aI1
aI1
aI1
aI1
aI3
aI3
aI1
aI2
aI3
aI6
aI10
aI1
aI2
aI4
aI2
aI46
aI1
aI5
aI1
aI1
aI1
aI1
aI3
aI1
aI1
aI2
aI1
aI1
aI1
aI58
aI2
aI4
aI55
aI2
aI1
aI3
aI1
aI1
aI1
aI1
aI1
aI2
aI1
aI1
aI1
aI1
aI7
aI4
aI1
aI4
aI1
aI1
aI1
aI1
aI1
aI35
aI1
aI4
aI2
aI1
aI1
aI2
aI5
aI5
aI1
aI1
aI3
aI1
aI2
aI1
aI1
aI1
aI6
aI1
aI1
aI1
aI8
aI1
aI1
aI1
aI1
aI1
aI1
aI9
aI1
aI16
aI1
aI1
aI1
aI1
aI3
aI2
aI1
aI2
aI2
aI2
aI1
aI7
aI1
aI1
aI1
aI6
aI2
aI4
aI7
aI1
aI1
aI2
aI1
aI1
aI5
aI1
aI1
aI1
aI1
aI1
aI43
aI1
aI1
aI1
aI2
aI1
aI1
aI1
aI1
aI2
aI2
aI2
aI1
aI1
aI1
aI1
aI1
aI1
aI3
aI1
aI5
aI2
aI1
aI1
aI2
aI1
aI43
aI1
aI3
aI1
aI1
aI2
aI1
aI2
aI2
aI3
aI1
aI1
aI2
aI1
aI1
aI1
aI1
aI1
aI1
aI1
aI17
aI2
aI1
aI1
aI2
aI9
aI1
aI2
aI1
aI2
aI1
aI8
aI1
aI2
aI1
aI1
aI1
aI1
aI2
aI1
aI3
aI1
aI1
aI1
aI1
aI1
aI1
aI2
aI1
aI5
aI3
aI1
aI6
aI2
aI1
aI1
aI2
aI1
aI15
aI2
aI1
aI2
aI1
aI4
aI1
aI1
aI1
aI1
aI1
aI1
aI8
aI1
aI1
aI1
aI2
aI2
aI5
aI6
aI1
aI1
aI2
aI1
aI1
aI1
aI2
aI2
aI2
aI1
aI1
aI4
aI1
aI1
aI2
aI1
aI1
aI1
aI1
aI1
aI1
aI1
aI1
aI1
aI1
aI1
aI4
aI1
aI7
aI1
aI1
aI1
aI9
aI1
aI1
aI31
aI1
aI2
aI1
aI1
aI2
aI1
aI1
aI1
aI1
aI1
aI1
aI1
aI1
aI1
aI1
aI1
aI1
aI1
aI2
aI28
aI20
aI2
aI1
aI2
aI4
aI2
aI1
aI1
aI2
aI1
aI1
aI2
aI1
aI2
aI1
aI3
aI1
aI1
aI3
aI1
aI1
aI1
aI1
aI1
aI11
aI2
aI1
aI1
aI1
aI2
aI1
aI1
aI1
aI1
aI1
aI1
aI1
aI2
aI1
aI3
aI1
aI1
aI2
aI2
aI2
aI1
aI1
aI1
aI1
aI1
aI1
aI1
aI1
aI3
aI2
aI1
aI1
aI2
aI1
aI1
aI1
aI8
aI5
aI1
aI1
aI2
aI8
aI1
aI1
aI1
aI1
aI1
aI2
aI1
aI4
aI2
aI1
aI1
aI1
aI2
aI6
aI1
aI1
aI1
aI1
aI1
aI1
aI1
aI1
aI1
aI6
aI2
aI1
aI16
aI1
aI1
aI13
aI1
aI2
aI1
aI1
aI2
aI1
aI5
aI1
aI1
aI1
aI1
aI1
aI7
aI4
aI1
aI3
aI1
aI1
aI1
aI1
aI3
aI4
aI1
aI2
aI1
aI1
aI1
aI4
aI1
aI1
aI1
aI1
aI4
aI3
aI40
aI1
aI4
aI1
aI1
aI1
aI1
aI1
aI1
aI20
aI1
aI2
aI2
aI3
aI1
aI1
aI1
aI3
aI2
aI1
aI1
aI1
aI1
aI1
aI1
aI1
aI1
aI1
aI5
aI1
aI1
aI1
aI1
aI1
aI2
aI2
aI1
aI1
aI3
aI1
aI2
aI3
aI1
aI1
aI1
aI1
aI1
aI1
aI1
aI1
aI1
aI21
aI4
aI1
aI1
aI1
aI1
aI1
aI1
aI1
aI3
aI4
aI1
aI2
aI2
aI9
aI1
aI2
aI1
aI3
aI3
aI2
aI1
aI4
aI1
aI3
aI1
aI1
aI1
aI2
aI2
aI1
aI3
aI1
aI1
aI1
aI1
aI1
aI1
aI1
aI5
aI1
aI1
aI1
aI1
aI8
aI1
aI4
aI1
aI1
aI1
aI1
aI6
aI17
aI34
aI1
aI1
aI1
aI1
aI7
aI2
aI1
aI1
aI1
aI1
aI1
aI1
aI1
aI1
aI1
aI1
aI1
aI1
aI14
aI1
aI1
aI4
aI2
aI1
aI1
aI3
aI1
aI2
aI3
aI2
aI1
aI18
aI6
aI1
aI3
aI2
aI1
aI3
aI1
aI1
aI1
aI1
aI1
aI1
aI1
aI1
aI1
aI2
aI1
aI3
aI23
aI1
aI2
aI6
aI2
aI1
aI1
aI3
aI4
aI1
aI1
aI1
aI2
aI2
aI1
aI1
aI1
aI1
aI2
aI7
aI1
aI2
aI1
aI10
aI6
aI1
aI5
aI4
aI1
aI1
aI3
aI2
aI4
aI1
aI4
aI1
aI4
aI3
aI1
aI1
aI1
aI1
aI1
aI1
aI1
aI1
aI2
aI2
aI1
aI1
aI1
aI1
aI1
aI1
aI1
aI2
aI3
aI2
aI3
aI5
aI3
aI3
aI2
aI2
aI4
aI4
aI3
aI5
aI1
aI1
aI1
aI3
aI2
aI1
aI2
aI2
aI1
aI1
aI1
aI1
aI1
aI1
aI1
aI3
aI1
aI1
aI1
aI1
aI1
aI2
aI1
aI1
aI2
aI1
aI1
aI1
a.