(lp0
I428
aI1
aI2
aI2
aI278
aI145
aI1
aI1
aI3
aI12
aI14449
aI3
aI2
aI1
aI6
aI788
aI3
aI1
aI3
aI1
aI1
aI1
aI3
aI3
aI15
aI2
aI375
aI2
aI7
aI69
aI6
aI1
aI73
aI14
aI54
aI1
aI1
aI2
aI2105
aI1
aI1
aI3
aI1
aI2
aI50
aI27
aI138
aI36
aI1
aI1
aI1
aI3
aI15
aI1
aI20
aI1
aI1
aI1
aI2
aI19
aI1
aI40
aI3
aI17
aI2
aI1
aI5
aI3
aI2
aI2
aI3
aI1
aI1
aI29
aI28
aI2
aI1
aI1
aI1
aI5
aI1
aI5
aI46
aI1
aI2
aI1
aI1
aI33
aI1
aI8
aI78
aI1
aI1
aI1
aI68
aI1
aI1
aI4
aI9
aI3
aI199
aI1
aI2
aI1
aI3
aI1
aI3
aI14
aI166
aI1
aI1
aI1
aI4
aI1
aI2
aI2
aI51
aI28
aI2
aI201
aI1
aI4
aI70
aI1
aI1
aI2
aI1
aI1
aI2
aI1
aI1
aI1
aI4
aI1
aI9
aI2
aI1
aI1
aI1
aI6
aI4
aI2
aI1
aI1
aI1
aI1
aI1
aI1
aI2
aI2
aI1
aI1
aI1
aI1
aI1
aI1
aI6
aI2
aI1
aI79
aI5
aI13
aI1
aI1
aI1
aI14
aI2
aI1
aI74
aI4
aI1
aI1
aI2
aI1
aI2
aI1
aI2
aI1
aI1
aI2
aI1
aI3
aI1
aI2
aI2
aI1
aI1
aI1
aI2
aI1
aI3
aI1
aI1
aI2
aI5
aI6
aI1
aI1
aI2
aI9
aI1
aI15
aI2
aI9
aI1
aI6
aI1
aI1
aI1
aI1
aI1
aI1
aI1
aI2
aI1
aI1
aI10
aI1
aI1
aI1
aI1
aI1
aI2
aI2
aI1
aI1
aI1
aI4
aI1
aI1
aI3
aI4
aI2
aI1
aI3
aI3
aI3
aI1
aI41
aI2
aI1
aI2
aI2
aI1
aI1
aI1
aI1
aI2
aI15
aI1
aI1
aI1
aI1
aI1
aI1
aI1
aI1
aI1
aI1
aI1
aI1
aI1
aI1
aI1
aI10
aI1
aI1
aI1
aI1
aI1
aI2
aI1
aI1
aI1
aI2
aI18
aI1
aI2
aI2
aI1
aI1
aI15
aI1
aI3
aI1
aI1
aI37
aI1
aI15
aI1
aI9
aI3
aI4
aI2
aI5
aI1
aI1
aI1
aI1
aI1
aI6
aI1
aI1
aI1
aI1
aI1
aI1
aI1
aI2
aI1
aI1
aI1
aI1
aI1
aI1
aI1
aI2
aI1
aI2
aI1
aI1
aI1
aI1
aI2
aI2
aI1
aI1
aI1
aI1
aI4
aI1
aI2
aI1
aI10
aI3
aI4
aI9
aI2
aI5
aI1
aI5
aI1
aI9
aI4
aI1
aI2
aI1
aI1
aI3
aI1
aI4
aI4
aI4
aI1
aI18
aI1
aI1
aI1
aI1
aI1
aI25
aI9
aI2
aI2
aI2
aI1
aI1
aI1
aI1
aI2
aI2
aI1
aI1
aI1
aI3
aI22
aI1
aI1
aI1
aI1
aI3
aI5
aI6
aI14
aI1
aI2
aI1
aI1
aI1
aI1
aI3
aI1
aI1
aI1
aI1
aI94
aI1
aI1
aI1
aI1
aI2
aI1
aI1
aI1
aI1
aI3
aI1
aI1
aI1
aI10
aI5
aI1
aI2
aI1
aI2
aI1
aI1
aI1
aI2
aI1
aI3
aI24
aI1
aI1
aI1
aI1
aI9
aI1
aI3
aI1
aI1
aI1
aI1
aI1
aI1
aI1
aI3
aI2
aI2
aI1
aI6
aI1
aI1
aI1
aI2
aI1
aI1
aI1
aI1
aI1
aI2
aI3
aI1
aI3
aI11
aI23
aI1
aI1
aI1
aI2
aI1
aI1
aI1
aI3
aI1
aI8
aI8
aI2
aI1
aI1
aI1
aI1
aI1
aI8
aI1
aI3
aI1
aI1
aI1
aI6
aI3
aI9
aI3
aI4
aI4
aI1
aI1
aI1
aI20
aI1
aI1
aI1
aI1
aI2
aI1
aI1
aI3
aI1
aI1
aI1
aI2
aI2
aI8
aI10
aI1
aI1
aI23
aI4
aI4
aI11
aI1
aI1
aI1
aI1
aI87
aI1
aI7
aI1
aI1
aI5
aI265
aI1
aI1
aI1
aI1
aI1
aI1
aI2
aI1
aI1
aI207
aI1
aI1
aI1
aI1
aI27
aI2
aI2
aI1
aI2
aI1
aI1
aI2
aI1
aI1
aI1
aI1
aI1
aI2
aI3
aI1
aI6
aI3
aI8
aI1
aI2
aI2
aI2
aI1
aI1
aI4
aI19
aI1
aI1
aI1
aI3
aI1
aI1
aI3
aI191
aI4
aI3
aI1
aI1
aI1
aI1
aI1
aI1
aI1
aI1
aI3
aI2
aI3
aI1
aI1
aI1
aI1
aI2
aI1
aI2
aI1
aI1
aI1
aI1
aI1
aI5
aI2
aI23
aI5
aI1
aI18
aI1
aI1
aI3
aI1
aI1
aI1
aI1
aI1
aI1
aI2
aI1
aI3
aI1
aI3
aI1
aI1
aI1
aI2
aI2
aI1
aI2
aI11
aI1
aI1
aI1
aI1
aI1
aI1
aI2
aI2
aI1
aI1
aI1
aI1
aI2
aI2
aI1
aI1
aI2
aI1
aI13
aI27
aI1
aI5
aI1
aI1
aI2
aI26
aI2
aI3
aI5
aI1
aI1
aI3
aI1
aI2
aI1
aI1
aI1
aI1
aI4
aI1
aI1
aI1
aI1
aI1
aI1
aI1
aI1
aI1
aI1
aI1
aI1
aI1
aI1
aI1
aI3
aI10
aI1
aI7
aI1
aI9
aI31
aI1
aI1
aI6
aI1
aI3
aI1
aI1
aI4
aI4
aI72
aI1
aI1
aI1
aI23
aI3
aI7
aI2
aI5
aI1
aI12
aI8
aI20
aI1
aI14
aI1
aI1
aI2
aI1
aI671
aI1
aI6
aI3
aI12
aI2
aI2
aI15
aI1
aI3
aI1
aI1
aI1
aI1
aI5
aI15
aI6
aI5
aI1
aI3
aI1
aI3
aI1
aI10
aI1
aI2
aI8
aI3
aI1
aI1
aI16
aI7
aI4
aI1
aI139
aI1
aI1
aI4
aI1
aI1
aI2
aI2
aI4
aI7
aI46
aI2
aI1
aI2
aI1
aI1
aI1
aI1
aI1
aI1
aI1
aI1
aI2
aI1
aI634
aI1
aI2
aI3
aI1
aI2
aI4
aI1
aI2
aI4
aI17
aI2
aI5
aI2
aI5
aI1
aI1
aI1
aI126
aI3
aI6
aI2
aI1
aI56
aI2
aI6
aI1
aI2
aI1
aI3
aI1
aI5
aI1
aI1
aI1
aI10
aI1
aI1
aI2
aI1
aI8
aI1
aI25
aI5
aI1
aI1
aI5
aI17
aI2
aI14
aI3
aI1
aI1
aI1
aI2
aI5
aI1
aI2
aI1
aI7
aI1
aI1
aI3
aI3
aI1
aI2
aI4
aI7
aI1
aI1
aI2
aI3
aI2
aI1
aI1
aI2
aI1
aI1
aI1
aI1
aI1
aI2
aI1
aI15
aI1
aI3
aI8
aI1
aI1
aI4
aI7
aI2
aI1
aI8
aI1
aI1
aI4
aI1
aI1
aI1
aI1
aI2
aI1
aI1
aI2
aI2
aI5
aI1
aI1
aI1
aI52
aI1
aI10
aI80
aI1
aI6
aI1
aI18
aI1
aI1
aI1
aI2
aI1
aI1
aI1
aI13
aI1
aI1
aI1
aI2
aI1
aI1
aI1
aI1
aI2
aI25
aI5
aI1
aI1
aI4
aI2
aI1
aI4
aI2
aI19
aI2
aI1
aI1
aI2
aI2
aI1
aI1
aI1
aI1
aI3
aI1
aI1
aI4
aI2
aI2
aI2
aI1
aI1
aI1
aI1
aI1
aI2
aI1
aI1
aI6
aI1
aI3
aI1
aI1
aI6
aI5
aI5
aI1
aI1
aI1
aI1
aI2
aI1
aI1
aI1
aI2
aI1
aI1
aI2
aI1
aI1
aI3
aI1
aI1
aI1
aI1
aI2
aI3
aI1
aI1
aI1
aI1
aI1
aI1
aI1
aI1
aI3
aI1
aI1
aI1
aI1
aI1
aI1
aI2
aI1
aI1
aI1
aI1
aI1
aI1
aI1
aI1
aI1
aI1
aI1
aI5
aI1
aI1
aI1
aI2
aI1
aI2
aI3
aI1
aI2
aI1
aI1
aI1
aI7
aI1
aI2
aI1
aI3
aI2
aI1
aI2
aI6951
aI2
aI1
aI4
aI1
aI1
aI2
aI1
aI2
aI1
aI4
aI1
aI1
aI3
aI4
aI1
aI1
aI3
aI3
aI2
aI1
aI1
aI1
aI1
aI2
aI1
aI5
aI1
aI1
aI1
aI1
aI1
aI1
aI2
aI1
aI1
aI1
aI1
aI2
aI1
aI1
aI1
aI3
aI1
aI2
aI1
aI1
aI1
aI6
aI1
aI18
aI1
aI2
aI2
aI3
aI1
aI1
aI4
aI1
aI3
aI1
aI2
aI7
aI1
aI1
aI3
aI1
aI2
aI3
aI8
aI1
aI2
aI1
aI1
aI1
aI1
aI1
aI1
aI1
aI1
aI1
aI9
aI1
aI1
aI1
aI1
aI7
aI1
aI1
aI3
aI1
aI1
aI7
aI1
aI6
aI8
aI1
aI1
aI1
aI3
aI2
aI1
aI1
aI1
aI1
aI1
aI2
aI2
aI2
aI2
aI1
aI2
aI1
aI1
aI1
aI1
aI1
aI1
aI1
aI2
aI3
aI1
aI1
aI1
aI1
aI2
aI1
aI1
aI1
aI2
aI1
aI3
aI10
aI30
aI1
aI1
aI33
aI1
aI1
aI1
aI2
aI2
aI4
aI8
aI3
aI2
aI8
aI21
aI2
aI2
aI1
aI2
aI1
aI1
aI1
aI2
aI1
aI1
aI1
aI2
aI1
aI3
aI1
aI1
aI1
aI1
aI1
aI2
aI1
aI1
aI96
aI1
aI1
aI2
aI2
aI2
aI2
aI1
aI9
aI2
aI1
aI38
aI1
aI2
aI2
aI1
aI2
aI2
aI2
aI3
aI1
aI1
aI6
aI1
aI2
aI155
aI1
aI8
aI1
aI1
aI89
aI1
aI1
aI1
aI1
aI1
aI3
aI18
aI5
aI2
aI3
aI1
aI2
aI1
aI1
aI1
aI2
aI5
aI2
aI5
aI3
aI1
aI1
aI6
aI1
aI1
aI1
aI6
aI1
aI4
aI2
aI2
aI1
aI5
aI2
aI1
aI1
aI1
aI2
aI1
aI2
aI4
aI9
aI1
aI2
aI5
aI2
aI1
aI5
aI2
aI2
aI3
aI1
aI1
aI1
aI2
aI1
aI1
aI1
aI1
aI1
aI1
aI1
aI5
aI1
aI1
aI1
aI1
aI1
aI7
aI2
aI3
aI2
aI4
aI1
aI2
aI3
aI5
aI1
aI1
aI2
aI1
aI283
aI1
aI8
aI1
aI1
aI1
aI2
aI2
aI2
aI8
aI1
aI1
aI1
aI1
aI1
aI2
aI9
aI1
aI3
aI793
aI5
aI2
aI5
aI1
aI4
aI1
aI7
aI19
aI4
aI8
aI2
aI10
aI3
aI2
aI1
aI1
aI1
aI1
aI11
aI1
aI1
aI1
aI1
aI1
aI1
aI7
aI4
aI4
aI1
aI3
aI846
aI2
aI2
aI1
aI1
aI2
aI7
aI2
aI1
aI5
aI1
aI5
aI4
aI1
aI8
aI1
aI1
aI1
aI4
aI1
aI1
aI1
aI2
aI1
aI1
aI132
aI1
aI1
aI1
aI1
aI20
aI2
aI1
aI2
aI1
aI1
aI3
aI2
aI1
aI1
aI1
aI1
aI1
aI9
aI3
aI1
aI1
aI2
aI1
aI2
aI1
aI1
aI1
aI2
aI1
aI2
aI1
aI1
aI1
aI3
aI1
aI4
aI4
aI3
aI2
aI1
aI268
aI1
aI2
aI1
aI2
aI1
aI1
aI2
aI5
aI1
aI2
aI3
aI2
aI1
aI1
aI1
aI2
aI1
aI1
aI1
aI1
aI1
aI6
aI2
aI1
aI1
aI86
aI1
aI1
aI1
aI3
aI1
aI1
aI1
aI1
aI1
aI1
aI2
aI2
aI1
aI1
aI1
aI1
aI1
aI2
aI1
aI1
aI1
aI7
aI33
aI2
aI1
aI18
aI4
aI3
aI1
aI2
aI2
aI345
aI2
aI20
aI1
aI1
aI1
aI42
aI8
aI1
aI1
aI1
aI2
aI4
aI1
aI1
aI1
aI1
aI12
aI1
aI1
aI1
aI1
aI7
aI1
aI1
aI1
aI1
aI1
aI3
aI435
aI1
aI1
aI1
aI5
aI5
aI18
aI13
aI1
aI1
aI1
aI1
aI1
aI1
aI1
aI3
aI1
aI1
aI1
aI3
aI1
aI2
aI1
aI1
aI2
aI4
aI1
aI1
aI3
aI1
aI1
aI1
aI2
aI1
aI1
aI1
aI17
aI1
aI2
aI1
aI7
aI1
aI1
aI1
aI7
aI34
aI1
aI2
aI1
aI1
aI1
aI1
aI1
aI12
aI1
aI3
aI2
aI2
aI1
aI1
aI1
aI1
aI1
aI1
aI2
aI1
aI15
aI1
aI1
aI2
aI26
aI8
aI1
aI3
aI1
aI3
aI1
aI2
aI1
aI145
aI1
aI1
aI1
aI1
aI1
aI2
aI1
aI23
aI1
aI39
aI1
aI1
aI1
aI7
aI1
aI7
aI4
aI1
aI1
aI1
aI1
aI5
aI6
aI1
aI6
aI1
aI1
aI1
aI1
aI1
aI5
aI2
aI1
aI46
aI1
aI1
aI1
aI1
aI1
aI2
aI12
aI1
aI1
aI1
aI20
aI1
aI2
aI1
aI1
aI1
aI5
aI2
aI2
aI1
aI3
aI1
aI3
aI1
aI3
aI1
aI1
aI1
aI1
aI7
aI1
aI3
aI1
aI1
aI1
aI1
aI1
aI1
aI2
aI2
aI13
aI5
aI1
aI1
aI5
aI1
aI8
aI1
aI3
aI1
aI24
aI1
aI1
aI17
aI1
aI1
aI7
aI23
aI1
aI1
aI1
aI1
aI2
aI1
aI3
aI3
aI1051
aI1
aI1
aI2
aI1
aI2
aI18
aI1
aI1
aI2
aI1
aI2
aI1
aI11
aI1
aI1
aI8
aI1
aI1
aI1
aI5
aI1
aI1
aI3
aI1
aI1
aI1
aI1
aI234
aI1340
aI1
aI1
aI39
aI9
aI3
aI1
aI3
aI1
aI2
aI3
aI2
aI1
aI91
aI1
aI1
aI16
aI1
aI23
aI47
aI1
aI1
aI1
aI1
aI1
aI1
aI1
aI1
aI1
aI1
aI1
aI1
aI1
aI1
aI1
aI1
aI6
aI1
aI1
aI1
aI1
aI1
aI1
aI1
aI1
aI2
aI1
aI1
aI1
aI1
aI2
aI3
aI1
aI1
aI2
aI1
aI1
aI2
aI1
aI1
aI1
aI1
aI1
aI1
aI11
aI1
aI1
aI1
aI1
aI2
aI2
aI27
aI1
aI1
aI1
aI1
aI1
aI2
aI53
aI1
aI1
aI2
aI33
aI2
aI1
aI1
aI1
aI2
aI2
aI8
aI5
aI10
aI2
aI1
aI1
aI7
aI1
aI1
aI1
aI1
aI2
aI1
aI30
aI1
aI1
aI258
aI18
aI2
aI3
aI1
aI1
aI2
aI1
aI4
aI1
aI1
aI12
aI4
aI3
aI6
aI1
aI1
aI1
aI4
aI1
aI1
aI1
aI1
aI2
aI2
aI1
aI9
aI4
aI2
aI2
aI9
aI1
aI2
aI1
aI1
aI1
aI1
aI14
aI1
aI1
aI1
aI1
aI1
aI2
aI2
aI1
aI1
aI2
aI2
aI1
aI1
aI2
aI2
aI4
aI25
aI4
aI1
aI24
aI1
aI1
aI3
aI1
aI1
aI135
aI1
aI1
aI523
aI1
aI1
aI1
aI7
aI4
aI1
aI18
aI3
aI8
aI352
aI3
aI1
aI1
aI7
aI1
aI1
aI1
aI3
aI6
aI1
aI1
aI383
aI5
aI1
aI2
aI1
aI4
aI3
aI1
aI1
aI3
aI1
aI1
aI2
aI2
aI741
aI1
aI1
aI1
aI2
aI1
aI2
aI1
aI1
aI1
aI56
aI1
aI1
aI1
aI1
aI1
aI1
aI4
aI1
aI2
aI1
aI1
aI1
aI1
aI1
aI1
aI1
aI4
aI1
aI1
aI1
aI5
aI2
aI1
aI1
aI1
aI1
aI5
aI4
aI67
aI1
aI1
aI2
aI1
aI2
aI3
aI1
aI2
aI1
aI105
aI774
aI1
aI4
aI3
aI22
aI1
aI1
aI32
aI1
aI3
aI1
aI2
aI1
aI1
aI1
aI1
aI2
aI2
aI1
aI4
aI1
aI1
aI2
aI1
aI2
aI1
aI1
aI1
aI1
aI1
aI2
aI1
aI1
aI1
aI1
aI1
aI3
aI1
aI2
aI1
aI2
aI15
aI1
aI3
aI3
aI1
aI14
aI1
aI4
aI2
aI4
aI1
aI1
aI2
aI1
aI1
aI1
aI9
aI7
aI2
aI1
aI1
aI2
aI1
aI1
aI2
aI1
aI19
aI1
aI16
aI4
aI1
aI1
aI7
aI3
aI1
aI1
aI1
aI10
aI2
aI1
aI1
aI1
aI2
aI1
aI1
aI2
aI1
aI3
aI1
aI4
aI1
aI4
aI2
aI1
aI285
aI5
aI3
aI1
aI1
aI1
aI1
aI1
aI1
aI1
aI3
aI2
aI2
aI1
aI2
aI2
aI6
aI2
aI1
aI1
aI1
aI3
aI1
aI2
aI1
aI3
aI2
aI2
aI1
aI1
aI1
aI1
aI1
aI1
aI1
aI1
aI3
aI3
aI1
aI1
aI1
aI1
aI1
aI1
aI1
aI1
aI1
aI1
aI1
aI1
aI2
aI1
aI1
aI1
aI1
aI1
aI1
aI2
aI6
aI8
aI3
aI2
aI1
aI1
aI2
aI2
aI1
aI1
aI1
aI1
aI1
aI1
aI1
aI1
aI1
aI2
aI1
aI1
aI4
aI14
aI1
aI138
aI1
aI1
aI1
aI1
aI1
aI1
aI1
aI1
aI1
aI1
aI1
aI1
aI1
aI2
aI1
aI3
aI4
aI1
aI1
aI1
aI1
aI2
aI1
aI23
aI1
aI1
aI1
aI19
aI1
aI1
aI1
aI1
aI3
aI8
aI1
aI1
aI4
aI1
aI1
aI29
aI3
aI1
aI3
aI4
aI5
aI1
aI1
aI1
aI1
aI1
aI1
aI1
aI1
aI1
aI1
aI1
aI2
aI1
aI6
aI1
aI1
aI3
aI1
aI1
aI1
aI1
aI2
aI1
aI3
aI4
aI1
aI1
aI1
aI1
aI1
aI1
aI1
aI1
aI1
aI1
aI11
aI1
aI1
aI1
aI1
aI2
aI1
aI1
aI2
aI1
aI1
aI3
aI1
aI1
aI5
aI74
aI4
aI2
aI1
aI1
aI2
aI1
aI1
aI1
aI1
aI1
aI13
aI3
aI11
aI1
aI1
aI2
aI4
aI1
aI5
aI1
aI1
aI1
aI1
aI1
aI2
aI3
aI1
aI1
aI1
aI4
aI1
aI1
aI2
aI1
aI13
aI48
aI1
aI1
aI1
aI2
aI1
aI4
aI5
aI1
aI1
aI1
aI1
aI2
aI21
aI1
aI17
aI1
aI1
aI1
aI1
aI1
aI1
aI1
aI1
aI1
aI1
aI4
aI1
aI1
aI1
aI1
aI2
aI1
aI2
aI1
aI4
aI6
aI1
aI1
aI1
aI1
aI1
aI1
aI1
aI9
aI1
aI1
aI1
aI1
aI1
aI1
aI6
aI148
aI2
aI1
aI39
aI4
aI1
aI1
aI2
aI4
aI1
aI1
aI1
aI1
aI1
aI3
aI2
aI1
aI7
aI2
aI4
aI1
aI3
aI1
aI1
aI1
aI1
aI2
aI1
aI2
aI1
aI2
aI1
aI1
aI2
aI1
aI1
aI1
aI212
aI1
aI1
aI3
aI1
aI1
aI2
aI4
aI1
aI1
aI81
aI2
aI1
aI1
aI1
aI2
aI1
aI4
aI1
aI1
aI1
aI4
aI20
aI3
aI138
aI2
aI1
aI2
aI15
aI1
aI1
aI1
aI2
aI4
aI1
aI1
aI1
aI1
aI1
aI1
aI1
aI1
aI1
aI17
aI3
aI2
aI1
aI4
aI1
aI2
aI1
aI1
aI9
aI1
aI1
aI1
aI1
aI3
aI1
aI1
aI2
aI1
aI1
aI1
aI1
aI1
aI3
aI1
aI1
aI1
aI1
aI7
aI1
aI1
aI6
aI2
aI1
aI16
aI3
aI2
aI3
aI1
aI19
aI2
aI1
aI2
aI1
aI1
aI1
aI1
aI4
aI1
aI7
aI1
aI4
aI1
aI1
aI1
aI2
aI6
aI1
aI1
aI1
aI1
aI1
aI7
aI2
aI1
aI1
aI1
aI1
aI1
aI1
aI1
aI4
aI1
aI4
aI2
aI1
aI1
aI1
aI1
aI1
aI2
aI2
aI1
aI2
aI1
aI1
aI2
aI2
aI26
aI1
aI1
aI1
aI1
aI5
aI1
aI1
aI1
aI8
aI2
aI2
aI3
aI2
aI30
aI5
aI22
aI2
aI11
aI37
aI1
aI56
aI2
aI1
aI1
aI1
aI1
aI3
aI1
aI1
aI3
aI1
aI1
aI1
aI1
aI1
aI7
aI27
aI1
aI65
aI2
aI1
aI1
aI1
aI7
aI1
aI2
aI4
aI1
aI10
aI2
aI88
aI1
aI1
aI4
aI1
aI1
aI5
aI2
aI2
aI2
aI1
aI1
aI3
aI2
aI1
aI1
aI82
aI1
aI1
aI1
aI1
aI1
aI1
aI5
aI1
aI3
aI1
aI1
aI1
aI3
aI2
aI3
aI2
aI1
aI1
aI1
aI1
aI1
aI1
aI2
aI1
aI1
aI1
aI1
aI3
aI1
aI1
aI1
aI4
aI2
aI1
aI1
aI5
aI1
aI4
aI5
aI4
aI14
aI1
aI2
aI4
aI1
aI1
aI5
aI1
aI1
aI1
aI1
aI1
aI2
aI1
aI3
aI2
aI1
aI2
aI2
aI2
aI1
aI1
aI3
aI1
aI1
aI52
aI1
aI1
aI7
aI1
aI1
aI1
aI1
aI1
aI1
aI1
aI8
aI1
aI2
aI1
aI12
aI1
aI1
aI1
aI1
aI1
aI1
aI1
aI1
aI67
aI2
aI1
aI1
aI1
aI1
aI2
aI8
aI2
aI1
aI12
aI4
aI5
aI1
aI1
aI2
aI3
aI6
aI1
aI3
aI1
aI3
aI1
aI4
aI1
aI1
aI1
aI2
aI1
aI1
aI1
aI1
aI1
aI1
aI1
aI5
aI1
aI1
aI1
aI2
aI3
aI1
aI2
aI1
aI6
aI1
aI1
aI6
aI1
aI1
aI1
aI1
aI1
aI18
aI237
aI1
aI2
aI1
aI2
aI1
aI2
aI4
aI1
aI9
aI3
aI3
aI1
aI1
aI2
aI4
aI1
aI1
aI1
aI1
aI2
aI3
aI1
aI62
aI1
aI1
aI1
aI3
aI2
aI3
aI1
aI1
aI5
aI1
aI2
aI1
aI7
aI55
aI1
aI1
aI1
aI1
aI1
aI1
aI1
aI1
aI68
aI1
aI6
aI4
aI2
aI12
aI1
aI6
aI1
aI2
aI9
aI1
aI2
aI1
aI7
aI1
aI1
aI2
aI7
aI4
aI1
aI1
aI2
aI1
aI248
aI1
aI22
aI3
aI1
aI10
aI7
aI1
aI3
aI3
aI27
aI3
aI2
aI1
aI1
aI1
aI1
aI1
aI2
aI1
aI1
aI1
aI3
aI8
aI2
aI2
aI1
aI1
aI1
aI3
aI1
aI3
aI1
aI1
aI1
aI1
aI1
aI1
aI1
aI1
aI1
aI2
aI1
aI3
aI1
aI5
aI2
aI1
aI1
aI12
aI1
aI1
aI1
aI1
aI3
aI1
aI4
aI1
aI1
aI2
aI1
aI1
aI1
aI1
aI1
aI1
aI6
aI1
aI1
aI1
aI1
aI4
aI1
aI1
aI1
aI3
aI1
aI1
aI1
aI1
aI82
aI1
aI16
aI1
aI1
aI5
aI1
aI1
aI1
aI2
aI5
aI1
aI1
aI12
aI2
aI1
aI1
aI4
aI2
aI1
aI1
aI1
aI1
aI1
aI1
aI1
aI60
aI1
aI1
aI1
aI3
aI5
aI3
aI1
aI1
aI1
aI1
aI3
aI1
aI1
aI1
aI1
aI3
aI7
aI6
aI1
aI2
aI2
aI1
aI2
aI1
aI3
aI2
aI4
aI1
aI2
aI863
aI3
aI1
aI1
aI1
aI33
aI1
aI1
aI1
aI23
aI1
aI1
aI1
aI1
aI1
aI1
aI3
aI2
aI2
aI20
aI3
aI1
aI1
aI2
aI4
aI1
aI1
aI1
aI1
aI1
aI1
aI2
aI1
aI2
aI1
aI1
aI1
aI1
aI2
aI2
aI1
aI4
aI120
aI1
aI1
aI1
aI1
aI1
aI1
aI1
aI1
aI2
aI2
aI4
aI1
aI5
aI2
aI8
aI1
aI1
aI8
aI1
aI1
aI1
aI1
aI10
aI34
aI8
aI1
aI63
aI2
aI27
aI1
aI1
aI1
aI2
aI2
aI1
aI1
aI6
aI1
aI1
aI1
aI16
aI1
aI113
aI2
aI1
aI3
aI1
aI1
aI2
aI3
aI1
aI3
aI10
aI1
aI9
aI105
aI1
aI1
aI3
aI2
aI2
aI1
aI1
aI1
aI1
aI1
aI1
aI1
aI1
aI1
aI1
aI5
aI1
aI3
aI1
aI1
aI1
aI1
aI4
aI1
aI4
aI1
aI1
aI1
aI2
aI1
aI1
aI1
aI1
aI1
aI4
aI1
aI5
aI2
aI1
aI1
aI1
aI1
aI1
aI1
aI1
aI1
aI1
aI9
aI1
aI1
aI1
aI1
aI1
aI1
aI2
aI1
aI4
aI1
aI26
aI1
aI1
aI1
aI1
aI1
aI4
aI1
aI1
aI1
aI1
aI2
aI6
aI3
aI1
aI1
aI3
aI1
aI1
aI2
aI2
aI14
aI11
aI1
aI1
aI1
aI1
aI6
aI1
aI1
aI4
aI1
aI1
aI2
aI2
aI1
aI1
aI1
aI1
aI2
aI1
aI1
aI5
aI1
aI1
aI1
aI3
aI2
aI1
aI1
aI1
aI1
aI1
aI5
aI1
aI2
aI1
aI13
aI1
aI5
aI1
aI1
aI1
aI2
aI2
aI2
aI1
aI5
aI1
aI9
aI3
aI4
aI1
aI9
aI1
aI2
aI1
aI1
aI1
aI2
aI1
aI1
aI1
aI2
aI1
aI2
aI11
aI1
aI1
aI1
aI1
aI1
aI2
aI1
aI1
aI3
aI1
aI1
aI1
aI1
aI1
aI1
aI4
aI6
aI1
aI1
aI2
aI1
aI1
aI1
aI1
aI1
aI1
aI1
aI26
aI1
aI1
aI102
aI2
aI1
aI1
aI9
aI1
aI1
aI1
aI1
aI5
aI1
aI1
aI1
aI1
aI1
aI3
aI3
aI3
aI1
aI1
aI8
aI1
aI3
aI1
aI1
aI228
aI1
aI2
aI1
aI1
aI1
aI1
aI1
aI2
aI1
aI1
aI1
aI1
aI2
aI10
aI1
aI1
aI3
aI1
aI2
aI1
aI1
aI1
aI2
aI1
aI1
aI1
aI7
aI1
aI1
aI1
aI8
aI2
aI2
aI1
aI9
aI1
aI1
aI1
aI1
aI2
aI73
aI1
aI4
aI1
aI1
aI1
aI12
aI1
aI1
aI1
aI1
aI5
aI1
aI52
aI3
aI36
aI1
aI1
aI1
aI7
aI2
aI30
aI2
aI40
aI1
aI1
aI1
aI1
aI2
aI1
aI4
aI1
aI1
aI1
aI1
aI40
aI1
aI1
aI1
aI11
aI2
aI99
aI1
aI1
aI6
aI15
aI1
aI4
aI17
aI1
aI2
aI1
aI1
aI1
aI1
aI1
aI3
aI1
aI2
aI1
aI1
aI1
aI1
aI19
aI2
aI2
aI1
aI3
aI1
aI1
aI35
aI2
aI3
aI2
aI1
aI1
aI1
aI1
aI1
aI1
aI17
aI3
aI1
aI1
aI2
aI1
aI1
aI11
aI2
aI7
aI1
aI1
aI12
aI2
aI3
aI7
aI3
aI1
aI2
aI1
aI1
aI1
aI1
aI1
aI2
aI1
aI1
aI73
aI2
aI1
aI1
aI1
aI21
aI1
aI1
aI6
aI2
aI1
aI1
aI1
aI1
aI1
aI2
aI1
aI5
aI1
aI1
aI1
aI9
aI1
aI1
aI1
aI3
aI1
aI1
aI1
aI1
aI2
aI1
aI1
aI9
aI1
aI3
aI2
aI2
aI1
aI2
aI1
aI5
aI1
aI3
aI2
aI14
aI1
aI1
aI1
aI1
aI1
aI21
aI1
aI6
aI1
aI1
aI3
aI2
aI1
aI1
aI1
aI1
aI7
aI4
aI1
aI8
aI2017
aI1
aI1
aI1
aI1
aI1
aI1
aI3
aI1
aI1
aI1
aI1
aI6
aI2
aI1
aI1
aI1
aI33
aI1
aI1
aI1
aI2
aI1
aI2
aI2
aI1
aI1
aI1
aI1
aI1
aI2
aI1
aI72
aI1
aI2
aI17
aI4
aI1
aI9
aI17
aI1
aI45
aI3
aI2
aI1
aI1
aI1
aI1
aI1
aI1
aI1
aI43
aI3
aI25
aI1
aI6
aI2
aI1
aI4
aI1
aI1
aI2
aI1
aI1
aI2
aI1
aI10
aI1
aI1
aI1
aI2
aI11
aI1
aI1
aI1
aI17
aI1
aI4
aI6
aI1
aI1
aI1
aI1
aI1
aI6
aI33
aI1
aI1
aI1
aI1
aI5
aI1
aI11
aI15
aI1
aI1
aI1
aI1
aI6
aI1
aI1
aI1
aI1
aI2
aI1
aI1
aI4
aI4
aI1
aI1
aI4
aI2
aI25
aI1
aI1
aI1
aI1
aI2
aI1
aI19
aI1
aI1
aI1
aI1
aI15
aI2
aI1
aI2
aI2
aI1
aI1
aI1
aI7
aI2
aI1
aI7
aI1
aI1
aI1
aI1
aI1
aI2
aI1
aI1
aI1
aI1
aI1
aI93
aI74
aI3
aI1
aI1
aI4
aI5
aI2
aI3
aI9
aI1
aI1
aI3
aI1
aI1
aI1
aI3
aI30
aI1
aI1
aI1
aI9
aI1
aI3
aI1
aI2
aI11
aI6
aI1
aI2
aI5
aI1
aI6
aI1
aI2
aI2
aI1
aI1
aI5
aI1
aI1
aI4
aI2
aI6
aI1
aI1
aI1
aI2
aI3
aI4
aI1
aI1
aI2
aI1
aI1
aI1
aI2
aI2
aI2
aI3
aI1
aI18
aI1
aI1
aI1
aI2
aI1
aI1
aI2
aI1
aI4
aI1
aI1
aI1
aI3
aI1
aI1
aI1
aI1
aI1
aI2
aI1
aI1
aI2
aI1
aI2
aI184
aI1
aI3
aI3
aI1
aI1
aI1
aI1
aI1
aI1
aI1
aI3
aI1
aI1
aI1
aI1
aI14
aI2
aI2
aI1
aI1
aI1
aI1
aI1
aI15
aI1
aI129
aI2
aI1
aI55
aI1
aI1
aI1
aI13
aI2
aI6
aI5
aI1
aI1
aI49
aI2
aI20
aI2
aI1
aI2
aI1
aI1
aI7
aI1
aI1
aI6
aI5
aI1
aI8
aI9
aI1
aI1
aI1
aI1
aI1
aI1
aI1
aI1
aI1
aI62
aI1
aI1
aI3
aI1
aI1
aI1
aI89
aI1
aI1
aI1371
aI1
aI1
aI4
aI2
aI1
aI1
aI1
aI1
aI1
aI35
aI1
aI1
aI39
aI7
aI1
aI8
aI1
aI1
aI21
aI1
aI1
aI4
aI1
aI1
aI2
aI4
aI1
aI3
aI1
aI1
aI1
aI1
aI3
aI2
aI1
aI1
aI18
aI11
aI4
aI349
aI1
aI1
aI4
aI2
aI1
aI1
aI1
aI2
aI74
aI1
aI3
aI1
aI1
aI1
aI1
aI1
aI1
aI1
aI1
aI1
aI2
aI23
aI1
aI1
aI2
aI2
aI1
aI1
aI1
aI51
aI1
aI7
aI1
aI2
aI1
aI1
aI1
aI1
aI2
aI1
aI3
aI3
aI1
aI6
aI2
aI3
aI2
aI1
aI1
aI1
aI1
aI1
aI5
aI1
aI6
aI1
aI8
aI1
aI1
aI2
aI1
aI1
aI9
aI1
aI40
aI1
aI1
aI1
aI1
aI1
aI5
aI6
aI1
aI1
aI1
aI1
aI1
aI16
aI1
aI1
aI1
aI1
aI1
aI6
aI1
aI2
aI1
aI3
aI3
aI4
aI7
aI1
aI3
aI1
aI4
aI1
aI1
aI1
aI1
aI1
aI1
aI1
aI1
aI1
aI2
aI1
aI1
aI1
aI1
aI1
aI1
aI1
aI2
aI1
aI3
aI1
aI2
aI1
aI2
aI1
aI9
aI1
aI1
aI1
aI2
aI1
aI1
aI1
aI2
aI1
aI1
aI1
aI3
aI3
aI1
aI2
aI1
aI4
aI1
aI1
aI4
aI1
aI2
aI10
aI52
aI1
aI5
aI1
aI1
aI1
aI11
aI1
aI1
aI13
aI1
aI6
aI1
aI6
aI1
aI15
aI5
aI1
aI6
aI1
aI3
aI1
aI5
aI1
aI11
aI3
aI28
aI1
aI1
aI1
aI1
aI1
aI1
aI3
aI1
aI1
aI2
aI1
aI6
aI2
aI1
aI3
aI1
aI36
aI1
aI2
aI2
aI7
aI1
aI1
aI1
aI1
aI1
aI2
aI1
aI2
aI4
aI1
aI1
aI4
aI1
aI25
aI3
aI3
aI17
aI1
aI2
aI1
aI1
aI1
aI1
aI2
aI2
aI1
aI1
aI1
aI1
aI5
aI3
aI2
aI2
aI3
aI3
aI6
aI1
aI1
aI17
aI1
aI1
aI104
aI1
aI14
aI1
aI3
aI2
aI12
aI1
aI1
aI64
aI1
aI22
aI1
aI1
aI1
aI8
aI1
aI5
aI5
aI1
aI37
aI15
aI3
aI2
aI23
aI1
aI22
aI1
aI3
aI1
aI1
aI1
aI3
aI1
aI3
aI1
aI1
aI2
aI1
aI3
aI2
aI33
aI1
aI1
aI1
aI12
aI1
aI1
aI27
aI1
aI78
aI1
aI3
aI1
aI37
aI1
aI1
aI1
aI1
aI3
aI1
aI1
aI1
aI2
aI1
aI1
aI1
aI1
aI1
aI5
aI1
aI3
aI2
aI1
aI1
aI37
aI8
aI1
aI2
aI1
aI1
aI26
aI1
aI2
aI1
aI6
aI1
aI4
aI1
aI3
aI3
aI46
aI1
aI49
aI1
aI3
aI1
aI2
aI1
aI1
aI1
aI9
aI1
aI1
aI1
aI3
aI5
aI7
aI1
aI5
aI1
aI2
aI1
aI3
aI1
aI3
aI2
aI1
aI17
aI1
aI25
aI1
aI1
aI1
aI3
aI1
aI17
aI43
aI1
aI2
aI2
aI1
aI1
aI1
aI1
aI1
aI1
aI9
aI14
aI42
aI1
aI1
aI3
aI1
aI4
aI1
aI3
aI1
aI2
aI1
aI1
aI1
aI19
aI1
aI3
aI1
aI1
aI1
aI1
aI1
aI1
aI1
aI1
aI1
aI1
aI1
aI7
aI2
aI1
aI2
aI1
aI1
aI1
aI1
aI1
aI1
aI2
aI1
aI3
aI1
aI1
aI1
aI2
aI1
aI1
aI1
aI16
aI2
aI1
aI1
aI1
aI6
aI1
aI1
aI21
aI1
aI7
aI2
aI1
aI3
aI1
aI3
aI1
aI1
aI2
aI1
aI1
aI1
aI1
aI2
aI1
aI19
aI2
aI3
aI1
aI2
aI1
aI14
aI1
aI1
aI32
aI1
aI1
aI47
aI5
aI1
aI2
aI1
aI2
aI2
aI1
aI1
aI4
aI5
aI100
aI17
aI1
aI29
aI1
aI1
aI1
aI7
aI2
aI1
aI1
aI1
aI1
aI1
aI7
aI2
aI3
aI1
aI5
aI1
aI1
aI5
aI1
aI1
aI1
aI1
aI4
aI1
aI7
aI1
aI1
aI1
aI2
aI1
aI1
aI1
aI1
aI2
aI2
aI1
aI1
aI1
aI3
aI1
aI1
aI1
aI1
aI1
aI3201
aI3
aI1
aI3
aI81
aI2
aI1
aI1
aI21
aI1
aI96
aI6
aI1
aI1
aI1
aI1
aI8
aI1
aI51
aI61
aI1
aI10
aI1
aI2
aI1
aI1
aI1
aI2
aI2
aI1
aI1
aI2
aI3
aI8
aI1
aI1
aI1
aI89
aI12
aI2
aI2
aI4
aI1
aI14
aI3
aI1
aI1
aI1
aI20
aI3
aI1
aI1
aI58
aI1
aI2
aI1
aI33
aI2
aI1
aI1
aI1
aI2
aI1
aI1
aI26
aI40
aI5
aI2
aI9
aI1
aI1
aI4
aI1
aI102
aI1
aI1
aI1
aI1
aI3
aI3
aI2
aI38
aI26
aI17
aI31
aI12
aI1
aI1
aI1
aI4
aI2
aI1
aI14
aI8
aI1
aI3
aI16
aI23
aI1
aI1
aI1
aI1
aI2
aI1
aI1
aI2
aI1
aI1
aI1
aI1
aI21
aI25
aI1
aI23
aI1
aI3
aI4
aI2
aI3
aI2
aI1
aI2
aI1
aI2
aI3
aI1
aI4
aI107
aI1
aI1
aI46
aI5
aI5
aI3
aI1
aI1
aI1
aI1
aI2
aI296
aI1
aI1
aI31
aI2
aI1
aI10
aI3
aI69
aI2
aI6
aI13
aI2
aI2
aI2
aI9
aI3
aI13
aI1
aI14
aI1
aI1
aI1
aI4
aI1
aI1
aI2
aI2
aI1
aI1
aI2
aI1
aI1
aI47
aI1
aI1
aI4
aI1
aI23
aI3
aI1
aI3
aI1
aI1
aI1
aI13
aI1
aI1
aI10
aI1
aI1
aI2
aI13
aI1
aI7
aI1
aI10
aI1
aI1
aI1
aI44
aI1
aI4
aI1
aI20
aI1
aI1
aI2
aI1
aI1
aI1
aI2
aI1
aI1
aI20
aI1
aI2
aI6
aI33
aI1
aI2
aI6
aI5
aI234
aI2
aI24
aI2
aI1
aI2
aI1
aI1
aI6
aI1
aI11
aI1
aI2
aI1
aI23
aI2
aI1
aI1
aI1
aI2
aI2
aI1
aI2
aI1
aI4
aI2
aI1
aI3
aI2
aI4
aI1
aI6
aI1
aI1
aI29
aI10
aI6
aI7
aI7
aI4
aI1
aI3
aI1
aI2
aI1
aI5
aI1
aI1
aI1
aI30
aI1
aI4
aI24
aI2
aI2
aI4
aI1
aI1
aI13
aI2
aI1
aI1
aI2
aI1
aI1
aI152
aI6
aI329
aI3
aI3
aI2
aI7
aI2
aI2
aI5
aI1
aI1
aI1
aI1
aI1
aI8
aI2
aI1
aI7
aI9
aI1
aI8
aI1
aI2
aI8
aI2
aI1
aI1
aI45
aI2
aI2
aI1
aI1
aI43
aI1
aI1
aI1
aI1
aI8
aI1
aI3
aI1
aI31
aI1
aI2
aI2
aI11
aI1
aI1
aI107
aI23
aI1
aI1
aI1
aI1
aI20
aI1
aI1
aI24
aI1
aI6
aI10
aI1
aI37
aI1
aI1
aI9
aI1
aI1
aI1
aI1
aI1
aI11
aI9
aI1
aI1
aI1
aI1
aI2
aI1
aI4
aI8
aI4
aI2
aI1
aI1
aI3
aI1
aI1
aI3
aI1
aI5
aI2
aI1
aI4
aI2
aI2
aI3
aI470
aI3
aI443
aI2
aI2289
aI19
aI1
aI16
aI1
aI16
aI1
aI1
aI1
aI2
aI1
aI3
aI3
aI1
aI9
aI4
aI1
aI1
aI7
aI3
aI1
aI1
aI3
aI5
aI1
aI1
aI2
aI1
aI1
aI11
aI1
aI1
aI2
aI2
aI1
aI1
aI82
aI1
aI8
aI3
aI1
aI1
aI2
aI1
aI5
aI3
aI1
aI10
aI8
aI2
aI9
aI1
aI5
aI1
aI18
aI1
aI1
aI2
aI228
aI3
aI1
aI1
aI87
aI2
aI5
aI2
aI1
aI15
aI2
aI7
aI3
aI1
aI1
aI4
aI1
aI5
aI2
aI1
aI1
aI5
aI2
aI8
aI1
aI3
aI1
aI1
aI1
aI1
aI70
aI1
aI1
aI1
aI1
aI3
aI1
aI1
aI1
aI4
aI2
aI1
aI4
aI26
aI3
aI1
aI10
aI6
aI3
aI1
aI1
aI1
aI1
aI1
aI1
aI2
aI55
aI1
aI1
aI4
aI3
aI1
aI9
aI1
aI6
aI4
aI518
aI1
aI5
aI1
aI7
aI3
aI1
aI1
aI424
aI1
aI18
aI1
aI1
aI1
aI1
aI4
aI1
aI1
aI1
aI1
aI1
aI2
aI3
aI11
aI2
aI1
aI1
aI1
aI4
aI1
aI1
aI1
aI1
aI2
aI1
aI1
aI4
aI1
aI1
aI1
aI1
aI2
aI1
aI1
aI1
aI7
aI1
aI2
aI1
aI2
aI1
aI1
aI1
aI1
aI96
aI3
aI1
aI1
aI2
aI2
aI10
aI5
aI1
aI1
aI2
aI15
aI7
aI4
aI1
aI1
aI22
aI6
aI5
aI24
aI1
aI68
aI1
aI2
aI8
aI5
aI2
aI1
aI1
aI1
aI2
aI2
aI1
aI2
aI2
aI1
aI1
aI1
aI21
aI2
aI3
aI1
aI26
aI1
aI3
aI5
aI1
aI193
aI1
aI1
aI6
aI71
aI4
aI1
aI1
aI1
aI2
aI1
aI1
aI5
aI2
aI6
aI2
aI2
aI2
aI2
aI1
aI1
aI2
aI3
aI3
aI1
aI1
aI71
aI1
aI1
aI1
aI1
aI1
aI1
aI6
aI1
aI1
aI1
aI7
aI1
aI1
aI3
aI1
aI13
aI1
aI1
aI1
aI2
aI1
aI1
aI5
aI7
aI1
aI3
aI2
aI1
aI15
aI1
aI38
aI1
aI2
aI1
aI31
aI1
aI1
aI5
aI1
aI3
aI1
aI1
aI1
aI5
aI2
aI2
aI7
aI2
aI2
aI5
aI1
aI2
aI6
aI1
aI5
aI1
aI1
aI4
aI27
aI3
aI5
aI2
aI1
aI1
aI2
aI5
aI1
aI1
aI1
aI1
aI1
aI1
aI3
aI1
aI1
aI1
aI3
aI1
aI1
aI1
aI2
aI3
aI1
aI1
aI3
aI2
aI1
aI1
aI1
aI1
aI1
aI2
aI3
aI4
aI18
aI1
aI1
aI2
aI1
aI1
aI11
aI1
aI1
aI9
aI1
aI2
aI1
aI1
aI1
aI1
aI1
aI1
aI1
aI3
aI1
aI1
aI2
aI2
aI3
aI1
aI2
aI1
aI1
aI10
aI1
aI1
aI5
aI3
aI8
aI1
aI2
aI3
aI23
aI1
aI2
aI1
aI2
aI2
aI6
aI2
aI12
aI2
aI2
aI2
aI1
aI1
aI9
aI5
aI3
aI8
aI1
aI4
aI1
aI1
aI3
aI1
aI1
aI1
aI1
aI5
aI4
aI9
aI1
aI1
aI20
aI2
aI4
aI2
aI1
aI1
aI4
aI1
aI2
aI26
aI1
aI2
aI2
aI2
aI1
aI1
aI1
aI2
aI1
aI2
aI1
aI8
aI2
aI1
aI5
aI1
aI1
aI2
aI1
aI4
aI6
aI9
aI2
aI2
aI22
aI26
aI1
aI9
aI1
aI1
aI2
aI2
aI5
aI17
aI1
aI1
aI4
aI1
aI1
aI1
aI1
aI27
aI1
aI1
aI1
aI1
aI1
aI6
aI3
aI7
aI8
aI3
aI1
aI1
aI1
aI2
aI2
aI1
aI2
aI2
aI106
aI1
aI1
aI3
aI1
aI1
aI1
aI28
aI1
aI4
aI1
aI2
aI12
aI3
aI1
aI15
aI4
aI1
aI1
aI27
aI1
aI1
aI1
aI1
aI18
aI1
aI1
aI2
aI4
aI6
aI2
aI8
aI5
aI3
aI1
aI1
aI2
aI1
aI1
aI228
aI1
aI8
aI1
aI1
aI39
aI1
aI29
aI3
aI1
aI1
aI17
aI12
aI1
aI1
aI1
aI1
aI1
aI1
aI1
aI1
aI1
aI1
aI1
aI1
aI1
aI3
aI1
aI1
aI19
aI1
aI1
aI3
aI1
aI1
aI1
aI1
aI1
aI7
aI1
aI4
aI10
aI2
aI10
aI2
aI2
aI2
aI1
aI5
aI3
aI2
aI4
aI3
aI30
aI1
aI232
aI1
aI2
aI2
aI1
aI1
aI1
aI4
aI2
aI1
aI1
aI3
aI3
aI6
aI1
aI2
aI1
aI1
aI1
aI1
aI1
aI4
aI1
aI2
aI218
aI5
aI1
aI1
aI1
aI1
aI1
aI19
aI1
aI1
aI12
aI1
aI1
aI9
aI5
aI2
aI353
aI1
aI4
aI1
aI1
aI5
aI2
aI1
aI5
aI1
aI1
aI20
aI1
aI1
aI1
aI1
aI7
aI1
aI1
aI1
aI1
aI1
aI1
aI1
aI1
aI3
aI21
aI1
aI5
aI1
aI3
aI25
aI1
aI3
aI1
aI11
aI1
aI5
aI2
aI3
aI1
aI5
aI8
aI3
aI1
aI1
aI2
aI2
aI9
aI1
aI1
aI1
aI9
aI2
aI1
aI1
aI1
aI5
aI6
aI1
aI1
aI1
aI1
aI3
aI2
aI1
aI1
aI1
aI1
aI1
aI1
aI2
aI2
aI25
aI1
aI1
aI2
aI1
aI3
aI1
aI3
aI4
aI1
aI12
aI4
aI1
aI1
aI1
aI1
aI1
aI4
aI1
aI4
aI1
aI3
aI1
aI1
aI1
aI1
aI2
aI3
aI1
aI1
aI2
aI4
aI1
aI1
aI1
aI2
aI1
aI72
aI1
aI3
aI1
aI3
aI2
aI2
aI24
aI3
aI10
aI10
aI10
aI70
aI1
aI1
aI1
aI1
aI1
aI1
aI1
aI2
aI2
aI1
aI2
aI2
aI2
aI2
aI1
aI1
aI1
aI1
aI2
aI1
aI1
aI1
aI1
aI1
aI1
aI1
aI2
aI1
aI3
aI1
aI1
aI6
aI3
aI1
aI1
aI1
aI1
aI1
aI1
aI1
aI1
aI1
aI19
aI2
aI1
aI1
aI1
aI2
aI1
aI1
aI2
aI2
aI2
aI1
aI1
aI1
aI1
aI2
aI2
aI2
aI1
aI4
aI2
aI3
aI1
aI1
aI1
aI1
aI1
aI1
aI1
aI1
aI1
aI1
aI1
aI2
aI2
aI18
aI1
aI1
aI2
aI2
aI1
aI1
aI17
aI3
aI3
aI3
aI22
aI24
aI1
aI9
aI2
aI3
aI41
aI2
aI1
aI8
aI1
aI7
aI1
aI1
aI1
aI3
aI2
aI1
aI2
aI1
aI3
aI1
aI103
aI7
aI1
aI5
aI4
aI1
aI3
aI1
aI1
aI4
aI13
aI1
aI34
aI17
aI1
aI4
aI1
aI1
aI7
aI1
aI1
aI1
aI1
aI2
aI1
aI164
aI1
aI1
aI1
aI3
aI1
aI1
aI1
aI1
aI7
aI3
aI2
aI3
aI1
aI6
aI1
aI1
aI6
aI1
aI1
aI1
aI1
aI1
aI2
aI5
aI1
aI2
aI1
aI2
aI3
aI1
aI1
aI3
aI8
aI13
aI1
aI1
aI10
aI1
aI1
aI2
aI1
aI3
aI10
aI1
aI2
aI1
aI1
aI1
aI2
aI3
aI8
aI15
aI140
aI16
aI2
aI2
aI1
aI1
aI1
aI1
aI1
aI1
aI3
aI1
aI49
aI195
aI2
aI3
aI1
aI1
aI36
aI1
aI1
aI1
aI1
aI1
aI17
aI1
aI1
aI1
aI2
aI3
aI1
aI1
aI1
aI1
aI1
aI1
aI1
aI1
aI1
aI1
aI1
aI1
aI1
aI2
aI2
aI1
aI1
aI10
aI1
aI1
aI1
aI2
aI1
aI1
aI1
aI42
aI2
aI18
aI1
aI1
aI1
aI1
aI2
aI1
aI2
aI5
aI1
aI1
aI1
aI43
aI2
aI14
aI1
aI1
aI1
aI1
aI6
aI1
aI8
aI246
aI1
aI1
aI2
aI1
aI1
aI1
aI2
aI2
aI1
aI1
aI1
aI1
aI150
aI2
aI6
aI5
aI3
aI1
aI1
aI1
aI2
aI1
aI1
aI1
aI1
aI1
aI1
aI3
aI1
aI4
aI6
aI1
aI3
aI2
aI1
aI1
aI1
aI4
aI1
aI1
aI1
aI1
aI1
aI1
aI1
aI2
aI1
aI1
aI1
aI1
aI1
aI2
aI10
aI1
aI2
aI2
aI24
aI8
aI2
aI1
aI2
aI1
aI2
aI2
aI2
aI2
aI1
aI1
aI1
aI1
aI3
aI1
aI2
aI2
aI3
aI1
aI3
aI3
aI1
aI199
aI2
aI43
aI1
aI1
aI74
aI1
aI1
aI1
aI1
aI1
aI2
aI1
aI20
aI1
aI2
aI14
aI1
aI1
aI1
aI3
aI1
aI2
aI1
aI1
aI1
aI1
aI1
aI1
aI1
aI3
aI1
aI1
aI2
aI1
aI1
aI1
aI2
aI3
aI1
aI1
aI1
aI1
aI1
aI1
aI25
aI1
aI1
aI1
aI1
aI6
aI4
aI2
aI8
aI3
aI1
aI299
aI1
aI1
aI1
aI1
aI1
aI1
aI2
aI5
aI2
aI1120
aI2
aI1
aI1
aI1
aI1
aI2
aI2
aI1
aI2
aI1
aI2
aI2
aI1
aI6
aI1
aI1
aI1
aI12
aI3
aI4
aI1
aI1
aI2
aI1
aI2
aI2
aI1
aI1
aI1
aI1
aI1
aI1
aI1
aI2
aI1
aI1
aI6
aI3
aI1
aI5
aI3
aI1
aI1
aI1
aI2
aI1
aI1
aI1
aI1
aI2
aI5
aI6
aI1
aI1
aI1
aI1
aI2
aI1
aI4
aI1
aI2
aI2
aI1
aI1
aI1
aI3
aI3
aI1
aI1
aI2
aI1
aI2
aI1
aI1
aI10
aI1
aI1
aI1
aI1
aI1
aI1
aI1
aI1
aI1
aI1
aI3
aI1
aI2
aI4
aI1
aI1
aI16
aI1
aI2
aI1
aI2
aI1
aI15
aI1
aI9
aI51
aI80
aI2
aI1
aI1
aI3
aI20
aI2
aI2
aI1
aI2
aI2
aI13
aI10
aI1
aI1
aI1
aI1
aI1
aI11
aI1
aI2
aI30
aI1
aI7
aI11
aI1
aI1
aI1
aI1
aI1
aI5
aI1
aI1
aI1
aI3
aI1
aI10
aI1
aI1
aI1
aI1
aI2
aI1
aI1
aI83
aI1
aI1
aI1
aI1
aI1
aI1
aI11
aI1
aI9
aI2
aI3
aI3
aI1
aI6
aI1
aI1
aI2
aI1
aI1
aI4
aI4
aI2
aI5
aI1
aI3
aI1
aI1
aI2
aI1
aI4
aI1
aI3
aI1
aI1
aI35
aI2
aI1
aI1
aI1
aI1
aI1
aI1
aI1
aI1
aI1
aI1
aI1
aI1
aI5
aI24
aI2
aI5
aI2
aI1
aI13
aI1
aI1
aI2
aI2
aI1
aI1
aI4
aI1
aI1
aI3
aI1
aI1
aI4
aI7
aI1
aI84
aI3
aI1
aI1
aI1
aI1
aI6
aI2
aI3
aI1
aI3
aI1
aI1
aI1
aI1
aI4
aI1
aI1
aI1
aI2
aI1
aI4
aI24
aI2
aI2
aI1
aI2
aI1
aI19
aI1
aI1
aI3
aI1
aI1
aI2
aI1
aI1
aI1
aI1
aI1
aI2
aI1
aI15257
aI1
aI7
aI1
aI1
aI1
aI3
aI1
aI2
aI1
aI13
aI1
aI88
aI4
aI1
aI1
aI3
aI2
aI1
aI1
aI1
aI2
aI1
aI1
aI2
aI1
aI3
aI2
aI1
aI2
aI8
aI1
aI1
aI1
aI1
aI2
aI40
aI2
aI1
aI1
aI1
aI1
aI2
aI1
aI3
aI1
aI1
aI1
aI10
aI1
aI2
aI3
aI1
aI3
aI1
aI1
aI2
aI1
aI1
aI1
aI2
aI1
aI1
aI1
aI2
aI2
aI1
aI1
aI3
aI1
aI1
aI1
aI2
aI2
aI1
aI1
aI5
aI1
aI1
aI1
aI2
aI1
aI1
aI4
aI3
aI1
aI1
aI1
aI1
aI1
aI4
aI1
aI2
aI2
aI4
aI1
aI3
aI1
aI7
aI1
aI47
aI1
aI1
aI1
aI1
aI1
aI8
aI8
aI1
aI1
aI12
aI1
aI1
aI1
aI4
aI2
aI1
aI2315
aI2
aI1
aI2
aI1
aI6
aI1
aI1
aI4
aI1
aI2
aI1
aI23
aI1
aI1
aI13
aI1
aI2
aI9
aI1
aI1
aI3
aI1
aI1
aI1
aI15
aI6
aI1
aI1
aI1
aI1
aI1
aI1
aI1
aI3
aI2
aI1
aI2
aI1
aI1
aI1
aI1
aI1
aI1
aI1
aI1
aI1
aI1
aI1
aI1
aI2
aI2
aI1
aI1
aI1
aI2
aI32
aI1
aI1
aI1
aI1
aI1
aI1
aI2
aI2
aI1
aI4
aI2
aI3
aI87
aI14
aI2
aI1
aI1
aI11
aI2
aI1
aI1
aI1
aI1
aI2
aI6
aI5
aI1
aI1
aI16
aI1
aI1
aI2
aI1
aI1
aI6
aI1
aI1
aI9
aI1
aI1
aI1
aI1
aI1
aI1
aI1
aI1
aI1
aI2
aI2
aI1
aI4
aI1
aI1
aI1
aI3
aI1
aI1
aI3
aI2
aI1
aI1
aI2
aI1
aI1
aI1
aI2
aI2
aI1
aI1
aI1
aI1
aI1
aI1
aI102
aI1
aI1
aI2
aI2
aI1
aI1
aI1
aI1
aI1
aI1
aI1
aI1
aI1
aI14
aI1
aI1
aI3
aI1
aI1
aI1
aI1
aI1
aI4
aI2
aI2
aI2
aI6
aI2
aI13
aI1
aI1
aI8
aI2
aI1
aI2
aI1
aI1
aI1
aI1
aI1
aI5
aI1
aI1
aI1
aI9
aI1
aI1
aI1
aI1
aI1
aI1
aI1
aI1
aI1
aI13
aI1
aI1
aI1
aI112
aI1
aI1
aI1
aI1
aI1
aI4
aI3
aI1
aI1
aI1
aI7
aI1
aI2
aI3
aI1
aI2
aI1
aI1
aI1
aI1
aI5
aI1
aI4
aI1
aI1
aI1
aI2
aI1
aI1
aI1
aI1
aI1
aI1
aI4
aI1
aI1
aI5
aI2
aI1
aI1
aI2
aI1
aI1
aI8
aI1
aI2
aI1
aI1
aI1
aI3
aI1
aI4
aI1
aI1
aI2
aI1
aI1
aI81
aI1
aI1
aI2
aI7
aI1
aI10
aI1
aI1
aI4
aI2
aI1
aI1
aI1
aI9
aI1
aI1
aI13
aI2
aI1
aI1
aI1
aI16
aI1
aI1
aI1
aI1
aI1
aI1
aI2
aI7
aI1
aI1
aI30
aI1
aI2
aI1
aI1
aI1
aI33
aI1
aI1
aI1
aI1
aI1
aI1
aI6
aI1
aI4
aI7
aI1
aI1
aI1
aI1
aI3
aI1
aI1
aI2
aI1
aI1
aI24
aI1
aI1
aI2
aI3
aI2
aI1
aI3
aI1
aI1
aI1
aI3
aI513
aI4
aI1
aI4
aI1
aI1
aI1
aI2
aI1
aI1
aI1
aI8
aI2
aI4
aI11
aI1
aI1
aI1
aI4
aI8
aI2
aI2
aI3
aI1
aI1
aI1
aI1
aI6
aI1
aI1
aI2
aI2
aI1
aI13
aI2
aI5
aI1
aI4
aI1
aI1
aI2
aI1
aI5
aI3
aI1
aI1
aI1
aI4
aI1
aI1
aI1
aI1
aI2
aI1
aI3
aI1
aI1
aI1
aI1
aI1
aI1
aI1
aI1
aI1
aI1
aI1
aI12
aI1
aI1
aI1
aI3
aI1
aI1
aI1
aI1
aI7
aI1
aI1
aI1
aI18
aI2
aI1
aI2
aI1
aI1
aI1
aI1
aI1
aI1
aI33
aI1
aI5
aI1
aI1
aI1
aI2
aI3
aI1
aI1
aI1
aI24
aI2
aI2
aI2
aI1
aI1
aI1
aI1
aI1
aI1
aI1
aI1
aI1
aI1
aI1
aI1
aI1
aI2
aI1
aI1
aI1
aI1
aI1
aI2
aI18
aI2
aI4
aI4
aI2
aI1
aI1
aI1
aI1
aI1
aI1
aI2
aI1
aI5
aI1
aI1
aI2
aI1
aI1
aI2
aI2
aI2
aI2
aI1
aI1
aI1
aI1
aI1
aI2
aI1
aI647
aI1
aI2
aI1
aI2
aI1
aI1
aI9
aI1
aI1
aI3
aI1
aI1
aI1
aI3
aI1
aI1
aI54
aI4
aI1
aI1
aI1
aI1
aI207
aI4
aI1
aI1
aI2
aI1
aI1
aI1
aI1
aI1
aI1
aI1
aI1
aI8
aI1
aI1
aI9
aI1
aI4
aI1
aI1
aI1
aI18
aI1
aI1
aI1
aI2
aI2
aI2
aI2
aI1
aI1
aI2
aI4
aI5
aI2
aI1
aI1
aI15
aI1
aI1
aI1
aI8
aI2
aI1
aI1
aI1
aI1
aI1
aI1
aI1
aI1
aI4
aI1
aI3
aI1
aI1
aI1
aI1
aI6
aI10
aI2
aI1
aI1
aI1
aI1
aI1
aI1
aI1
aI1
aI1
aI3
aI1
aI2
aI1
aI3
aI1
aI1
aI1
aI2
aI1
aI16
aI1
aI1
aI1
aI4
aI2
aI1
aI1
aI1
aI1
aI5
aI1
aI1
aI2
aI1
aI1
aI1
aI18
aI1
aI3
aI9
aI1
aI2
aI1
aI1
aI2
aI3
aI1
aI1
aI92
aI2
aI2
aI1
aI4
aI10
aI1
aI1
aI1
aI1
aI5
aI1
aI1
aI1
aI14
aI1
aI5
aI611
aI1
aI1
aI11
aI13
aI5
aI1
aI1
aI1
aI120
aI6
aI1
aI1
aI1
aI2
aI1
aI1
aI1
aI3
aI1
aI1
aI1
aI1
aI35
aI1
aI1
aI1
aI16
aI1
aI1
aI58
aI1
aI1
aI1
aI1
aI1
aI1
aI2
aI1
aI1
aI1
aI18
aI1
aI1
aI1
aI6
aI1
aI1
aI3
aI1
aI1
aI1
aI16
aI1
aI2
aI2
aI1
aI1
aI1
aI2
aI1
aI1
aI1
aI1
aI1
aI2
aI5
aI2
aI1
aI1
aI1
aI1
aI2
aI1
aI1
aI672
aI3
aI7
aI1
aI2
aI2
aI2
aI1
aI3
aI2
aI12
aI1
aI4
aI1
aI1
aI1
aI1
aI1
aI1
aI39
aI2
aI1
aI10
aI2
aI1
aI1
aI1
aI1
aI5
aI18
aI1
aI12
aI1
aI1
aI3
aI1
aI2
aI1
aI3
aI4
aI2
aI1
aI1114
aI1
aI7
aI1
aI2
aI1
aI2
aI1
aI2
aI4
aI5
aI1
aI1
aI1
aI2
aI1
aI1
aI1
aI1
aI1
aI1
aI106
aI1
aI1
aI3
aI1
aI4
aI1
aI2
aI1
aI1
aI1
aI5
aI2
aI1
aI3
aI1
aI1
aI2
aI1
aI2
aI1
aI226
aI1
aI1
aI49
aI18
aI1
aI1
aI1
aI4
aI1
aI3
aI1
aI1
aI1
aI1
aI5
aI1
aI1
aI1
aI2
aI1
aI3
aI1
aI8
aI1
aI1
aI1
aI3
aI2
aI1
aI2
aI1
aI64
aI1
aI1
aI31
aI7
aI1
aI1
aI1
aI1
aI30
aI2
aI1
aI1
aI6
aI1
aI1
aI4
aI1
aI2
aI1
aI2
aI1
aI1
aI1
aI1
aI41
aI2
aI1
aI5
aI3
aI3
aI1
aI2
aI2
aI1
aI5
aI5
aI2
aI1
aI8
aI1
aI1
aI1
aI2
aI2
aI82
aI2
aI3
aI2
aI1
aI6
aI9
aI1
aI2
aI1
aI1
aI1
aI4
aI1
aI5
aI1
aI1
aI3
aI1
aI1
aI1
aI1
aI1
aI4
aI1
aI1
aI1
aI1
aI2
aI7
aI7
aI1
aI1
aI1
aI2
aI2
aI6
aI1
aI2
aI1
aI3
aI1
aI1
aI1
aI1
aI1
aI3
aI1
aI1
aI1
aI1
aI1
aI1
aI2
aI3
aI1
aI1
aI1
aI2
aI12
aI2
aI1
aI1
aI1
aI1
aI2
aI9
aI9
aI1
aI3
aI1
aI1
aI1
aI1
aI1
aI1
aI1
aI1
aI1
aI4
aI1
aI1
aI1
aI9
aI211
aI1
aI1
aI1
aI1
aI1
aI1
aI1
aI1
aI24
aI1
aI1
aI1
aI1
aI1
aI1
aI1
aI1
aI3
aI1
aI1
aI2
aI1
aI1
aI1
aI4
aI1
aI1
aI3
aI1
aI1
aI2
aI1
aI1
aI26
aI22
aI11
aI1
aI7
aI1
aI36
aI3
aI1
aI1
aI4
aI1
aI2
aI11
aI1
aI8
aI8
aI37
aI9
aI3
aI2
aI2
aI2
aI1
aI11
aI1
aI5
aI3
aI3
aI2
aI1
aI1
aI2
aI1
aI1
aI2
aI1
aI1
aI7
aI6
aI1
aI1
aI1
aI3
aI5
aI47
aI48
aI2
aI1
aI2
aI7
aI1
aI14
aI1
aI1
aI1
aI1
aI6
aI1
aI1
aI1
aI1
aI1
aI1
aI1
aI74
aI1
aI1
aI1
aI2
aI34
aI2
aI1
aI1
aI1
aI1
aI1
aI8
aI1
aI2
aI7
aI2
aI2
aI1
aI4
aI1
aI3
aI1
aI1
aI1
aI1
aI4
aI1
aI388
aI1
aI505
aI1
aI1
aI8
aI5
aI1
aI1
aI1
aI2
aI6
aI2
aI1
aI1
aI1
aI1
aI2
aI1
aI1
aI1
aI1
aI1
aI1
aI3
aI1
aI1
aI1
aI2
aI1
aI1
aI1
aI3
aI1
aI1
aI1
aI3
aI353
aI61
aI1
aI1
aI6
aI1
aI1
aI1
aI1
aI1
aI1
aI2
aI1
aI1
aI1
aI6
aI3
aI5
aI11
aI1
aI1
aI1
aI1
aI1
aI2
aI1
aI1
aI1
aI1
aI1
aI1
aI1
aI3
aI1
aI3
aI107
aI1
aI1
aI1
aI3
aI1
aI1
aI1
aI1
aI1
aI2
aI3
aI1
aI1
aI1
aI21
aI1
aI5
aI1
aI1
aI2
aI2
aI1
aI4
aI2
aI1
aI2
aI1
aI1
aI1
aI2
aI1
aI2
aI18
aI1
aI13
aI1
aI1
aI1
aI1
aI1
aI1
aI1
aI1
aI1
aI2
aI1
aI1
aI1
aI1
aI1
aI3
aI1
aI1
aI2
aI9
aI1
aI1
aI1
aI1
aI1
aI1
aI1
aI1
aI1
aI1
aI2
aI1
aI22
aI1
aI1
aI10
aI1
aI1
aI4
aI2
aI2
aI301
aI1
aI3
aI1
aI3
aI1
aI4
aI141
aI19
aI3
aI2
aI1
aI28
aI2
aI5
aI1
aI21
aI1
aI1
aI1
aI87
aI1
aI1
aI1
aI1
aI1
aI1
aI8
aI1
aI1
aI1
aI1
aI1
aI1
aI29
aI1
aI1
aI5
aI1
aI1
aI1
aI1
aI1
aI1
aI1
aI2
aI1
aI13309
aI1
aI1
aI1
aI1
aI3
aI1
aI4
aI69
aI1
aI1
aI1
aI1
aI1
aI1
aI2
aI1
aI4
aI45
aI2
aI1
aI1
aI1
aI5
aI2
aI2
aI3
aI3
aI4
aI2
aI1
aI2
aI1
aI98
aI52
aI1
aI1
aI1
aI1
aI1
aI1
aI1
aI4
aI1
aI1
aI1
aI1
aI1
aI1
aI1
aI3
aI1
aI1
aI1
aI1
aI2
aI3
aI2
aI1
aI1
aI5
aI1
aI1
aI1
aI1
aI1
aI1
aI2
aI2
aI1
aI1
aI3
aI1
aI2
aI15
aI1
aI429
aI3
aI5
aI6
aI1
aI1
aI7
aI1
aI4
aI3
aI1
aI4
aI1
aI1
aI1
aI1
aI2
aI1
aI1
aI1
aI1
aI2
aI1
aI1
aI1
aI1
aI1
aI3
aI1
aI4
aI4
aI7
aI1
aI1
aI1
aI1
aI1
aI7
aI1
aI1
aI1
aI1
aI17
aI1
aI17
aI1
aI3
aI2
aI1
aI46
aI1
aI1
aI2
aI1
aI1
aI2
aI5
aI47
aI1
aI1
aI1
aI1
aI2
aI1
aI1
aI1
aI2
aI1
aI1
aI1
aI1
aI9
aI1
aI1
aI1
aI2
aI1
aI1
aI1
aI2
aI1
aI1
aI2
aI11
aI2
aI3
aI1
aI1
aI3
aI1
aI2
aI1
aI1
aI6
aI2
aI2
aI2
aI1
aI2
aI3
aI14
aI2
aI1
aI1
aI1
aI4
aI1
aI1
aI2
aI1
aI15
aI1
aI1
aI3
aI1
aI1
aI1
aI1
aI1
aI1
aI1
aI1
aI5
aI57
aI3
aI1
aI1
aI4
aI1
aI1
aI1
aI1
aI1
aI3
aI2
aI58
aI1
aI1
aI1
aI1
aI1
aI3
aI1
aI7
aI11
aI1
aI1
aI1
aI1
aI1
aI2
aI1
aI3
aI12
aI423
aI1
aI16
aI1
aI43
aI1
aI3
aI1
aI1
aI1
aI1
aI1
aI1
aI1
aI1
aI1
aI1
aI1
aI1
aI1
aI9
aI1
aI1
aI2
aI1
aI2
aI13
aI1
aI1
aI4
aI1
aI1
aI1
aI1
aI1
aI170
aI13
aI1
aI5
aI10
aI1
aI1
aI125
aI1
aI1
aI3
aI1
aI1
aI1
aI1
aI10
aI1
aI1
aI1
aI88
aI1
aI2
aI2
aI1
aI7
aI1
aI1
aI1
aI1
aI3
aI12
aI5
aI3
aI4
aI1
aI10
aI1
aI1
aI1
aI1
aI1
aI1
aI2
aI2
aI3
aI1
aI1
aI1
aI1
aI3
aI1
aI32
aI9
aI701
aI1
aI8
aI2
aI2
aI2
aI16
aI2
aI9
aI1
aI1
aI3
aI1
aI6
aI1
aI3
aI1
aI2
aI2
aI1
aI1
aI3
aI2
aI4
aI3
aI2
aI1
aI1
aI1
aI1
aI1
aI1
aI1
aI1
aI4
aI1
aI1
aI1
aI1
aI64
aI1
aI5
aI1
aI1
aI1
aI47
aI1
aI1
aI4
aI2
aI1
aI7
aI2
aI1
aI25
aI1
aI2
aI1
aI70
aI102
aI1
aI54
aI3
aI147
aI1
aI1
aI1
aI49
aI1
aI6
aI1
aI1
aI1
aI1
aI192
aI20
aI1
aI1221
aI1
aI1
aI2
aI1
aI1
aI5
aI1
aI18
aI2
aI2
aI13
aI1
aI1
aI1
aI3
aI1
aI8
aI51
aI1
aI5
aI8
aI1
aI1
aI13
aI1
aI1
aI286
aI1
aI1
aI1
aI2
aI2
aI1
aI1
aI1
aI2
aI1
aI52
aI1
aI15
aI62
aI8
aI1
aI1
aI1
aI1
aI1
aI1
aI1
aI2
aI3
aI3
aI2
aI1
aI1
aI6
aI1
aI1
aI3
aI1
aI1
aI1
aI3
aI1
aI1
aI2
aI1
aI1
aI1
aI1
aI1
aI1
aI1
aI7
aI1
aI6
aI1
aI4
aI1
aI3
aI1
aI1
aI3
aI1
aI1
aI1
aI1
aI3
aI1
aI1
aI1
aI1
aI1
aI1
aI20
aI1
aI1
aI1
aI1
aI1
aI2
aI1
aI4
aI1
aI1
aI1
aI1
aI28
aI1
aI2
aI1
aI1
aI1
aI17
aI2
aI1
aI18
aI2
aI1
aI1
aI2
aI226
aI1
aI2
aI3
aI1
aI1
aI1
aI1
aI1
aI1
aI1
aI1
aI1
aI1
aI1
aI1
aI1
aI1
aI3
aI2
aI7
aI3
aI2
aI5
aI8
aI1
aI1
aI4
aI5
aI1
aI1
aI1
aI2
aI1
aI1
aI4
aI51
aI3
aI11
aI209
aI1
aI1
aI1
aI268
aI1
aI2
aI2
aI1
aI4
aI1
aI7
aI4
aI1
aI1
aI1
aI1
aI1
aI2
aI18
aI2
aI1
aI1
aI1
aI1
aI1
aI1
aI203
aI1
aI1
aI1
aI5
aI1
aI1
aI2
aI9
aI1
aI29
aI11
aI2
aI27
aI1
aI14
aI1
aI1
aI1
aI1
aI4
aI1
aI2
aI684
aI1
aI1
aI1
aI38
aI4
aI1
aI1
aI2
aI2
aI12
aI1
aI2
aI1
aI3
aI1
aI1
aI3
aI1
aI1
aI1
aI1
aI1
aI1
aI2
aI1
aI5
aI44
aI13
aI1
aI1
aI1
aI1
aI52
aI1
aI1
aI84
aI1
aI2
aI6
aI3
aI1
aI1
aI9
aI4
aI1
aI1
aI3
aI13
aI14
aI1
aI14
aI8
aI1
aI1
aI1
aI1
aI1
aI2
aI2
aI2
aI39
aI5
aI1
aI1
aI1
aI1
aI1
aI1
aI1
aI1
aI1
aI2
aI1
aI1
aI4
aI1
aI1
aI1
aI1
aI2
aI1
aI1
aI2
aI16
aI1
aI1
aI1
aI3
aI1
aI3
aI1
aI1
aI5
aI3
aI1
aI1
aI1
aI1
aI4
aI2
aI11
aI33
aI1
aI1
aI4
aI2
aI2
aI1
aI2
aI2
aI3
aI1
aI1
aI4
aI1
aI2
aI1
aI3
aI1
aI3
aI3
aI1
aI1
aI11
aI1
aI2
aI1
aI1
aI1
aI4
aI2
aI1
aI2
aI3
aI1
aI33
aI1
aI4
aI1
aI1
aI1
aI1
aI3
aI1
aI3
aI1
aI1
aI1
aI4
aI1
aI13
aI1
aI2
aI1
aI1
aI1
aI2
aI1
aI1
aI1
aI3
aI1
aI279
aI1
aI1
aI1
aI3
aI1
aI4
aI3
aI1
aI1
aI1
aI5
aI4
aI60
aI64
aI1
aI3
aI1
aI29
aI1
aI1
aI1
aI2
aI1
aI1
aI1
aI24
aI4
aI4
aI399
aI4
aI21
aI1
aI1
aI2
aI1
aI3
aI1
aI1
aI1
aI1
aI1
aI1
aI1
aI1
aI1
aI1
aI1
aI1
aI1
aI1
aI1
aI1
aI1
aI2
aI1
aI1
aI1
aI3
aI1
aI18
aI4
aI1
aI1
aI1
aI1
aI1
aI3
aI28
aI1
aI31
aI1
aI2
aI1
aI7
aI1
aI1
aI2
aI1
aI1
aI1
aI1
aI2
aI1
aI1
aI1
aI1
aI8
aI1
aI5
aI1
aI1
aI1
aI1
aI1
aI1
aI1
aI16
aI7
aI1
aI3
aI2
aI2
aI1
aI1
aI3
aI1
aI2
aI1
aI6
aI2
aI2
aI1
aI1
aI1
aI1
aI1
aI22
aI1
aI2
aI1
aI1
aI1
aI12
aI1
aI1
aI2
aI1
aI1
aI15
aI2
aI1
aI1
aI1
aI2
aI6
aI1
aI34
aI3
aI20
aI1
aI1
aI1
aI3
aI1
aI1
aI4
aI1
aI1
aI1
aI1
aI1
aI1
aI16
aI1
aI1
aI1
aI1
aI1
aI1
aI5
aI1
aI11
aI1
aI1
aI1
aI1
aI1
aI9
aI1
aI21
aI11
aI1
aI5
aI34
aI1
aI1
aI41
aI6
aI11
aI1
aI5
aI17
aI1
aI1
aI1
aI1
aI1
aI1
aI1
aI12
aI8
aI12
aI1
aI1
aI1
aI22
aI1
aI1
aI1
aI1
aI1
aI1
aI1
aI2
aI1
aI1
aI1
aI1
aI1
aI12
aI1
aI10
aI2
aI288
aI1
aI15
aI1
aI9
aI2
aI1
aI6
aI7
aI1
aI1
aI1
aI2
aI1
aI1
aI2
aI1
aI10
aI7
aI1
aI1
aI4
aI2
aI15
aI1
aI1
aI5
aI1
aI2
aI2
aI1
aI1
aI1
aI1
aI1
aI1
aI1
aI2
aI17
aI1
aI2
aI1
aI3
aI3
aI1
aI6
aI28
aI1
aI4
aI1
aI49
aI3
aI1
aI11
aI1
aI2
aI1
aI6
aI3
aI10
aI1
aI1
aI1
aI203
aI5
aI8
aI1
aI1
aI1
aI1
aI3
aI23
aI1
aI6
aI1
aI1
aI1
aI1
aI1
aI1
aI1
aI1
aI1
aI1
aI9
aI1
aI4
aI1
aI1
aI2
aI1
aI1
aI1
aI1
aI3
aI1
aI1
aI1
aI3
aI1
aI2
aI2
aI1
aI4
aI1
aI8
aI43
aI1
aI5
aI5
aI2
aI1
aI1
aI1
aI1
aI1
aI1
aI1
aI1
aI1
aI1
aI1588
aI1
aI150
aI8
aI2
aI1
aI1
aI1
aI1
aI5
aI1
aI4
aI1
aI4
aI1
aI1
aI59
aI7
aI1
aI1
aI9
aI1
aI1
aI1
aI1
aI1
aI1
aI1
aI1
aI1
aI51
aI1
aI1
aI3
aI2
aI2
aI9
aI1
aI1
aI2
aI2
aI1
aI1
aI1
aI2
aI3
aI9
aI1
aI2
aI1
aI3
aI1
aI1
aI16
aI4
aI1
aI1
aI1
aI6
aI2
aI1
aI1
aI3
aI1
aI2
aI21
aI3
aI1
aI1
aI1
aI1
aI4
aI1
aI1
aI4
aI1
aI3
aI1
aI7
aI1
aI3
aI1
aI7
aI1
aI1
aI1
aI74
aI2
aI2
aI5
aI1
aI4
aI1
aI244
aI1
aI2
aI1
aI2
aI1
aI1
aI1
aI6
aI1
aI1
aI6
aI1
aI6
aI6
aI1
aI1
aI176
aI1
aI1
aI1
aI1
aI1
aI1
aI1
aI15
aI1
aI1
aI4
aI2
aI1
aI1
aI1190
aI2
aI2
aI1
aI6
aI1
aI2
aI4
aI2
aI1
aI1
aI4
aI1
aI1
aI31
aI5
aI5
aI347
aI1
aI2
aI1
aI1
aI1
aI1
aI1
aI6
aI1
aI16
aI2
aI47
aI98
aI2
aI1
aI1
aI1
aI1
aI1
aI1
aI1
aI1
aI6
aI5
aI3
aI27
aI1
aI2
aI2
aI2
aI2
aI4
aI2
aI6
aI1
aI6
aI1
aI1
aI2
aI1
aI1
aI2
aI1
aI1
aI1
aI1
aI1
aI1
aI1
aI3
aI3
aI6
aI1
aI8
aI6
aI2
aI2
aI3
aI4
aI2
aI3
aI1
aI1
aI1
aI1
aI6
aI1
aI2
aI2
aI1
aI1
aI2
aI1
aI1
aI1
aI1
aI1
aI2
aI2
aI203
aI197
aI1
aI1
aI3
aI4
aI2
aI1
aI1
aI6
aI1
aI1
aI1
aI1
aI1
aI1
aI1
aI1
aI1
aI1
aI1
aI1
aI1
aI1
aI2
aI4
aI1
aI1
aI2
aI1
aI1
aI1
aI52
aI1
aI1
aI1
aI5
aI4
aI2
aI2
aI10
aI1
aI1
aI5
aI1
aI2
aI1
aI1
aI1
aI1
aI1
aI1
aI1
aI2
aI1
aI12
aI1
aI2
aI1
aI4
aI19
aI1
aI1
aI2
aI5
aI1
aI2
aI4
aI1
aI1
aI1
aI1
aI1
aI4
aI1
aI1
aI1
aI1
aI4
aI1
aI1
aI1
aI15
aI1
aI2
aI4
aI1
aI17
aI2
aI15
aI1
aI7
aI1
aI1
aI1
aI1
aI2
aI2
aI9
aI4
aI1
aI1
aI1
aI1
aI1
aI1
aI1
aI3
aI5
aI5
aI1
aI11
aI1
aI2
aI2
aI2
aI2
aI19
aI1
aI2
aI9
aI2
aI1
aI1
aI5
aI1
aI1
aI1
aI1
aI1
aI1
aI1
aI1
aI1
aI1
aI12
aI2
aI1
aI4
aI1
aI3
aI3
aI15
aI1
aI2
aI13
aI1
aI1
aI1
aI1
aI1
aI3
aI1
aI3
aI1
aI4
aI1
aI2
aI3
aI2
aI2
aI8
aI1
aI1
aI1
aI1
aI2
aI2
aI5
aI1
aI1
aI2
aI1
aI26
aI1
aI1
aI1
aI1
aI1
aI1
aI1
aI2
aI2
aI1
aI1
aI1
aI1
aI1
aI7
aI2
aI1
aI6
aI1
aI1
aI10
aI1
aI2
aI1
aI1
aI2
aI1
aI1
aI1
aI2
aI1
aI1
aI1
aI5
aI1
aI3
aI1
aI1
aI3
aI1
aI2
aI1
aI1
aI1
aI1
aI2
aI1
aI1
aI1
aI2
aI1
aI2
aI4
aI3
aI2
aI3
aI1
aI1
aI3
aI1
aI1
aI1
aI3
aI53
aI1
aI2
aI4
aI1
aI2
aI1
aI1
aI3
aI1
aI1
aI1
aI1
aI24
aI1
aI1
aI11
aI2
aI1
aI1
aI1
aI2
aI1
aI1
aI2
aI1
aI3
aI67
aI1
aI12
aI2
aI1
aI6
aI1
aI6
aI1
aI21
aI2
aI1
aI1
aI3
aI6
aI1
aI1
aI2
aI2
aI1
aI1
aI3
aI7
aI1
aI1
aI14
aI4
aI2
aI4
aI1
aI2
aI2
aI3
aI24
aI2
aI2
aI3
aI2
aI2
aI1
aI1
aI2
aI1
aI5
aI1
aI1
aI1
aI3
aI1
aI1
aI1
aI1
aI3
aI1
aI1
aI3
aI1
aI1
aI1
aI1
aI1
aI3
aI1
aI1
aI42
aI1
aI3
aI1
aI3
aI1
aI2
aI16
aI19
aI1
aI1
aI1
aI1
aI1
aI1
aI2
aI1
aI1
aI45
aI1
aI2
aI2
aI1
aI1
aI4
aI1
aI3
aI1
aI3
aI9
aI1
aI1
aI1
aI1
aI2
aI1
aI1
aI3
aI1
aI1
aI2
aI2
aI1
aI1
aI1
aI2
aI1
aI1
aI1
aI1
aI1
aI1
aI1
aI465
aI1
aI1
aI1
aI1
aI1
aI1
aI1
aI2
aI3
aI2
aI1
aI18
aI1
aI1
aI6
aI1
aI1
aI1
aI737
aI2
aI1
aI2
aI1
aI3
aI12
aI1
aI1
aI3
aI2
aI1
aI2
aI1
aI12
aI1
aI2
aI6
aI1
aI1
aI2
aI1
aI2
aI9
aI1
aI1
aI62
aI2
aI3
aI3
aI1
aI1
aI1
aI1
aI1
aI2
aI1
aI1
aI1
aI2
aI1
aI2
aI1
aI1
aI1
aI161
aI1
aI17
aI10
aI2
aI1
aI1
aI12
aI1
aI6
aI1
aI340
aI4
aI6
aI1
aI1
aI2
aI1
aI4
aI57
aI1
aI1
aI1
aI2
aI1
aI1
aI1
aI3
aI3
aI2
aI2
aI3
aI3
aI5
aI1
aI1
aI1
aI1
aI3
aI4
aI1
aI1
aI71
aI1
aI1
aI1
aI1
aI2
aI1
aI16
aI1
aI1
aI1
aI3
aI1
aI4
aI6
aI2
aI1
aI1
aI1
aI1
aI3
aI1
aI1
aI1
aI1
aI5
aI2
aI2
aI1
aI1
aI1
aI3
aI2
aI1
aI8
aI3
aI1
aI1
aI7
aI1
aI3
aI1
aI3
aI1
aI4
aI2
aI1
aI1
aI1
aI4
aI1
aI1
aI1
aI5
aI1
aI1
aI4
aI1
aI2
aI1
aI1
aI12
aI2
aI1
aI270
aI1
aI1
aI4
aI1
aI1
aI1
aI1
aI5
aI1
aI84
aI3
aI1
aI3
aI4
aI2
aI1
aI7
aI2
aI2
aI1
aI1
aI1
aI1
aI3
aI3
aI1
aI1
aI2
aI1
aI1
aI1
aI1
aI1
aI1
aI1
aI1
aI1
aI19
aI2
aI2
aI1
aI1
aI5
aI2
aI1
aI2
aI1
aI21
aI6
aI1
aI1
aI1
aI1
aI1
aI1
aI4
aI1
aI2
aI5
aI3
aI1
aI3
aI1
aI9
aI4
aI1
aI10
aI1
aI1
aI1
aI1
aI1
aI2
aI1
aI1
aI5
aI1
aI2
aI1
aI1
aI9
aI1
aI1
aI11
aI8
aI1
aI1
aI1
aI3
aI1
aI1
aI1
aI1
aI8
aI9
aI1
aI1
aI5
aI9
aI1
aI1
aI1
aI2
aI2
aI5
aI2
aI2
aI1
aI6
aI3
aI45
aI1
aI1
aI1
aI4
aI2
aI3
aI1
aI1
aI1
aI3
aI2
aI1
aI7
aI2
aI1
aI3
aI2
aI20
aI5
aI1
aI4
aI13
aI1
aI1
aI2
aI3
aI1
aI5
aI1
aI1
aI1
aI3
aI1
aI1
aI2
aI4
aI1
aI1
aI1
aI3
aI1
aI3
aI1
aI28
aI5
aI2
aI126
aI2
aI1
aI3
aI2
aI1
aI1
aI2
aI1
aI1
aI1
aI1
aI14
aI1
aI1
aI1
aI16
aI1
aI7
aI1
aI1
aI1
aI2
aI1
aI1
aI1
aI23
aI2
aI7
aI1
aI1
aI1
aI1
aI1
aI1
aI4
aI1
aI1
aI2
aI2
aI22
aI1
aI1
aI3
aI2
aI1
aI2
aI1
aI1
aI3
aI5
aI2
aI1
aI2
aI1
aI2
aI2
aI14
aI2
aI1
aI1
aI1
aI1
aI1
aI1
aI1
aI1
aI6
aI1
aI1
aI1
aI2
aI2
aI1
aI1
aI9
aI4
aI77
aI1
aI2
aI1
aI2
aI1
aI1
aI2
aI1
aI3
aI3
aI1
aI1
aI9
aI2
aI6
aI1
aI1
aI1
aI1
aI10
aI1
aI3
aI2
aI2
aI7
aI1
aI1
aI1
aI3
aI12
aI1
aI2
aI2
aI1
aI2
aI1
aI4
aI1
aI5
aI3
aI2
aI54
aI1
aI13
aI2
aI1
aI1
aI1
aI1
aI1
aI1
aI1
aI3
aI1
aI5
aI4
aI1
aI1
aI2
aI2
aI4
aI4
aI1
aI3
aI5
aI1
aI1
aI1
aI4
aI1
aI1
aI1
aI3
aI2
aI1
aI1
aI1
aI1
aI1
aI2
aI6
aI1
aI8
aI7
aI1
aI17
aI528
aI5
aI1
aI14
aI1
aI10
aI1
aI3
aI1
aI1
aI1
aI2
aI6
aI1
aI1
aI1
aI1
aI2
aI2
aI1
aI1
aI1
aI30
aI12
aI1
aI1
aI52
aI2
aI1
aI14
aI1
aI1
aI1
aI112
aI3
aI2
aI3
aI1
aI7
aI2
aI1
aI1
aI3
aI6
aI1
aI5
aI3
aI1
aI13
aI1
aI1
aI4
aI1
aI1
aI2
aI1
aI3
aI3
aI6
aI4
aI184
aI1
aI3
aI1
aI1
aI6
aI1
aI1
aI1
aI1
aI1
aI1
aI3
aI2
aI10
aI1
aI1
aI1
aI1
aI1
aI1
aI1
aI1
aI5
aI1
aI8
aI5
aI1
aI4
aI2
aI1
aI226
aI1
aI2
aI6
aI3
aI1
aI2
aI79
aI1
aI1
aI1
aI1
aI1
aI1
aI1
aI21
aI1
aI1
aI1
aI1
aI158
aI1
aI2
aI1
aI3
aI9
aI1
aI1
aI1
aI1
aI1
aI1
aI1
aI2
aI7
aI1
aI3
aI1
aI1
aI2
aI14
aI1
aI1
aI4
aI1
aI2
aI1
aI8
aI1
aI1
aI1
aI2
aI4
aI1
aI4
aI4
aI1
aI1
aI2
aI164
aI1
aI4
aI24
aI2
aI1
aI3
aI2
aI1
aI6
aI1
aI53
aI12
aI1
aI1
aI6
aI1
aI5
aI1
aI12
aI4
aI69
aI1
aI1
aI1
aI20
aI1
aI2
aI1
aI1
aI1
aI2
aI2
aI1
aI1
aI1
aI5
aI1
aI2
aI3
aI1
aI1
aI11
aI4
aI138
aI1
aI1
aI2
aI1
aI1
aI1
aI1
aI1
aI1
aI3
aI1
aI1
aI1
aI9
aI1
aI5
aI7
aI1
aI2
aI1
aI1
aI1
aI3
aI3
aI1
aI2
aI1
aI1
aI1
aI2
aI6
aI1
aI1
aI1
aI2
aI3
aI19
aI6
aI1
aI15
aI1
aI2
aI1
aI3
aI3
aI26
aI3
aI3
aI3
aI1
aI4
aI1
aI6
aI66
aI5
aI2
aI1
aI1
aI1
aI1
aI2
aI26
aI1
aI1
aI3
aI1
aI1
aI1
aI1
aI4
aI1
aI12
aI1
aI8
aI4
aI56
aI1
aI1
aI1
aI1
aI7
aI1
aI1
aI1
aI1
aI1
aI1
aI1
aI1
aI1
aI2
aI2
aI1
aI17
aI1
aI1
aI14
aI1
aI1
aI2
aI5
aI3
aI1
aI1
aI1
aI1
aI1
aI1
aI1
aI1
aI1
aI1
aI1
aI1
aI1
aI1
aI2
aI236
aI3
aI1
aI2
aI1
aI2
aI1
aI1
aI1
aI26
aI1
aI1
aI1
aI20383
aI2
aI1
aI1
aI4
aI2
aI1
aI2
aI2
aI3
aI1
aI1
aI13
aI2
aI2
aI1
aI9
aI1
aI1
aI1
aI3
aI1
aI3
aI4
aI1
aI1
aI5
aI8
aI2
aI12
aI3
aI4
aI1
aI1
aI13
aI2
aI9
aI3
aI4
aI3
aI3
aI1
aI1
aI2
aI5
aI2
aI1
aI1
aI3
aI2
aI9
aI1
aI1
aI2
aI1
aI7
aI1
aI2
aI534
aI1
aI1
aI841
aI1
aI1
aI1
aI1
aI1
aI1
aI25
aI1
aI2
aI2
aI2
aI1
aI1
aI2
aI1
aI4
aI5
aI2
aI3
aI2
aI12
aI3
aI7
aI5
aI1
aI12
aI2
aI1
aI1
aI4
aI1
aI1
aI1
aI1
aI1
aI1
aI1
aI2
aI1
aI1
aI12
aI2
aI1
aI2
aI1
aI1
aI1
aI4
aI1
aI2
aI1
aI1
aI1
aI1
aI1
aI2
aI1
aI19
aI2
aI1
aI1
aI1
aI2
aI4
aI1
aI1
aI2
aI1
aI2
aI1
aI1
aI1
aI1
aI5
aI1
aI1
aI1
aI1
aI1
aI2
aI3
aI2
aI2
aI4
aI3
aI4
aI35
aI5
aI2
aI1
aI3
aI2
aI4
aI1
aI1
aI1
aI28
aI4
aI53
aI1
aI2
aI2
aI13
aI2
aI1
aI1
aI1
aI2
aI2
aI4
aI1
aI1
aI1
aI1
aI1
aI2
aI2
aI3
aI1
aI25
aI2
aI7
aI2
aI2
aI1
aI1
aI1
aI77
aI1
aI1
aI1
aI1
aI3
aI2
aI4
aI3
aI6
aI2
aI1
aI1
aI2
aI1
aI1
aI1
aI5
aI1
aI1
aI10
aI2
aI7
aI2
aI2
aI5
aI4
aI7
aI9
aI1
aI2
aI34
aI2
aI3
aI3
aI5
aI1
aI1
aI1
aI5
aI1
aI1
aI1
aI1
aI1
aI3
aI3
aI3
aI1
aI13
aI1
aI2
aI1
aI1
aI1
aI1
aI5
aI2
aI2
aI10
aI1
aI3
aI1
aI1
aI3
aI1
aI1
aI1
aI9
aI1
aI1
aI1
aI1
aI1
aI53
aI1
aI2
aI62
aI2
aI14
aI1
aI1
aI2
aI2
aI4
aI19
aI4
aI55
aI3
aI1
aI6
aI1
aI1
aI18
aI2
aI2
aI104
aI1
aI1
aI32
aI6
aI1
aI1
aI44
aI75
aI1
aI1
aI1
aI2
aI1
aI4
aI1
aI4
aI1
aI1
aI43
aI189
aI1
aI1
aI2
aI1
aI2
aI2
aI1
aI3
aI8
aI1
aI4
aI3
aI1
aI1
aI2
aI7
aI1
aI10
aI58
aI1
aI6
aI1
aI1
aI1
aI1
aI1
aI1
aI4
aI1
aI2
aI2
aI5
aI1
aI5
aI3
aI1
aI1
aI1
aI1
aI33
aI1
aI8
aI1
aI7
aI3
aI12
aI1
aI8
aI2
aI1
aI1
aI1
aI1
aI1
aI2
aI9
aI1
aI9
aI4
aI2
aI3
aI1
aI1
aI8
aI1
aI1
aI1
aI1
aI1
aI3
aI1
aI1
aI1
aI2
aI1
aI1
aI1
aI1
aI4
aI1
aI1
aI1
aI1
aI1
aI1
aI1
aI1
aI9
aI2
aI2
aI1580
aI1
aI1
aI2
aI4
aI1
aI1
aI3
aI4
aI3
aI2
aI9
aI1
aI2
aI1
aI3
aI30
aI3
aI1
aI1
aI1
aI1
aI1
aI1
aI2
aI2
aI1
aI1
aI1
aI3
aI1
aI18
aI2
aI1
aI11
aI2
aI1
aI103
aI2
aI4
aI1
aI1
aI1
aI1
aI1
aI1
aI1
aI4
aI2
aI8
aI1
aI1
aI1
aI2
aI1
aI2
aI1
aI1
aI4
aI1
aI1
aI12
aI1
aI1
aI1
aI1
aI1
aI1
aI2
aI1
aI14
aI544
aI4
aI55
aI1
aI1
aI1
aI1
aI1
aI1
aI2
aI22
aI5
aI57
aI1
aI2
aI51
aI1
aI1
aI1
aI2
aI50
aI9
aI2
aI4
aI1
aI1
aI1
aI2
aI22
aI3
aI1
aI1
aI1
aI1
aI2
aI1
aI6
aI1
aI5
aI5
aI1
aI5
aI1
aI1
aI8
aI2
aI1
aI1
aI1
aI1
aI8
aI6
aI2
aI5
aI6
aI1
aI1
aI2
aI4
aI197
aI2
aI2
aI4
aI4
aI1
aI1
aI2
aI1
aI1
aI1
aI2
aI1
aI1
aI1
aI1
aI1
aI1
aI2
aI6
aI1
aI1
aI1
aI16
aI1
aI10
aI1
aI1
aI1
aI1
aI1
aI4
aI1
aI4
aI2
aI1
aI1
aI1
aI1
aI2
aI1
aI1
aI1
aI1
aI1
aI4
aI1
aI69
aI3
aI1
aI3
aI2
aI1
aI2
aI62
aI1
aI1
aI1
aI1
aI1
aI1
aI1
aI30
aI25
aI10
aI3
aI2
aI1
aI1
aI10
aI3
aI4
aI7
aI1
aI137
aI1
aI3
aI7
aI1
aI7
aI1
aI1
aI1
aI4
aI15
aI1
aI1
aI1
aI1
aI2
aI2
aI3
aI7
aI1
aI22
aI1
aI3
aI1
aI1
aI17
aI1
aI1
aI1
aI2
aI2
aI106
aI4
aI1
aI1
aI19
aI3
aI3
aI1
aI1
aI1
aI1
aI1
aI6
aI1
aI3
aI1
aI10
aI1
aI1
aI1
aI1
aI3
aI1
aI1
aI5
aI4
aI1
aI2
aI1
aI1
aI1
aI2
aI1
aI3
aI1
aI1
aI1
aI1
aI1
aI1
aI1
aI2
aI2
aI2
aI1
aI8
aI4
aI1
aI1
aI2
aI1
aI5
aI1
aI1
aI1
aI1
aI1
aI1
aI1
aI2
aI2
aI1
aI9
aI1
aI22
aI1
aI1
aI1
aI1
aI1
aI1
aI1
aI4
aI22
aI6
aI3
aI2
aI2
aI1
aI2
aI2
aI1
aI1
aI728
aI5
aI4
aI2
aI1
aI4
aI3
aI1
aI5
aI2
aI2
aI1
aI1
aI12
aI1
aI1
aI1
aI1
aI1
aI1
aI8
aI11
aI1
aI12
aI13
aI1
aI281
aI1
aI3
aI1
aI2
aI1
aI4
aI1
aI3
aI2
aI2
aI2
aI1
aI7
aI3
aI3
aI4
aI1
aI2
aI1
aI8
aI6
aI1
aI1
aI1
aI1
aI3
aI1
aI1
aI13
aI1
aI1
aI1
aI1
aI13
aI6
aI13
aI1
aI1
aI2
aI1
aI5
aI1
aI1
aI1
aI5
aI1
aI1
aI2
aI10
aI35
aI4
aI2
aI2
aI10
aI1
aI4
aI157
aI8
aI1
aI1
aI1
aI2
aI1
aI25
aI2
aI3
aI1
aI1
aI303
aI3
aI1
aI2
aI7
aI1
aI1
aI3
aI1
aI12
aI1
aI1
aI1
aI1
aI1
aI1
aI1
aI1
aI5
aI2
aI1
aI1
aI1
aI1
aI2
aI1
aI1
aI7
aI1
aI2
aI1
aI2
aI1
aI2
aI2
aI1
aI1
aI1
aI1
aI4
aI1
aI2
aI1
aI1
aI2
aI1
aI7
aI2
aI2
aI1
aI1
aI1
aI2
aI1
aI1
aI1
aI9
aI2
aI2
aI26
aI1
aI1
aI1
aI1
aI2
aI5
aI2
aI1
aI1
aI6
aI23
aI1
aI57
aI43
aI2
aI2
aI224
aI8
aI1
aI1
aI12
aI1
aI6
aI5
aI1
aI1
aI1
aI1
aI1
aI2
aI6
aI1
aI1
aI3
aI2
aI3
aI4
aI2
aI50
aI8
aI1
aI1
aI1
aI2
aI5
aI1
aI1
aI2
aI2
aI1
aI1
aI2
aI1
aI1
aI1
aI2
aI1
aI1
aI1
aI12
aI1085
aI9
aI2
aI1
aI1
aI1
aI1
aI1
aI1
aI10
aI1
aI9
aI3
aI2
aI1
aI1
aI6
aI2
aI2
aI2
aI3
aI1
aI1
aI2
aI2
aI7
aI1
aI1
aI1
aI1
aI4
aI2
aI2
aI1
aI7
aI2
aI2
aI1
aI5
aI31
aI1
aI3
aI1
aI1
aI1
aI8
aI1
aI1
aI7
aI1
aI1
aI1
aI2
aI6
aI1
aI1
aI1
aI1
aI3
aI1
aI2
aI1
aI2
aI2
aI1
aI12
aI1
aI1
aI1
aI1
aI1
aI1
aI4
aI1
aI2
aI6
aI1
aI1
aI1
aI1
aI1
aI1
aI1
aI1
aI1
aI4
aI18
aI1
aI1
aI3
aI2
aI1
aI1
aI1
aI1
aI1
aI90
aI21
aI3
aI1
aI1
aI1
aI1
aI1
aI1
aI1
aI1
aI1
aI1
aI1
aI2
aI1
aI1
aI1
aI3
aI1
aI1
aI1
aI3
aI2
aI2
aI3
aI1
aI1
aI1
aI1
aI3
aI65
aI14
aI1
aI2
aI2
aI2
aI1
aI3
aI1
aI3
aI1
aI1
aI1
aI1
aI4
aI373
aI2
aI1
aI6
aI1
aI1
aI1
aI2
aI1
aI1
aI1
aI18
aI1
aI1
aI2
aI1
aI99
aI1
aI1
aI1
aI6
aI2
aI1
aI2
aI1
aI1
aI1
aI1
aI1
aI1
aI1
aI2
aI5
aI1
aI1
aI1
aI1
aI1
aI1
aI1
aI1
aI1
aI1
aI1
aI1
aI123
aI4
aI1
aI3
aI5
aI1
aI4
aI1
aI5
aI1
aI2
aI1
aI1
aI1
aI1
aI1
aI1
aI2
aI1
aI1
aI1
aI1
aI1
aI4
aI2
aI4
aI1
aI1
aI2
aI1
aI1
aI1
aI1
aI1
aI1
aI2
aI1
aI1
aI1
aI5
aI1
aI1
aI1
aI5
aI1
aI1
aI1
aI2
aI1
aI1
aI1
aI8
aI1
aI12
aI2
aI1
aI25
aI1
aI1
aI1
aI1
aI1
aI1
aI1
aI3
aI2
aI1
aI1
aI1
aI3
aI1
aI1
aI1
aI3
aI1
aI1
aI1
aI14
aI3
aI1
aI1
aI1
aI1
aI59
aI1
aI1
aI3
aI1
aI1
aI1
aI1
aI1
aI2
aI1
aI2
aI2
aI2
aI14
aI6
aI1
aI1
aI1
aI3
aI6
aI1
aI1
aI2
aI6
aI1
aI1
aI1
aI1
aI1
aI5
aI3
aI1
aI2
aI2
aI5
aI1
aI1
aI2
aI2
aI1
aI3
aI11
aI46
aI1
aI3
aI1
aI1
aI1
aI1
aI4
aI1
aI5
aI2
aI1
aI1
aI88
aI15
aI1
aI11
aI1
aI9
aI1
aI4
aI1
aI1
aI6
aI5
aI1
aI1
aI2
aI3
aI1
aI3
aI1
aI1
aI7
aI4
aI1
aI2
aI2
aI1
aI1
aI1
aI2
aI1
aI2
aI1
aI1
aI36
aI2
aI1
aI4
aI1
aI4
aI2
aI1
aI2
aI35
aI1
aI1
aI3
aI3
aI1
aI11
aI1
aI3
aI1
aI2
aI1
aI1
aI1
aI4
aI1
aI1
aI1
aI1
aI1
aI1
aI1
aI1
aI1
aI1
aI6
aI2
aI1
aI2
aI1
aI1
aI1
aI190
aI1
aI13
aI5
aI1
aI1
aI78
aI1
aI13
aI2
aI3
aI1
aI1
aI4
aI4
aI2
aI1
aI1
aI1
aI1
aI1
aI1
aI25
aI1
aI1
aI2
aI4
aI1
aI1
aI13
aI1
aI395
aI1
aI1
aI1
aI1
aI1
aI2
aI1
aI4
aI2
aI1
aI2
aI3
aI28
aI1
aI1
aI2
aI5
aI2
aI2
aI1
aI5
aI2
aI1
aI4
aI1
aI1
aI1
aI2
aI6
aI1
aI1
aI1
aI1
aI1
aI1
aI1
aI1
aI29
aI7
aI1
aI1
aI1
aI1
aI1
aI1
aI3
aI1
aI8
aI1
aI101
aI1
aI2
aI1
aI1
aI1
aI2
aI2
aI2
aI1
aI2
aI1
aI2
aI1
aI2
aI1
aI1
aI1
aI2
aI248
aI1
aI1
aI1
aI6
aI314
aI1
aI1
aI1
aI1
aI1
aI4
aI18
aI1
aI2
aI1
aI1
aI1
aI3
aI2
aI1
aI1
aI4
aI6
aI1
aI1
aI1
aI1
aI1
aI1
aI2
aI1
aI1
aI1
aI27
aI3
aI2
aI4
aI1
aI1
aI1
aI1
aI4
aI2
aI1
aI1
aI1
aI1
aI34
aI1
aI2
aI1
aI1
aI12
aI3
aI1
aI1
aI2
aI4
aI2
aI2
aI1948
aI6
aI1
aI2
aI2
aI1
aI23
aI1
aI2
aI1
aI37
aI2
aI2
aI2
aI1
aI1
aI11
aI3
aI1
aI3
aI2
aI1
aI1
aI3
aI1
aI1
aI1
aI1
aI1
aI6
aI1
aI7
aI29
aI1
aI1
aI1
aI139
aI9
aI72
aI76
aI1
aI1
aI1
aI14
aI2
aI2
aI1
aI9
aI1
aI1
aI1
aI2
aI1
aI5
aI1
aI2
aI1
aI2
aI4
aI21
aI3
aI1
aI175
aI1
aI2
aI3
aI1
aI1
aI2
aI1
aI1
aI1
aI1
aI1
aI1
aI1
aI1
aI1
aI1
aI1
aI1
aI1
aI2
aI1
aI7
aI8
aI1
aI1
aI555
aI2
aI1
aI2
aI9
aI1
aI3
aI1
aI2
aI1
aI3
aI1
aI3
aI1
aI1
aI1
aI2
aI302
aI1
aI1
aI1
aI2
aI1
aI1
aI1
aI1
aI1
aI1
aI1
aI1
aI1
aI1
aI1
aI1
aI1
aI26
aI1
aI306
aI6
aI1
aI30
aI1
aI29
aI1
aI1
aI1
aI1
aI1
aI1
aI1
aI2
aI2
aI6
aI2
aI1
aI1
aI1
aI2
aI1
aI2
aI2
aI1
aI2
aI1
aI1
aI1
aI18
aI3
aI1
aI8
aI1
aI1
aI1
aI1
aI2
aI1
aI1
aI1
aI3
aI1
aI1
aI2
aI1
aI3
aI9
aI2
aI1
aI2
aI3
aI1
aI1
aI2
aI1
aI3
aI1
aI1
aI2
aI1
aI32
aI88
aI1
aI3
aI3
aI1
aI1
aI3
aI2
aI3
aI2
aI16
aI41
aI1
aI1
aI8
aI21
aI1
aI8
aI1
aI1
aI8
aI1
aI1
aI1
aI4
aI294
aI2
aI4
aI1
aI1
aI2
aI4
aI2
aI1
aI2
aI3
aI1
aI1
aI1
aI5
aI1
aI243
aI2
aI24
aI2
aI6
aI2
aI1
aI1
aI1
aI1
aI1
aI4
aI1
aI1
aI1
aI1
aI1
aI62
aI1
aI9
aI1
aI1
aI1
aI17
aI1
aI36
aI1
aI2
aI1
aI2
aI5
aI1
aI1
aI6
aI2
aI1
aI1
aI3
aI1
aI2
aI2
aI2
aI2
aI1
aI3
aI1
aI13
aI4
aI3
aI1
aI1
aI2
aI10
aI11
aI1
aI1
aI2
aI3
aI2
aI1
aI1
aI2
aI3
aI1
aI7
aI1
aI17
aI8
aI1
aI1
aI2
aI1
aI1
aI1
aI2
aI2
aI2
aI1
aI1
aI1
aI2
aI2
aI2
aI52
aI6
aI1
aI1
aI1
aI1
aI2
aI2
aI1
aI8
aI1
aI34
aI2
aI1
aI1
aI1
aI1
aI3
aI18
aI1
aI26
aI3
aI2
aI14
aI2
aI1
aI1
aI1
aI1
aI1
aI49
aI39
aI1
aI1
aI1
aI3
aI2
aI1
aI1
aI19
aI5
aI1
aI1
aI1
aI1
aI43
aI2
aI1
aI1
aI1
aI1
aI1
aI1
aI1
aI1
aI1
aI5
aI1
aI1
aI1
aI1
aI1
aI1
aI1
aI1
aI2
aI1
aI1
aI1
aI1
aI23
aI1
aI6
aI53
aI1
aI2
aI4
aI1
aI1
aI1
aI3
aI11
aI1
aI1
aI1
aI1
aI16
aI1
aI1
aI1
aI1
aI69
aI2
aI13
aI1
aI1
aI2
aI10
aI1
aI1
aI1
aI12
aI1
aI2
aI16
aI79
aI1
aI2
aI1
aI1
aI1
aI1
aI1
aI1
aI2
aI1
aI1
aI1
aI2
aI1
aI1
aI2
aI79
aI2
aI1
aI2
aI1
aI1
aI1
aI72
aI1
aI1
aI2
aI13
aI2
aI1
aI4
aI1
aI2
aI7
aI1
aI1
aI62
aI1
aI2
aI2
aI1
aI1
aI333
aI1
aI1
aI1
aI4
aI1
aI1
aI1
aI1
aI1
aI2
aI1
aI1
aI1
aI1
aI9
aI1
aI1
aI2
aI39
aI2
aI1
aI1
aI1
aI1
aI2
aI5
aI5
aI1
aI1
aI1
aI1
aI1
aI1
aI1
aI1
aI1
aI1
aI2
aI6
aI1
aI1
aI2
aI1
aI1
aI1
aI3
aI1
aI1
aI1
aI2
aI1
aI1
aI1
aI1
aI1
aI3
aI1
aI2
aI2
aI1
aI1
aI1
aI3
aI4
aI6
aI1
aI1
aI2
aI1
aI2
aI1
aI8
aI1
aI19
aI1
aI3
aI2
aI2
aI1
aI1
aI1
aI1
aI7
aI1
aI20
aI1
aI1
aI1
aI1
aI1
aI1
aI22
aI1
aI1
aI1
aI1
aI9
aI1
aI15
aI4
aI1
aI1
aI3
aI1
aI1
aI5
aI1
aI1
aI1
aI1
aI10
aI1
aI2
aI1
aI1
aI4
aI6
aI6
aI5
aI1
aI1
aI5
aI5
aI3
aI2
aI1
aI1
aI1
aI19
aI1
aI3
aI1
aI3
aI2
aI1
aI1
aI4
aI2
aI1
aI1
aI1
aI1
aI1
aI2
aI4
aI1
aI1
aI1
aI1
aI220
aI1
aI1
aI1
aI1
aI1
aI1
aI1
aI5
aI1
aI1
aI2
aI1
aI1
aI1
aI1
aI22
aI1
aI13
aI231
aI1
aI1
aI1
aI1
aI50
aI2
aI6
aI1
aI1
aI1
aI1
aI1
aI1
aI3
aI1
aI1
aI1
aI1
aI3
aI1
aI1
aI5
aI1
aI1
aI1
aI1
aI1
aI209
aI1
aI1
aI1
aI1
aI1
aI8
aI1
aI1
aI1
aI1
aI1
aI1
aI1
aI1
aI1
aI1
aI1
aI5
aI6
aI2
aI1
aI3
aI2
aI2
aI1
aI1
aI3
aI1
aI1
aI1
aI5
aI1
aI1
aI2
aI1
aI1
aI1
aI1
aI66
aI1
aI1
aI2
aI1
aI1
aI1
aI1
aI1
aI1
aI1
aI1
aI4
aI1
aI1
aI1
aI1
aI6
aI1
aI1
aI3
aI2
aI1
aI1
aI1
aI1
aI48
aI1
aI1
aI1
aI1
aI7
aI1
aI1
aI1
aI3
aI1
aI1
aI1
aI3
aI1
aI1
aI1
aI1
aI1
aI1
aI1
aI2
aI1
aI1
aI1
aI1
aI2
aI1
aI277
aI1
aI1
aI1
aI1
aI1
aI2
aI2
aI3
aI4
aI9
aI3
aI1
aI1
aI1
aI1
aI201
aI3
aI2
aI1
aI1
aI1
aI1
aI2
aI11
aI1
aI1
aI4
aI1
aI1
aI1
aI1
aI2
aI2
aI1
aI1
aI1
aI1
aI1
aI9
aI2
aI2
aI1
aI2
aI2
aI1
aI1
aI1
aI1
aI9
aI1
aI9
aI3
aI2
aI3
aI3
aI2
aI1
aI7
aI2
aI1
aI1
aI1
aI2
aI1
aI4
aI1
aI1
aI1
aI1
aI1
aI1
aI1
aI2
aI1
aI1
aI1
aI1
aI1
aI1
aI2
aI1
aI1
aI1
aI1
aI1
aI5
aI1
aI3
aI1
aI1
aI1
aI1
aI1
aI1
aI2
aI1
aI3
aI1
aI2
aI1
aI3
aI4
aI3
aI17
aI2
aI1
aI2
aI1
aI1
aI4
aI1
aI1
aI2
aI2
aI2
aI5
aI1
aI1
aI1
aI1
aI1
aI2
aI1
aI1
aI2
aI4
aI2
aI1
aI1
aI1
aI1
aI3
aI2
aI2
aI3
aI8
aI5
aI1
aI1
aI1
aI7
aI1
aI1
aI5
aI3
aI2
aI1
aI1
aI6
aI1
aI9
aI1
aI1
aI1
aI1
aI1
aI1
aI2
aI2
aI1
aI1
aI5
aI1
aI13
aI1
aI1
aI1
aI1
aI1
aI1
aI1
aI2
aI1
aI1
aI472
aI1
aI1
aI1
aI3
aI2
aI2
aI2
aI2
aI1
aI1
aI8
aI2
aI5
aI1
aI1
aI6
aI1
aI8
aI2
aI10
aI2
aI1
aI1
aI1
aI4
aI1
aI1
aI2
aI1
aI1
aI1
aI6
aI1
aI1
aI1
aI2
aI1
aI3
aI1
aI1
aI2
aI14
aI1
aI1
aI2
aI1
aI1
aI1
aI1
aI4
aI16
aI1
aI1
aI1
aI2
aI1
aI1
aI2
aI1
aI13
aI2
aI2
aI1
aI1
aI2
aI1
aI5
aI1
aI1
aI1
aI3
aI1
aI4
aI1
aI2
aI3
aI1
aI1
aI3
aI2
aI1
aI1
aI4
aI1
aI1
aI3
aI2
aI1
aI6
aI58
aI8
aI1
aI2
aI6
aI4
aI1
aI19
aI1
aI2
aI5
aI1
aI1
aI6
aI2
aI1
aI1
aI1
aI1
aI1
aI1
aI564
aI3
aI2
aI9
aI2
aI1
aI6
aI1
aI1
aI1
aI1
aI2
aI2
aI4
aI1
aI1
aI1
aI1
aI1
aI1
aI1
aI1
aI1
aI2
aI1
aI3
aI14
aI1
aI1
aI2
aI1
aI11
aI2
aI1
aI38
aI3
aI1
aI2
aI2
aI1
aI1
aI2
aI1
aI2
aI1
aI1
aI1
aI2
aI2
aI1
aI2
aI1
aI1
aI385
aI1
aI1
aI1
aI2
aI2
aI1
aI1
aI1
aI1
aI3
aI1
aI1
aI1
aI1
aI1
aI2
aI1
aI1
aI2
aI2
aI1
aI3
aI7378
aI2
aI1
aI1
aI318
aI2
aI1
aI1
aI1
aI1
aI8
aI1
aI1
aI1
aI3
aI1
aI1
aI1
aI1
aI1
aI6
aI1
aI169
aI2
aI1
aI14
aI3
aI1
aI1
aI1
aI1
aI1
aI1
aI1
aI1
aI1
aI1
aI1
aI1
aI2
aI11
aI2
aI4
aI3
aI5
aI1
aI1
aI5
aI1
aI1
aI1
aI7
aI1
aI1
aI2
aI1
aI2
aI2
aI1
aI2
aI1
aI1
aI2
aI399
aI2
aI403
aI1
aI2
aI2
aI1
aI2
aI157
aI1
aI2
aI3
aI4
aI1
aI1
aI1
aI97
aI9
aI1
aI1
aI1
aI1
aI1
aI2
aI2
aI2
aI1
aI1
aI1
aI1
aI3
aI1
aI2
aI1
aI1
aI2
aI1
aI1
aI1
aI1
aI1
aI1
aI1
aI32
aI3
aI2
aI2
aI2
aI1
aI6
aI1
aI1
aI2
aI2
aI26
aI1
aI2
aI2
aI1
aI2
aI2
aI1
aI6
aI1
aI1
aI2
aI5
aI1
aI1
aI1
aI1
aI1
aI9
aI32
aI1
aI6
aI4
aI1
aI1
aI1
aI1
aI1
aI2
aI1
aI1
aI2
aI2
aI2
aI1
aI1
aI1
aI1
aI4
aI2
aI2
aI4
aI6
aI1
aI1
aI7
aI1
aI1
aI8
aI1
aI105
aI1
aI1
aI28
aI2
aI1
aI2
aI1
aI1
aI1
aI1
aI1
aI18
aI1
aI3
aI2
aI1
aI1
aI5
aI1
aI1
aI1
aI1
aI1
aI3
aI1
aI1
aI1
aI1
aI1
aI2
aI2
aI1
aI1
aI4
aI1
aI1
aI2
aI1
aI1
aI1
aI14
aI1
aI8
aI1
aI30
aI2
aI3
aI31
aI1
aI2
aI1
aI1
aI5
aI4
aI1
aI2
aI1
aI1
aI1
aI1
aI3
aI1
aI1
aI1
aI5
aI2
aI30
aI1
aI2
aI1
aI1
aI2
aI1
aI2
aI3
aI1
aI7
aI1
aI2
aI2
aI1
aI4
aI1
aI1
aI1
aI1
aI1
aI1
aI2
aI1
aI1
aI1
aI2
aI1
aI1
aI2
aI1
aI1
aI3
aI5
aI1
aI2
aI2
aI1
aI24
aI1
aI5
aI2
aI1
aI2
aI1
aI1
aI1
aI1
aI10
aI5
aI1
aI1
aI7
aI1
aI5
aI4
aI1
aI7
aI2
aI2
aI1
aI1
aI2
aI1
aI8
aI10
aI1
aI1
aI3
aI1
aI1
aI1
aI1
aI1
aI2
aI1
aI1
aI9
aI13
aI1
aI1
aI1
aI1
aI2
aI1
aI1
aI1
aI1
aI3
aI1
aI3
aI2
aI4
aI16
aI1
aI1
aI2
aI1
aI2
aI2
aI1
aI1
aI2
aI19
aI62
aI2
aI1
aI5
aI1
aI9
aI1
aI4
aI3
aI18
aI1
aI1
aI2
aI1
aI2
aI1
aI3
aI1
aI3
aI1
aI2
aI1
aI1
aI2
aI1
aI1
aI1
aI1
aI3
aI1
aI1
aI6
aI1
aI13
aI3
aI1
aI1
aI3
aI1
aI11
aI1
aI1
aI1
aI1
aI2
aI1
aI9
aI3
aI1
aI1
aI1
aI1
aI22
aI2
aI2
aI1
aI2
aI3
aI4
aI1
aI9
aI1
aI1
aI6
aI1
aI1
aI1
aI1
aI1
aI1
aI2
aI1
aI1
aI1
aI1
aI2
aI2
aI5
aI2
aI2
aI1
aI9
aI1
aI3
aI8
aI11
aI1
aI4
aI1
aI1
aI2
aI1
aI3
aI1
aI1
aI1
aI1
aI1
aI4
aI3
aI1
aI2
aI1
aI1
aI29
aI4
aI16
aI1
aI2
aI1
aI1
aI10
aI7
aI9
aI14
aI2
aI1
aI2
aI2
aI1
aI1
aI2
aI1
aI1
aI1
aI2
aI2
aI2
aI1
aI1
aI1
aI1
aI1
aI1
aI14
aI2
aI2
aI1
aI4
aI1
aI1
aI1
aI4
aI1
aI8
aI4
aI7
aI1
aI1
aI2
aI2
aI1
aI1
aI1
aI4
aI1
aI11
aI1
aI3
aI8
aI3
aI1
aI1
aI3
aI1
aI1
aI1
aI2
aI1
aI1
aI1
aI1
aI1
aI2
aI2
aI4
aI1
aI1
aI1
aI1
aI124
aI1
aI1
aI13
aI1
aI5
aI2
aI1
aI1
aI1
aI10
aI1
aI1
aI17
aI1
aI3
aI1
aI9
aI57
aI1
aI8
aI1
aI3
aI1
aI1
aI16
aI1
aI7
aI5
aI12
aI2
aI1
aI1
aI1
aI1
aI2
aI11
aI2
aI2
aI1
aI1
aI3
aI1
aI1
aI1
aI2
aI2
aI1
aI1
aI2
aI1
aI1
aI1
aI1
aI1
aI1
aI2
aI1
aI11
aI1
aI1
aI3
aI1
aI1
aI1
aI28
aI2
aI3
aI10
aI1
aI1
aI7
aI1
aI1
aI2
aI2
aI1
aI10
aI1
aI1
aI2
aI3
aI1
aI1
aI1
aI14
aI2
aI1
aI1
aI1
aI1
aI2
aI1
aI4
aI1
aI1
aI1
aI508
aI4
aI1
aI1
aI2
aI1
aI1
aI1
aI1
aI1
aI4
aI1
aI1
aI2
aI2
aI1
aI9
aI5
aI2
aI1
aI2
aI2
aI3
aI1
aI3
aI28
aI5
aI9
aI1
aI1
aI1
aI2
aI100
aI3
aI2
aI4
aI1
aI1
aI1
aI1
aI1
aI1
aI358
aI1
aI1
aI1
aI3
aI1
aI1
aI3
aI2
aI2
aI4
aI2
aI1
aI1
aI2
aI1
aI2
aI1
aI1
aI2
aI1
aI2
aI2
aI1
aI1
aI1
aI1
aI1
aI2
aI2
aI146
aI2
aI1
aI2
aI2
aI1
aI8
aI1
aI1
aI4
aI2
aI1
aI1
aI1
aI2
aI2
aI1
aI5
aI1
aI1
aI2
aI2
aI2
aI2
aI3
aI1
aI1
aI1
aI2
aI10
aI2
aI1
aI1
aI1
aI1
aI12
aI2
aI1
aI1
aI1
aI8
aI6
aI1
aI1
aI1
aI2
aI5
aI1
aI1
aI1
aI2
aI2
aI1
aI1
aI1
aI1
aI1
aI1
aI36
aI1
aI8
aI1
aI2
aI19
aI1
aI11
aI1
aI2
aI1
aI1
aI2
aI3
aI3
aI3
aI1
aI1
aI1
aI1
aI1
aI1
aI1
aI1
aI1
aI1
aI15
aI3
aI1
aI1
aI1
aI1
aI5
aI1
aI1
aI1
aI1
aI1
aI1
aI1
aI22
aI1
aI1
aI1
aI1
aI1
aI1
aI1
aI2
aI1
aI1
aI1
aI1
aI1
aI1
aI2
aI4
aI1
aI1
aI1
aI4
aI1
aI4
aI4
aI1
aI36
aI2
aI5
aI1
aI1
aI2
aI1
aI1
aI1
aI3
aI1
aI1
aI1
aI2
aI3
aI10
aI4
aI1
aI1
aI2
aI1
aI1
aI2
aI1
aI20
aI2
aI1
aI5
aI1
aI1
aI1
aI1
aI1
aI1
aI1
aI3
aI34
aI11
aI1
aI2
aI3
aI1
aI1
aI1
aI1
aI1
aI1
aI1
aI3
aI4
aI7
aI1
aI2
aI1
aI3
aI1
aI1
aI4
aI4
aI1
aI1
aI1
aI2
aI1
aI1
aI1
aI1
aI1
aI2
aI1
aI1
aI7
aI2
aI4
aI3
aI19
aI1
aI1
aI3
aI7
aI1
aI1
aI1
aI1
aI1
aI5
aI16
aI4
aI4
aI1
aI1
aI1
aI1
aI2
aI1
aI1
aI1
aI5
aI6
aI1
aI7
aI1
aI1
aI1
aI1
aI2
aI7
aI1
aI1
aI1
aI1
aI1
aI4
aI1
aI1
aI2
aI2
aI2
aI1
aI1
aI5
aI2
aI1
aI3
aI1
aI20
aI1
aI1
aI3
aI1
aI3
aI1
aI11
aI1
aI2
aI1
aI1
aI1
aI2
aI3
aI1
aI2
aI3
aI1
aI2
aI1
aI1
aI3
aI1
aI1
aI1
aI1
aI3
aI1
aI2
aI16
aI1
aI1
aI1
aI2
aI2
aI1
aI1
aI24
aI1
aI5
aI1
aI1
aI2
aI2
aI2
aI5
aI2
aI2
aI1
aI1
aI2
aI1
aI1
aI1
aI1
aI1
aI7
aI1
aI4
aI5
aI1
aI2
aI6
aI2
aI1
aI2
aI1
aI21
aI1
aI1
aI1
aI13
aI4
aI3
aI1
aI1
aI2
aI252
aI4
aI8
aI1
aI1
aI1
aI3
aI1
aI1
aI110
aI1
aI1
aI2
aI1
aI1
aI1
aI1
aI1
aI1
aI1
aI3
aI1
aI1
aI6
aI1
aI2
aI2
aI2
aI2
aI3
aI1
aI1
aI1
aI392
aI2
aI11
aI1
aI1
aI6
aI1
aI16
aI3
aI1
aI1
aI1
aI1
aI5
aI1
aI1
aI1
aI1
aI1
aI5
aI1
aI8
aI21
aI1
aI2
aI1
aI8
aI1
aI1
aI22
aI18
aI2
aI1
aI1
aI2
aI4
aI16
aI1
aI1
aI1
aI1
aI6
aI12
aI1
aI1
aI15
aI1
aI1
aI1
aI1
aI1
aI1
aI1
aI1
aI1
aI1
aI1
aI1
aI1
aI1
aI3
aI64
aI1
aI3
aI1
aI2
aI1
aI1
aI18
aI2
aI1
aI3
aI2
aI14
aI3
aI1
aI1
aI2
aI3
aI3
aI4
aI3
aI2
aI14
aI9
aI1
aI2
aI2
aI1
aI1
aI1
aI1
aI2
aI6
aI2
aI1
aI1
aI1
aI16
aI1
aI1
aI1
aI1
aI1
aI1
aI2
aI1
aI2
aI2
aI1
aI4
aI1
aI1
aI1
aI2
aI1
aI4
aI4
aI2
aI4
aI11
aI1
aI2
aI1
aI3
aI1
aI98
aI2
aI2
aI4
aI1
aI2475
aI1
aI2
aI2
aI35
aI8
aI1
aI6
aI1
aI2
aI1
aI1
aI1
aI4
aI1
aI4
aI1
aI4
aI1
aI1
aI1
aI1
aI2
aI3
aI1
aI1
aI2
aI1
aI1
aI3
aI1
aI1
aI1
aI1
aI1
aI1
aI2
aI2
aI2
aI1
aI1
aI1
aI1
aI1
aI1
aI1
aI1
aI4
aI261
aI1
aI2
aI1
aI1
aI3
aI1
aI2
aI1
aI1
aI11
aI1
aI2
aI12
aI1
aI1
aI27
aI378
aI1
aI10
aI4
aI3
aI1
aI2
aI1
aI4
aI1
aI1
aI1
aI7
aI1
aI2
aI4
aI1
aI1
aI1
aI1
aI2
aI1
aI1
aI2
aI220
aI1
aI2
aI20
aI1
aI2
aI2
aI1
aI1
aI1
aI1
aI1
aI1
aI1
aI1
aI1
aI1
aI1
aI1
aI6
aI1
aI3
aI2
aI1
aI6
aI1
aI1
aI1
aI4
aI10
aI1
aI1
aI11
aI1
aI1
aI1
aI2
aI2
aI1
aI1
aI1
aI1
aI1
aI1
aI4
aI3
aI2
aI407
aI2
aI32
aI2
aI2
aI1
aI1
aI1
aI1
aI1
aI1
aI1
aI1
aI3
aI344
aI2
aI6
aI3
aI12
aI2
aI1
aI1
aI1
aI3
aI1
aI11
aI8
aI1
aI5
aI1
aI1
aI1
aI1
aI1
aI1
aI1
aI1
aI2
aI1
aI22
aI1
aI4
aI1
aI1
aI2
aI1
aI2
aI1
aI2
aI2
aI1
aI1
aI1
aI2
aI1
aI2
aI1
aI4
aI19
aI1
aI1
aI4
aI1
aI1
aI1
aI1
aI1
aI1
aI1
aI2
aI1
aI1
aI2
aI5
aI1
aI3
aI5
aI1
aI18
aI2
aI1
aI2
aI1
aI1
aI1
aI1
aI4
aI4
aI1
aI1
aI1
aI1
aI1
aI2
aI1
aI1
aI12
aI1
aI1
aI1
aI2
aI1
aI1
aI2
aI11
aI2
aI1
aI1
aI1
aI1
aI1
aI1
aI1
aI1
aI1
aI2
aI1
aI3
aI2
aI5
aI2
aI4
aI22
aI1
aI828
aI2
aI2
aI1
aI1
aI1
aI2
aI1
aI1
aI1
aI6
aI1
aI2
aI23
aI1
aI2
aI1
aI1
aI1
aI211
aI3
aI3
aI20
aI1
aI2
aI2
aI1
aI1
aI1
aI1
aI5
aI1
aI1
aI1
aI1
aI1
aI4
aI3
aI1
aI1
aI1
aI1
aI1
aI2
aI1
aI3
aI1
aI1
aI1
aI9
aI3
aI2
aI6
aI5
aI1
aI4
aI1
aI1
aI1
aI1
aI1
aI1
aI2
aI1
aI9
aI4
aI10
aI17
aI1
aI1
aI1
aI1
aI11
aI1
aI2
aI1
aI1
aI1
aI1
aI1
aI3
aI4
aI2
aI3
aI1
aI1
aI2
aI12
aI1
aI1
aI5
aI3
aI12
aI1
aI1
aI4
aI1
aI1
aI1
aI1
aI1
aI1
aI1
aI1
aI1
aI11
aI2
aI4
aI1
aI1
aI1
aI1
aI9
aI42
aI1
aI1
aI1
aI3
aI1
aI1
aI9
aI3
aI1
aI2
aI1
aI1
aI1
aI1
aI1
aI1
aI1
aI2
aI1
aI1
aI4
aI9
aI1
aI1
aI1
aI1
aI2
aI1
aI1
aI2
aI1
aI1
aI1
aI2
aI1
aI2
aI5
aI1
aI1
aI1
aI1
aI7
aI1
aI1
aI2
aI1
aI1
aI5
aI249
aI1
aI1
aI3
aI9
aI2
aI1
aI1
aI1
aI1
aI2
aI1
aI2
aI2
aI3
aI3
aI2
aI6
aI1
aI1
aI1
aI1
aI1
aI1
aI1
aI1
aI1
aI1
aI4
aI1
aI1
aI1
aI1
aI1
aI3
aI1
aI1
aI1
aI1
aI1
aI1
aI10
aI63
aI2
aI1
aI1
aI5
aI1
aI16
aI1
aI1
aI2
aI1
aI2
aI4
aI1
aI1
aI7
aI1
aI5
aI1
aI1
aI4
aI1
aI1
aI2
aI2
aI3
aI2
aI31
aI2
aI2
aI1
aI1
aI1
aI4
aI1
aI206
aI1
aI1
aI1
aI43
aI1
aI1
aI4
aI15
aI1
aI1
aI1
aI1
aI4
aI6
aI4
aI1
aI1
aI9
aI2
aI3
aI95
aI1
aI1
aI1
aI1
aI1
aI1
aI1
aI2
aI1
aI3
aI20
aI1
aI3
aI1
aI1
aI1
aI1
aI1
aI3
aI1
aI8
aI1
aI1
aI34
aI1
aI1
aI1
aI1
aI1
aI1
aI1
aI1
aI1
aI1
aI1
aI1
aI1
aI2
aI2
aI1
aI2
aI3
aI1
aI1
aI2
aI4
aI4
aI1
aI1
aI1
aI2
aI1
aI1
aI1
aI3
aI5
aI1
aI1
aI1
aI14
aI2
aI1
aI2
aI1
aI3
aI1
aI1
aI3
aI6
aI1
aI10
aI2
aI1
aI1
aI6
aI3
aI1
aI4
aI2
aI3
aI1
aI2
aI1
aI1
aI2
aI1
aI2
aI1
aI12
aI1
aI1
aI2
aI1
aI1
aI1
aI4
aI22
aI1
aI2
aI3
aI1
aI1
aI1
aI2
aI8
aI10
aI1
aI1
aI2
aI2
aI1
aI1
aI2
aI1
aI1
aI1
aI36
aI4
aI1
aI1
aI27
aI1
aI1
aI50
aI1
aI2
aI1
aI1
aI1
aI1
aI1
aI2
aI1
aI1
aI1
aI5
aI2
aI1
aI1
aI1
aI2
aI1
aI1
aI3
aI8
aI2
aI11
aI1
aI13
aI1
aI2
aI2
aI1
aI2
aI5
aI7
aI1
aI1
aI22
aI15
aI1
aI2
aI1
aI2
aI2
aI1
aI2
aI3
aI1
aI1
aI3
aI20
aI1
aI1
aI15
aI1
aI1
aI2
aI1
aI3
aI7
aI1
aI1
aI1
aI1
aI7
aI2
aI1
aI33
aI2
aI1
aI1
aI1
aI6
aI1
aI14
aI1
aI1
aI1
aI1
aI2
aI1
aI1
aI1
aI3
aI1
aI3
aI2
aI1
aI1
aI2
aI2
aI1
aI9
aI1
aI1
aI1
aI1
aI1
aI1
aI2
aI1
aI17
aI2
aI1
aI1
aI1
aI1
aI1
aI2
aI1
aI1
aI1
aI2
aI1
aI2
aI1
aI1
aI271
aI1
aI4
aI2
aI2
aI246
aI3
aI1
aI53
aI1
aI1
aI1
aI2
aI1
aI2
aI1
aI1
aI2
aI1
aI2
aI1
aI1
aI4
aI1
aI2
aI2
aI1
aI1
aI2
aI1
aI2
aI1
aI1
aI2
aI1
aI1
aI1
aI1
aI1
aI56
aI2
aI1
aI5
aI1
aI15
aI1
aI1
aI1
aI1
aI2
aI1
aI1
aI1
aI1
aI1
aI4
aI1
aI2
aI1
aI1
aI5
aI4
aI2
aI1
aI2
aI3
aI3
aI1
aI1
aI1
aI1
aI1
aI1
aI1
aI4
aI2
aI1
aI1
aI1
aI1
aI2
aI1
aI19
aI1
aI1
aI1
aI1
aI4
aI10
aI1
aI2
aI1
aI1
aI3
aI1
aI1
aI4
aI2
aI1
aI1
aI12
aI3
aI2
aI2
aI3
aI71
aI1
aI2
aI1
aI1
aI1
aI4
aI30
aI1
aI1
aI1
aI1
aI1
aI1
aI1
aI1
aI1
aI1
aI1
aI1
aI2
aI2
aI1
aI3
aI3
aI1
aI5
aI1
aI1
aI1
aI4
aI1
aI1
aI1
aI1
aI1
aI1
aI3
aI2
aI1
aI3
aI1
aI1
aI1
aI1
aI1
aI1
aI2
aI1
aI1
aI1
aI1
aI2
aI1
aI4
aI1
aI2
aI1
aI1
aI1
aI2
aI1
aI1
aI1
aI6
aI1
aI6
aI1
aI1
aI1
aI3
aI1
aI1
aI1
aI1
aI2
aI2
aI1
aI1
aI1
aI1
aI2
aI1
aI1
aI1
aI1
aI2
aI7
aI1
aI1
aI1
aI2
aI2
aI1
aI2
aI1
aI2
aI1
aI1
aI1
aI1
aI1
aI1
aI2
aI1
aI1
aI1
aI2
aI1
aI2
aI1
aI1
aI9
aI3
aI1
aI5
aI1
aI1
aI3
aI1
aI1
aI1
aI106
aI2
aI1
aI1
aI2
aI1
aI1
aI1
aI2
aI1
aI1
aI3
aI1
aI11
aI2
aI1
aI1
aI1
aI45
aI2
aI1
aI2
aI1
aI4
aI7
aI4
aI2
aI1
aI2
aI7
aI1
aI2
aI1
aI1
aI1
aI1
aI4
aI2
aI1
aI21
aI1
aI17
aI1
aI1
aI1
aI1
aI1
aI1
aI16
aI1
aI2
aI1
aI2
aI15
aI1
aI1
aI1
aI1
aI1
aI5
aI1
aI1
aI2
aI1
aI1
aI2
aI1
aI2
aI1
aI11
aI18
aI1
aI3
aI1
aI1
aI3
aI1
aI3
aI1
aI1
aI1
aI5
aI1
aI1
aI5
aI1
aI1
aI3
aI2
aI4
aI2
aI1
aI1
aI1
aI1
aI5
aI1
aI1
aI1
aI1
aI1
aI1
aI1
aI1
aI1
aI1
aI1
aI1
aI1
aI1
aI1
aI1
aI36
aI1
aI1
aI4
aI2
aI1
aI1
aI1
aI2
aI1
aI1
aI5
aI22
aI1
aI1
aI2
aI1
aI4
aI2
aI1
aI1
aI1
aI1
aI1
aI1
aI2
aI1
aI2
aI4
aI4
aI1
aI1
aI1
aI2
aI1
aI5
aI1
aI3
aI1
aI5
aI1
aI1
aI7
aI1
aI1
aI1
aI1
aI1
aI1
aI8
aI1
aI6
aI1
aI4
aI2
aI1
aI2
aI1
aI1
aI2
aI14
aI2
aI2
aI1
aI15
aI1
aI1
aI1
aI1
aI2
aI1
aI1
aI2
aI2
aI9
aI1
aI1
aI1
aI1
aI2
aI1
aI1
aI1
aI1
aI13
aI2
aI1
aI2
aI1
aI2
aI5
aI1
aI11
aI4
aI16
aI2
aI1
aI2
aI1
aI2
aI2
aI3
aI5
aI1
aI2
aI2
aI15
aI4
aI1
aI1
aI1
aI1
aI5
aI4
aI1
aI1
aI2
aI1
aI2
aI1
aI1
aI2
aI22
aI1
aI1
aI1
aI1
aI2
aI1
aI1
aI1
aI1
aI1
aI6
aI2
aI4
aI1
aI1
aI1
aI111
aI19
aI1
aI1
aI1
aI1
aI1
aI1
aI5
aI4
aI1
aI1
aI1
aI1
aI1
aI1
aI1
aI2
aI1
aI1
aI1
aI1
aI1
aI1
aI1
aI1
aI1
aI1
aI1
aI2
aI1
aI1
aI2
aI1
aI1
aI2
aI1
aI1
aI1
aI2
aI2
aI1
aI1
aI5
aI1
aI1
aI1
aI1
aI1
aI3
aI2
aI45
aI37
aI2
aI1
aI1
aI1
aI1
aI2
aI1
aI2
aI13
aI2
aI3
aI3
aI1
aI1
aI1
aI1
aI2
aI2
aI2
aI1
aI2
aI1
aI1
aI8
aI2
aI1
aI11
aI29
aI12
aI10
aI3
aI3
aI1
aI1
aI2
aI1
aI1
aI2
aI4
aI3
aI1
aI10
aI2
aI3
aI1
aI21
aI1
aI3
aI1
aI1
aI1
aI1
aI5
aI1
aI3
aI1
aI2
aI1
aI1
aI1
aI3
aI1
aI1
aI1
aI1
aI2
aI1
aI1
aI1
aI18
aI1
aI2
aI1
aI1
aI1
aI17
aI1
aI1
aI1
aI40
aI2
aI2
aI1
aI1
aI1
aI1
aI1
aI1
aI1
aI1
aI2
aI5
aI3
aI1
aI1
aI43
aI1
aI20
aI7
aI1
aI1
aI12
aI6
aI4
aI1
aI1
aI1
aI1
aI2
aI3
aI1
aI1
aI3
aI1
aI2
aI1
aI2
aI1
aI1
aI1
aI1
aI5
aI1
aI1
aI2
aI83
aI8
aI1
aI1
aI1
aI7
aI1
aI2
aI1
aI1
aI1
aI3
aI3
aI1
aI1
aI1
aI28
aI37
aI2
aI1
aI1
aI1
aI1
aI1
aI1
aI1
aI1
aI1
aI1
aI1
aI13
aI2
aI1
aI1
aI3
aI2
aI2
aI1
aI1
aI2
aI2
aI1
aI1
aI2
aI1
aI1
aI1
aI1
aI199
aI1
aI1
aI2
aI1
aI3
aI2
aI1
aI7
aI1
aI1
aI5
aI1
aI1
aI1
aI2
aI10
aI1
aI3
aI1
aI13
aI1
aI2
aI2
aI1
aI1
aI2
aI1
aI12
aI1
aI2
aI1
aI1
aI1
aI1
aI1
aI1
aI1
aI1
aI409
aI2
aI6
aI1
aI1
aI2
aI1
aI1
aI1
aI1
aI3
aI1
aI2
aI1
aI1
aI2
aI2
aI4
aI1
aI1
aI6
aI1
aI1
aI1
aI1
aI1
aI4
aI2
aI1
aI1
aI1
aI1
aI1
aI1
aI1
aI1
aI1
aI1
aI1
aI1
aI1
aI2
aI1
aI4
aI2
aI1
aI1
aI1
aI1
aI2
aI1
aI1
aI1
aI1
aI3
aI3
aI2
aI2
aI5
aI6
aI1
aI1
aI1
aI1
aI9
aI1
aI1
aI1
aI4
aI1
aI1
aI17
aI4
aI2
aI1
aI1
aI2
aI1
aI3
aI1
aI1
aI2
aI6
aI1
aI1
aI1
aI1
aI1
aI1
aI2
aI1
aI1
aI4
aI11
aI2
aI2
aI1
aI1
aI1
aI1
aI1
aI1
aI1
aI1
aI1
aI1
aI12
aI1
aI2
aI1
aI1
aI1
aI1
aI1
aI2
aI1
aI19
aI1
aI2
aI2
aI1
aI5
aI2
aI1
aI1
aI1
aI1
aI1
aI1
aI1
aI1
aI1
aI4
aI10
aI1
aI3
aI1
aI1
aI1
aI1
aI1
aI1
aI3
aI2
aI1
aI4
aI25
aI4
aI1
aI3
aI1
aI1
aI1
aI2
aI3
aI1
aI1
aI2
aI3
aI9
aI1
aI2
aI1
aI1
aI1
aI1
aI1
aI5
aI1
aI1
aI1
aI5
aI1
aI1
aI4
aI1
aI1
aI1
aI1
aI1
aI1
aI1
aI4
aI1
aI1
aI1
aI3
aI20
aI1
aI2
aI1
aI1
aI1
aI2
aI1
aI1
aI2
aI1
aI2
aI1
aI49
aI939
aI1
aI1
aI1
aI1
aI3
aI24
aI1
aI31
aI1
aI2
aI2
aI1
aI1
aI2
aI1
aI1
aI1
aI1
aI1
aI1
aI1
aI1
aI1
aI1
aI1
aI1
aI1
aI1
aI1
aI1
aI1
aI1
aI2
aI6
aI1
aI1
aI1
aI1
aI3
aI1
aI1
aI1
aI1
aI1
aI5
aI1
aI2
aI9
aI1
aI1
aI1
aI1
aI3
aI1
aI2
aI16
aI4
aI1
aI5
aI3
aI3
aI1
aI1
aI44
aI33
aI1
aI11
aI1
aI1
aI50
aI1
aI7
aI1
aI1
aI1
aI142
aI7
aI2
aI4
aI2
aI1
aI1
aI1
aI2
aI3
aI1
aI3
aI1
aI1
aI4
aI1
aI1
aI1
aI2
aI1
aI2
aI2
aI7
aI1
aI1
aI1
aI1
aI1
aI1
aI6
aI2
aI2
aI3
aI3
aI9
aI1
aI2
aI1
aI1
aI2
aI1
aI1
aI1
aI1
aI1
aI1
aI1
aI2
aI2
aI1
aI1
aI1
aI1
aI1
aI1
aI1
aI1
aI1
aI1
aI1
aI1
aI4
aI1
aI2
aI1
aI1
aI1
aI1
aI2
aI1
aI2
aI61
aI1
aI1
aI1
aI3
aI1
aI1
aI1
aI2
aI70
aI1
aI4
aI2
aI1
aI1
aI1
aI3
aI1
aI1
aI1
aI1
aI2
aI4
aI43
aI1
aI56
aI2
aI1
aI1
aI1
aI1
aI15
aI82
aI1
aI1
aI2
aI1
aI1
aI1
aI3
aI1
aI1
aI1
aI1
aI1
aI2
aI1
aI2
aI3
aI1
aI5
aI1
aI1
aI1
aI1
aI1
aI1
aI2
aI3
aI1
aI1
aI3
aI1
aI1
aI1
aI1
aI11
aI1
aI2
aI1
aI1
aI1
aI1
aI1
aI1
aI1
aI7
aI1
aI24
aI1
aI3
aI1
aI2
aI1
aI1
aI1
aI1
aI6
aI2
aI1
aI1
aI2
aI1
aI1
aI1
aI1
aI5
aI2
aI1
aI1
aI1
aI1
aI1
aI2
aI1
aI1
aI1
aI2
aI3
aI1
aI3
aI1
aI1
aI1
aI5
aI2
aI11
aI1
aI1
aI1
aI4
aI1
aI3
aI1
aI1
aI2
aI452
aI1
aI3
aI1
aI1
aI2
aI2
aI1
aI1
aI1
aI1
aI1
aI71
aI6
aI14
aI64
aI15
aI1
aI2
aI1
aI2
aI1
aI2
aI1
aI3
aI1
aI1
aI2
aI1
aI1
aI1
aI152
aI3
aI1
aI1
aI1
aI3
aI1
aI1
aI1
aI1
aI100
aI1
aI6
aI1
aI1
aI1
aI6
aI1
aI2
aI1
aI4
aI4
aI1
aI1
aI1
aI1
aI1
aI30
aI1
aI4
aI10
aI1
aI6
aI1
aI1
aI1
aI1
aI15
aI1
aI4
aI1
aI1
aI1
aI3
aI5
aI2
aI194
aI2
aI1
aI1
aI1
aI2
aI1
aI9
aI1
aI2
aI1
aI2
aI1
aI1
aI1
aI1
aI1
aI2
aI1
aI1
aI2
aI1
aI2
aI2
aI61
aI261
aI1
aI1
aI4
aI1
aI1
aI1
aI1
aI1
aI2
aI1
aI3
aI1
aI2
aI1
aI9
aI1
aI19
aI1
aI1
aI1
aI2
aI2
aI1
aI1
aI1
aI2
aI1
aI1
aI1
aI1
aI1
aI1
aI378
aI1
aI1
aI1
aI1
aI1
aI1
aI2
aI2
aI128
aI2
aI1
aI3
aI44
aI1
aI1
aI1
aI1
aI1
aI180
aI1
aI13
aI1
aI1
aI1
aI1
aI1
aI1
aI2
aI1
aI1
aI1
aI1
aI2
aI1
aI3
aI1
aI1
aI1
aI2
aI1
aI1
aI1
aI1
aI1
aI1
aI1
aI1
aI1
aI3
aI1
aI3
aI1
aI1
aI1
aI2
aI14
aI1
aI1
aI1
aI1
aI1
aI1
aI2
aI2
aI1
aI1
aI1
aI1
aI9
aI1
aI3
aI1
aI1
aI1
aI1
aI1
aI1
aI109
aI1
aI6
aI1
aI2
aI1
aI2
aI2
aI1
aI10
aI1
aI1
aI1
aI1
aI3
aI1
aI1
aI1
aI1
aI5
aI1
aI3
aI1
aI1
aI176
aI1
aI2
aI1
aI1
aI1
aI6
aI1
aI1
aI1
aI2
aI1
aI5
aI1
aI2
aI20
aI9
aI4
aI1
aI1
aI1
aI27
aI1
aI1
aI3
aI1
aI1
aI1
aI1
aI3
aI1
aI1
aI3
aI1
aI2
aI2
aI5
aI2
aI74
aI1
aI2
aI1
aI2
aI1
aI6
aI1
aI1
aI2
aI8
aI4
aI3
aI4
aI1
aI1
aI3
aI10
aI2
aI2
aI2
aI1
aI1
aI5
aI1
aI9
aI6
aI2
aI3
aI1
aI9
aI2
aI2
aI1
aI1
aI1
aI1
aI2
aI1
aI1
aI1
aI1
aI1
aI1
aI1
aI1
aI2
aI1
aI1
aI1
aI10
aI472
aI6
aI1
aI7
aI4
aI5
aI1
aI1
aI1
aI1
aI1
aI25
aI1
aI69
aI3
aI1
aI1
aI2
aI1
aI1
aI1
aI49
aI1
aI1
aI1
aI1
aI2
aI10
aI1
aI1
aI1
aI1
aI1
aI2
aI1
aI4
aI27
aI2
aI1
aI11
aI1
aI1
aI1
aI1
aI1
aI1
aI19
aI6
aI3
aI1
aI1
aI1
aI1
aI28
aI16
aI4
aI1
aI3
aI1
aI26
aI2
aI1
aI1
aI1
aI1
aI1
aI1
aI341
aI5
aI1
aI12
aI1
aI1
aI1
aI6
aI1
aI1
aI1
aI3
aI1
aI1
aI1
aI1
aI1
aI1
aI3
aI5
aI1
aI3
aI1
aI1
aI1
aI1
aI3
aI4
aI1
aI1
aI1
aI2
aI2
aI1
aI2
aI2
aI2
aI2
aI10
aI3
aI9
aI3
aI1
aI3
aI2
aI1
aI1
aI1
aI1
aI1
aI3
aI1
aI1
aI1
aI1
aI1
aI1
aI1
aI4
aI1
aI1
aI3
aI1
aI1
aI4
aI102
aI1
aI6
aI1
aI2
aI21
aI1
aI1
aI1
aI20
aI1
aI1
aI2
aI1
aI1
aI1
aI1
aI1
aI8
aI2
aI1
aI2
aI1
aI1
aI1
aI1
aI2
aI2
aI1
aI1
aI3
aI1
aI11
aI1
aI1
aI2
aI4
aI2
aI1
aI1
aI2
aI3
aI1
aI1
aI1
aI1
aI1
aI1
aI1
aI21
aI1
aI1
aI2
aI1
aI1
aI1
aI1
aI3
aI1
aI1
aI1
aI1
aI4
aI1
aI3
aI1
aI1
aI1
aI1
aI10
aI2
aI33
aI3
aI522
aI1
aI2
aI6
aI14
aI1
aI7
aI1
aI2
aI55
aI2
aI1
aI1
aI2
aI1
aI4
aI7
aI1
aI2
aI1
aI1
aI68
aI4
aI2
aI1
aI1
aI1
aI2
aI56
aI1
aI4
aI1
aI1
aI1
aI1
aI1
aI1
aI7
aI1
aI1
aI2
aI1
aI32
aI1
aI1
aI4
aI1
aI1
aI1
aI272
aI2
aI1
aI1
aI1
aI1
aI1
aI1
aI10
aI87
aI1
aI1
aI1
aI1
aI1
aI2
aI6
aI1
aI2
aI2
aI1
aI1
aI1
aI2
aI2
aI1
aI1
aI1
aI2
aI6
aI5
aI1
aI1
aI4
aI2
aI3
aI1
aI2
aI1
aI19
aI2
aI3
aI1
aI1
aI1
aI1
aI3
aI1
aI1
aI1
aI1
aI1
aI51
aI1
aI1
aI1
aI19
aI4
aI3
aI1
aI3
aI1
aI1
aI1
aI1
aI1
aI2
aI1
aI1
aI13
aI1
aI1
aI11
aI1
aI1
aI1
aI1
aI3
aI41
aI1
aI1
aI1
aI1
aI1
aI1
aI1
aI1
aI1
aI1
aI2
aI1
aI1
aI1
aI5
aI2
aI1
aI3
aI1
aI1
aI8
aI1
aI1
aI70
aI1
aI1
aI1
aI12
aI1
aI1
aI1
aI1
aI1
aI6
aI1
aI4
aI4
aI1
aI2
aI1
aI1
aI3
aI2
aI2
aI1
aI1
aI1
aI6
aI1
aI1
aI1
aI1
aI3
aI1
aI1
aI1
aI2
aI1
aI1
aI4
aI1
aI1
aI3
aI1
aI1
aI1
aI1
aI6
aI8
aI1
aI1
aI1
aI4
aI1
aI1
aI1
aI2
aI4
aI7
aI3
aI1
aI1
aI1
aI1
aI1
aI1
aI1
aI1
aI31
aI2
aI3
aI1
aI1
aI3
aI3
aI2
aI3
aI1
aI1
aI2
aI1
aI1
aI1
aI1
aI1
aI1
aI1
aI1
aI2
aI3
aI33
aI2
aI1
aI2
aI1
aI1
aI1
aI2
aI1
aI1
aI1
aI1
aI22
aI1
aI1
aI1
aI1
aI1
aI1
aI2
aI2
aI1
aI1
aI1
aI1
aI1
aI2
aI2
aI3
aI1
aI1
aI4
aI2
aI1
aI1
aI16
aI1
aI1
aI8
aI1
aI1
aI1
aI10
aI1
aI1
aI14
aI1
aI1
aI11
aI1
aI1
aI2
aI1
aI1
aI7
aI29
aI1
aI1
aI2
aI2
aI1
aI1
aI1
aI1
aI1
aI1
aI1
aI1
aI1
aI1
aI1
aI1
aI2
aI1
aI1
aI1
aI1
aI1
aI1
aI1
aI11
aI1
aI1
aI1
aI1
aI2
aI3
aI2
aI3
aI8
aI7
aI2
aI1
aI1
aI1
aI1
aI1
aI1
aI3
aI3
aI1
aI1
aI2
aI2
aI1
aI2
aI3
aI1
aI2
aI1
aI1
aI2
aI1
aI5
aI2
aI5
aI1
aI4
aI3
aI4
aI1
aI1
aI1
aI1
aI1
aI1
aI1
aI1
aI1
aI2
aI7
aI2
aI2
aI1
aI1
aI2
aI1
aI1
aI1
aI1
aI1
aI2
aI1
aI1
aI1
aI1
aI1
aI1
aI2
aI2
aI1
aI1
aI1
aI1
aI1
aI1
aI1
aI1
aI1
aI1
aI1
aI1
aI1
aI1
a.