(lp0
I1060
aI1
aI1
aI14
aI5
aI1
aI10
aI2
aI6
aI1
aI204
aI1
aI1
aI2
aI2
aI1
aI5543
aI3
aI9
aI1
aI2
aI1
aI1
aI14
aI2
aI1
aI2485
aI2
aI6
aI1
aI1
aI4
aI739
aI1
aI1
aI1
aI7
aI2
aI1
aI19
aI4
aI15
aI3
aI1
aI6
aI1
aI1
aI1
aI5
aI1332
aI57
aI5
aI46
aI4
aI1
aI8
aI1
aI1515
aI1
aI6
aI1
aI2
aI20
aI1
aI427
aI1
aI1
aI1
aI7
aI6
aI1
aI1
aI1
aI1
aI1
aI4
aI2
aI1
aI1
aI1
aI1
aI1
aI2
aI3
aI9232
aI1
aI2
aI35
aI1
aI5
aI25
aI1
aI1
aI19
aI3
aI15
aI3
aI17
aI1
aI1
aI168
aI1
aI2
aI1
aI1
aI2
aI3
aI133
aI1
aI5
aI29
aI1
aI52
aI1
aI3
aI34
aI335
aI5
aI4
aI1
aI5
aI12
aI2
aI2
aI2
aI36
aI1
aI1
aI508
aI1
aI1
aI1
aI2
aI76
aI3
aI82
aI8
aI2
aI1
aI1
aI1253
aI270
aI1
aI1
aI5
aI3
aI647
aI2
aI2
aI55
aI3
aI22
aI6
aI3
aI2
aI1
aI848
aI110
aI1
aI3
aI5
aI1
aI1
aI1
aI1
aI1
aI4
aI2
aI1757
aI1009
aI2
aI1
aI2
aI211
aI4
aI1
aI3
aI1
aI7
aI12
aI1
aI1
aI1
aI1
aI5
aI1
aI1
aI1
aI2
aI1
aI1
aI1
aI1
aI1
aI2
aI1
aI1
aI1
aI1
aI2
aI1
aI50
aI2
aI1
aI1
aI2
aI1
aI2
aI1
aI1
aI1
aI1
aI3
aI2
aI2
aI1
aI1
aI1
aI1
aI1
aI1
aI5
aI1
aI3
aI5
aI1
aI1
aI1
aI1
aI1
aI1
aI1
aI1
aI4
aI1
aI1
aI3
aI1
aI1
aI2
aI1
aI1
aI1
aI1
aI1
aI1
aI2
aI2
aI18
aI1
aI1
aI1
aI4
aI2
aI3
aI2
aI1
aI3
aI1
aI1
aI7
aI1
aI1
aI4
aI2
aI1
aI1
aI2
aI1
aI1
aI1
aI1
aI2
aI1
aI1
aI4
aI3
aI1
aI1
aI1
aI1
aI1
aI1
aI1
aI1
aI2
aI1
aI1
aI1
aI1
aI1
aI1
aI4
aI8
aI1
aI1
aI1
aI1
aI1
aI1
aI1
aI1
aI25
aI1
aI1
aI1
aI1
aI1
aI1
aI1
aI2
aI1
aI1
aI1
aI1
aI1
aI1
aI1
aI6
aI1
aI1
aI1
aI1
aI1
aI1
aI1
aI1
aI1
aI1
aI2
aI2
aI1
aI1
aI1
aI2
aI1
aI2
aI1
aI1
aI3
aI5
aI1
aI2
aI2
aI1
aI1
aI3
aI1
aI2
aI1
aI5
aI2
aI1
aI2
aI1
aI2
aI1
aI561
aI1
aI4
aI1
aI1
aI1
aI1
aI1
aI1
aI1
aI1
aI2
aI1
aI1
aI17
aI1
aI3
aI1
aI1
aI24
aI2
aI1
aI1
aI1
aI2
aI4
aI1
aI1
aI1
aI2
aI54
aI2
aI1
aI1
aI1
aI2
aI7
aI1
aI1
aI3
aI3
aI2
aI2
aI1
aI1
aI1
aI1
aI5
aI3
aI1
aI1
aI2
aI1
aI1
aI1
aI2
aI1
aI1
aI1
aI2
aI2
aI1
aI1
aI2
aI1
aI2
aI1
aI2
aI1
aI3
aI8
aI1
aI1
aI1
aI1
aI1
aI1
aI1
aI1
aI1
aI1
aI1
aI1
aI1
aI1
aI1
aI1
aI6
aI1
aI4
aI1
aI4
aI6
aI1
aI1
aI2
aI1
aI1
aI1
aI14
aI1
aI1
aI1
aI2
aI1
aI1
aI1
aI1
aI1
aI2
aI1
aI3
aI1
aI1
aI2
aI7
aI1
aI1
aI1
aI1
aI2
aI6
aI1
aI1
aI1
aI2
aI2
aI1
aI1
aI1
aI1
aI1
aI1
aI1
aI1
aI4
aI1
aI1
aI1
aI1
aI3
aI2
aI1
aI2
aI1
aI1
aI1
aI1
aI1
aI1
aI1
aI1
aI1
aI1
aI1
aI1
aI1
aI1
aI1
aI1
aI1
aI1
aI17
aI1
aI1
aI1
aI1
aI1
aI1
aI1
aI2
aI15
aI1
aI1
aI1
aI1
aI1
aI1
aI2
aI1
aI1
aI1
aI3
aI1
aI3
aI1
aI1
aI2
aI1
aI1
aI1
aI2
aI5
aI1
aI1
aI1
aI1
aI1
aI1
aI1
aI1
aI1
aI1
aI1
aI1
aI2
aI1
aI1
aI1
aI15
aI1
aI1
aI1
aI1
aI1
aI2
aI1
aI1
aI1
aI4
aI1
aI1
aI2
aI1
aI1
aI1
aI1
aI5
aI1
aI1
aI5
aI1
aI8
aI1
aI1
aI1
aI1
aI1
aI5
aI6
aI4
aI1
aI1
aI1
aI1
aI42
aI1
aI4
aI1
aI1
aI1
aI1
aI1
aI1
aI1
aI10
aI1
aI1
aI1
aI1
aI12
aI2
aI1
aI1
aI2
aI1
aI3
aI1
aI4
aI1
aI3
aI2
aI2
aI1
aI7
aI3
aI2
aI2
aI1
aI1
aI2
aI8
aI1
aI1
aI1
aI1
aI1
aI1
aI1
aI4
aI1
aI2
aI1
aI1
aI1
aI3
aI2
aI2
aI4
aI6
aI5
aI1
aI2
aI1
aI1
aI70
aI1
aI7
aI1
aI2
aI3
aI4
aI1
aI1
aI29
aI3
aI3
aI1
aI1
aI1
aI1
aI12
aI6
aI1
aI1
aI1
aI2
aI1
aI1
aI3
aI8
aI3
aI4
aI2
aI1
aI2
aI1
aI7
aI1
aI3
aI2
aI1
aI1
aI2
aI2
aI1
aI2
aI1
aI1
aI9
aI47
aI3
aI1
aI1
aI1
aI2
aI1
aI28
aI1
aI61
aI5
aI1
aI2
aI21
aI1
aI1
aI1
aI1
aI1
aI1
aI1
aI1
aI1
aI1
aI1
aI1
aI1
aI1
aI1
aI4
aI1
aI3
aI1
aI2
aI1
aI2
aI1
aI1
aI1
aI1
aI1
aI1
aI2
aI3
aI2
aI1
aI1
aI1
aI1
aI8
aI1
aI5
aI3
aI1
aI1
aI1
aI5
aI1
aI1
aI2
aI1
aI2
aI1
aI1
aI1
aI1
aI1
aI3
aI3
aI1
aI2
aI1
aI146
aI1
aI6
aI1
aI2
aI1
aI4
aI1
aI1
aI1
aI2
aI1
aI2
aI461
aI1
aI1
aI2
aI1
aI2
aI1
aI2
aI1
aI1
aI35
aI14
aI7
aI2
aI1
aI1
aI1
aI1
aI1
aI2
aI2
aI1
aI1
aI2
aI4
aI2
aI4
aI1
aI5
aI1
aI2
aI12
aI1
aI2
aI2
aI25
aI3
aI1
aI3
aI1
aI1
aI1
aI398
aI2
aI2
aI1
aI1
aI1
aI1
aI1
aI2
aI1
aI1
aI1
aI1
aI1
aI1
aI1
aI1
aI1
aI1
aI1
aI4
aI1
aI1
aI3
aI1
aI2
aI8
aI2
aI1
aI1
aI2
aI2
aI1
aI1
aI2
aI1
aI9
aI1
aI2
aI1
aI3
aI1
aI1
aI32
aI1
aI127
aI1
aI29
aI2
aI73
aI1
aI30
aI1
aI4
aI1
aI3
aI5
aI1
aI2
aI4
aI3
aI1
aI1
aI1
aI1
aI89
aI1
aI3
aI20
aI2
aI1
aI1
aI1
aI3
aI2
aI1
aI1
aI1
aI1
aI1
aI1
aI3
aI1
aI3
aI2
aI1
aI521
aI2
aI1
aI1
aI2
aI1
aI1
aI1
aI1
aI1
aI1
aI2
aI3
aI445
aI2
aI1
aI2
aI2
aI1
aI2
aI1
aI1
aI7
aI17
aI1
aI75
aI1
aI14
aI1
aI51
aI1
aI4
aI1
aI12
aI7
aI2
aI5
aI1
aI2
aI1
aI2
aI1
aI1
aI2
aI428
aI1
aI1
aI2
aI1
aI1
aI1
aI6
aI1
aI3
aI1
aI1
aI1
aI1
aI1
aI1
aI1
aI8
aI1
aI3
aI2
aI1
aI3
aI1
aI1
aI1
aI1
aI6
aI3
aI5
aI13
aI2
aI822
aI1
aI1
aI1
aI1
aI5
aI15
aI1
aI1
aI1
aI4
aI1
aI1
aI3
aI2
aI1
aI1
aI3
aI2
aI1
aI3
aI1
aI1
aI1
aI3
aI1
aI1
aI2
aI1
aI1
aI3
aI1
aI1
aI1
aI1
aI2
aI3
aI1
aI103
aI1
aI1
aI1
aI2
aI2
aI2
aI3
aI1
aI1
aI1
aI1
aI1
aI1
aI1
aI1
aI1
aI1
aI1
aI1
aI1
aI9
aI8
aI54
aI1
aI1
aI6
aI8
aI2
aI1
aI2
aI2
aI1
aI1
aI29
aI1
aI1
aI1
aI1
aI1
aI2
aI10
aI1
aI1
aI1
aI3
aI1
aI1
aI2
aI5
aI4
aI4
aI1
aI5
aI1
aI1
aI1
aI1
aI1
aI1
aI4
aI5
aI7
aI1
aI5
aI1
aI1
aI1
aI1
aI1
aI3
aI2
aI1
aI13
aI2
aI1
aI3
aI1
aI2
aI1
aI3
aI1
aI1
aI1
aI1
aI1
aI1
aI1
aI1
aI1
aI1
aI2
aI3
aI1
aI1
aI1
aI6
aI1
aI1
aI1
aI1
aI22
aI1
aI1
aI3
aI1
aI1
aI3
aI1
aI8
aI4
aI57
aI2
aI10
aI1
aI1
aI1
aI1
aI1
aI2
aI1
aI1
aI1
aI1
aI1
aI1
aI1
aI1
aI1
aI1
aI1
aI1
aI1
aI2
aI1
aI1
aI1
aI1
aI2
aI1
aI3
aI1
aI4
aI1
aI1
aI1
aI1
aI1
aI1
aI1
aI1
aI25
aI3
aI1
aI1
aI28
aI1
aI1
aI1
aI9
aI1
aI1
aI1
aI2
aI1
aI1
aI4
aI1
aI1
aI1
aI1
aI2
aI1
aI1
aI1
aI2
aI1
aI2
aI1
aI1
aI2
aI1
aI1
aI2
aI126
aI1
aI1
aI1
aI2
aI5
aI1
aI1
aI1
aI2
aI1
aI1
aI1
aI4
aI1
aI5
aI2
aI1
aI1
aI1
aI1
aI1
aI51
aI1
aI1
aI1
aI3
aI1
aI1
aI1
aI6
aI9
aI1
aI3
aI1
aI1
aI1
aI7
aI2
aI7
aI1
aI1
aI2
aI2
aI2
aI1
aI1
aI1
aI1
aI1
aI1
aI1
aI1
aI4
aI2
aI3
aI1
aI1
aI1
aI3
aI1
aI3
aI1
aI1
aI2
aI67
aI2
aI11
aI1
aI1
aI3
aI1
aI1
aI3
aI2
aI1
aI1
aI1
aI1
aI2
aI1
aI2
aI1
aI13
aI1
aI2
aI1
aI2
aI1
aI1
aI1
aI1
aI51
aI1
aI1
aI1
aI2
aI1
aI1
aI1
aI1
aI3
aI4
aI1
aI1
aI2
aI1
aI1
aI1
aI1
aI1
aI1
aI1
aI1
aI112
aI1
aI2
aI2
aI1
aI8
aI6
aI15
aI1
aI1
aI221
aI1
aI1
aI2
aI5
aI1
aI5
aI1
aI54
aI1
aI1
aI1
aI1
aI1
aI2
aI1
aI4
aI1
aI2
aI11
aI102
aI1
aI1
aI12
aI3
aI1
aI1
aI1
aI3
aI1
aI1
aI1
aI1
aI1
aI1
aI1
aI1
aI1
aI3
aI1
aI33
aI8
aI1
aI2
aI2
aI1
aI1
aI9
aI5
aI6
aI1
aI1
aI6
aI5
aI1
aI1
aI1
aI130
aI2
aI3
aI1
aI1
aI1
aI1
aI1
aI5
aI1
aI1
aI1
aI3
aI1
aI2
aI1
aI1
aI1
aI127
aI1
aI1
aI1
aI1
aI5
aI1
aI2
aI4
aI1
aI1
aI1
aI1
aI1
aI4
aI4
aI47
aI1
aI1
aI2
aI4
aI994
aI3
aI1
aI2
aI1
aI1
aI1
aI1
aI4
aI1
aI1
aI1
aI1
aI2
aI1
aI1
aI3
aI1
aI1
aI2
aI2
aI1
aI1
aI6
aI1
aI1
aI1
aI1
aI1
aI1
aI1
aI1
aI1
aI2
aI1
aI27
aI2
aI1
aI1
aI1
aI1
aI1
aI1
aI16
aI1
aI1
aI1
aI5
aI3
aI1
aI1
aI2
aI3
aI1
aI6
aI1
aI1
aI2
aI2
aI1
aI2
aI19
aI265
aI1
aI1
aI1
aI1
aI2
aI1
aI2
aI1
aI1
aI2
aI1
aI1
aI2
aI4
aI1
aI29
aI1
aI1
aI1
aI1
aI1
aI1
aI2
aI2
aI1
aI1
aI2
aI1
aI1
aI1
aI1
aI1
aI1
aI1
aI1
aI1
aI1
aI1
aI1
aI3
aI1
aI16
aI1
aI1
aI2
aI3
aI1
aI114
aI2
aI2
aI3
aI10
aI1
aI4
aI1
aI7
aI1
aI1
aI1
aI1
aI15
aI1
aI1
aI1
aI1
aI55
aI2
aI1
aI1
aI2
aI1
aI1
aI1
aI1
aI1
aI1
aI1
aI3
aI1
aI2
aI1
aI11
aI1
aI1
aI14
aI1
aI1
aI1
aI1
aI3
aI1
aI1
aI2
aI1
aI1
aI1
aI2
aI2
aI1
aI1
aI5
aI1
aI2
aI1
aI3
aI1
aI1
aI3
aI1
aI2
aI1
aI1
aI5
aI1
aI1
aI14
aI5
aI2
aI1
aI1
aI1
aI512
aI1
aI3
aI1
aI1
aI1
aI4
aI1
aI3
aI1
aI1
aI1
aI5
aI1
aI1
aI1
aI1
aI1
aI1
aI8
aI2
aI1
aI1
aI1
aI3
aI1
aI3
aI1
aI3
aI4
aI1
aI12
aI1
aI1
aI1
aI1
aI1
aI2
aI1
aI4
aI1
aI1
aI1
aI5
aI1
aI1
aI1
aI1
aI1
aI1
aI1
aI1155
aI1
aI1
aI1
aI1
aI1
aI1
aI2
aI1
aI1
aI1
aI1
aI2
aI1
aI3
aI1
aI1
aI1
aI1
aI1
aI2
aI4
aI1
aI4
aI11
aI4
aI1
aI1
aI1
aI12
aI2
aI1
aI1
aI2
aI1
aI1
aI1
aI1
aI2
aI1
aI1
aI4
aI4
aI1
aI2
aI1
aI1
aI2
aI1
aI1
aI1
aI1
aI1
aI1
aI1
aI1
aI176
aI9
aI1
aI1
aI1
aI1
aI1
aI3
aI1
aI28
aI17
aI1
aI1
aI1
aI1
aI1
aI1
aI1
aI2
aI5
aI1
aI2
aI1
aI1
aI1
aI1
aI1
aI1
aI1
aI1
aI1
aI1
aI1
aI8
aI3
aI1
aI2
aI1
aI2
aI1
aI1
aI1
aI1
aI1
aI1
aI7
aI1
aI2
aI1
aI1
aI3
aI1
aI1
aI1
aI1
aI1
aI3
aI1
aI3
aI1
aI1
aI2
aI1
aI1
aI2
aI1
aI1
aI2
aI1
aI1
aI2
aI1
aI1
aI1
aI2
aI1
aI1
aI1
aI5
aI1
aI1
aI1
aI1
aI1
aI1
aI2
aI1
aI1
aI1
aI1
aI1
aI1
aI1
aI1
aI1
aI1
aI40
aI11
aI2
aI1
aI1
aI1
aI1
aI2
aI3
aI30
aI13
aI4
aI1
aI2
aI1
aI1
aI1
aI2
aI1
aI4
aI2
aI2
aI1
aI1
aI1
aI1
aI142
aI1
aI1
aI1
aI2
aI1
aI2
aI1
aI2
aI2
aI1
aI1
aI1
aI3
aI3
aI1
aI1
aI1
aI1
aI1
aI2
aI5
aI3
aI1
aI27
aI1
aI1
aI1
aI3
aI5
aI1
aI1
aI2
aI7
aI2
aI2
aI1
aI1
aI1
aI1
aI1
aI157
aI2
aI1
aI1
aI1
aI1
aI27
aI1
aI1
aI1
aI1
aI1
aI1
aI1
aI9
aI2
aI1
aI2
aI1
aI1
aI1
aI1
aI1
aI1
aI1
aI86
aI1
aI1
aI1
aI2
aI1
aI1
aI6
aI1
aI1
aI2
aI3
aI1
aI1
aI1
aI1
aI1
aI1
aI1
aI1
aI1
aI1
aI1
aI1
aI1
aI1
aI1
aI1
aI2
aI1
aI1
aI1
aI2
aI3
aI1
aI1
aI2
aI1
aI1
aI2
aI1
aI2
aI1
aI2
aI1
aI2
aI1
aI1
aI2
aI4
aI1
aI1
aI1
aI1
aI1
aI4
aI1
aI1
aI1
aI1
aI7
aI1
aI1
aI1
aI62
aI1
aI1
aI1
aI1
aI1
aI1
aI1
aI1
aI2
aI1
aI43
aI4
aI1
aI1
aI1
aI1
aI1
aI1
aI1
aI1
aI1
aI1
aI1
aI1
aI1
aI1
aI1
aI17
aI5
aI3
aI1
aI3
aI3
aI2
aI2
aI163
aI1
aI1
aI1
aI1
aI2
aI1
aI1
aI4
aI1
aI2
aI2
aI1
aI1
aI2
aI3
aI1
aI4
aI1
aI7
aI1
aI1
aI2
aI1
aI1
aI1
aI1
aI1
aI1
aI1
aI6
aI1
aI1
aI1
aI4
aI12
aI1
aI1
aI1
aI1
aI1
aI3
aI1
aI4
aI5
aI1
aI1
aI1
aI1
aI2
aI2
aI11
aI1
aI3
aI1
aI2
aI2
aI1
aI1
aI76
aI2
aI1
aI2
aI1
aI4
aI1
aI1
aI1
aI1
aI1
aI8
aI1
aI1
aI2
aI1
aI4
aI1
aI1
aI1
aI2
aI1
aI1
aI2
aI1
aI1
aI1
aI1
aI3
aI3
aI1
aI1
aI1
aI1
aI1
aI1
aI2
aI1
aI1
aI4
aI251
aI2
aI1
aI27
aI136
aI1
aI1
aI66
aI1
aI1
aI8
aI1
aI5
aI1
aI1
aI1
aI1
aI1
aI305
aI1
aI3
aI1
aI1
aI2
aI1
aI2
aI2
aI1
aI1
aI1
aI3
aI1
aI1
aI2
aI2
aI1
aI1
aI1
aI1
aI1
aI1
aI1
aI4
aI1
aI2
aI1
aI3
aI1
aI1
aI1
aI3
aI2
aI2
aI1
aI1
aI1
aI1
aI1
aI2
aI1
aI1
aI3
aI1
aI1
aI1796
aI1
aI2
aI1
aI1
aI2
aI1
aI1
aI3
aI1
aI1
aI1
aI2
aI5
aI3
aI1
aI1
aI2
aI1
aI1
aI2
aI1
aI3
aI2
aI867
aI2
aI1
aI1
aI1
aI2
aI1
aI1
aI1
aI1
aI1
aI2
aI1
aI1
aI1
aI1
aI2
aI1
aI1
aI1
aI1
aI4
aI1
aI5
aI2
aI1
aI1
aI7
aI1
aI8
aI1
aI2
aI1
aI3
aI1
aI7288
aI1
aI2
aI5
aI5
aI1
aI1
aI1
aI3
aI1
aI2
aI2
aI1
aI1
aI1
aI2
aI1
aI1
aI2
aI1
aI1
aI1
aI1
aI2
aI2
aI1
aI1
aI2
aI1
aI1
aI125
aI1
aI1
aI1
aI1
aI1
aI1
aI1
aI1
aI21
aI1
aI1
aI1
aI1
aI1
aI1
aI2
aI1
aI15
aI1
aI1
aI3
aI1
aI1
aI2
aI1
aI2
aI1
aI1
aI1
aI3
aI1
aI1
aI1
aI1
aI1
aI1
aI3
aI2
aI1
aI3
aI1
aI1
aI1
aI1
aI1
aI2
aI1
aI1
aI3
aI2
aI23
aI1
aI5
aI170
aI1
aI1
aI5
aI4
aI1
aI1
aI1
aI1
aI2
aI2
aI2
aI2
aI1
aI1
aI1
aI1
aI1
aI1
aI1
aI1
aI1
aI1
aI1
aI1
aI2
aI3
aI1
aI1
aI7
aI1
aI1
aI1
aI1
aI1
aI1
aI1
aI1
aI2
aI1
aI1
aI1
aI1
aI1
aI6
aI1
aI3
aI1
aI5
aI1
aI1
aI6
aI48
aI9
aI12
aI4
aI1
aI2
aI5
aI1
aI1
aI1
aI1
aI1
aI1
aI2
aI1305
aI3
aI1
aI2
aI3
aI1
aI20
aI1
aI5
aI1
aI1
aI1
aI8
aI1
aI1
aI12
aI2
aI2
aI2
aI1
aI1
aI1
aI1
aI1
aI2
aI6
aI1
aI1
aI1
aI2
aI1
aI1
aI1
aI3
aI1
aI1
aI1
aI1
aI3
aI2
aI1
aI1
aI1
aI1
aI4
aI3
aI22
aI1
aI1
aI2
aI1
aI1
aI1
aI1
aI1
aI5
aI5
aI2
aI1
aI4
aI1
aI2
aI1
aI1
aI1
aI1
aI2
aI1
aI4
aI16
aI2
aI1
aI1
aI1
aI1
aI1
aI1
aI2
aI4
aI1
aI114
aI1
aI1
aI1
aI1
aI1
aI1
aI5
aI1
aI1
aI1
aI2
aI2
aI1
aI1
aI15
aI1
aI1
aI3
aI50
aI8
aI1
aI2
aI1
aI1
aI1
aI4
aI1
aI2
aI2
aI2
aI1
aI2
aI2
aI1
aI1
aI2
aI1
aI1
aI2
aI1
aI4
aI1
aI1
aI1
aI1
aI15
aI2
aI4
aI1
aI2
aI1
aI1
aI2
aI1
aI1
aI1
aI1
aI2
aI1
aI1
aI1
aI2
aI3
aI14
aI1
aI1
aI1
aI14
aI2
aI2
aI1
aI1
aI1
aI142
aI10
aI4
aI2
aI1
aI1
aI1
aI5
aI1
aI1
aI1
aI2
aI2
aI2
aI1
aI1
aI2
aI2
aI1
aI1
aI2
aI1
aI1
aI1
aI1
aI45
aI1
aI1
aI1
aI1
aI1
aI4
aI1
aI2
aI8
aI1
aI1
aI2
aI1
aI1
aI1
aI1
aI3
aI1
aI1
aI32
aI1
aI2
aI1
aI1
aI12
aI2
aI24
aI2
aI1
aI20
aI2
aI1
aI1
aI1
aI1
aI2
aI3
aI1
aI1
aI3
aI1
aI1
aI1
aI3
aI32
aI1
aI2
aI1
aI4
aI61
aI1
aI1
aI247
aI1
aI1
aI1
aI3
aI1
aI1
aI1
aI3
aI26
aI2
aI4
aI4
aI3
aI1
aI3
aI1
aI1
aI1
aI1
aI2
aI3
aI1
aI14
aI1
aI1
aI1
aI1
aI1
aI1
aI2
aI3
aI1
aI2
aI3
aI1
aI1
aI1
aI1
aI1
aI1
aI1
aI2
aI1
aI10
aI4
aI1
aI99
aI1
aI14
aI49
aI4
aI1
aI10
aI3
aI2
aI1
aI1
aI1
aI3
aI2
aI2
aI1
aI2
aI1
aI2
aI1
aI1
aI1
aI3
aI2
aI1
aI1
aI1
aI1
aI1
aI2
aI1
aI3
aI1
aI2
aI1
aI1
aI1
aI1
aI1
aI1
aI1
aI1
aI1
aI2
aI8
aI1
aI3
aI1
aI1
aI1
aI4
aI102
aI2
aI1
aI1
aI1
aI1
aI4
aI5
aI4
aI1
aI1
aI1
aI2
aI1
aI1
aI1
aI2
aI1
aI3
aI175
aI1
aI4
aI1
aI1
aI1
aI1
aI1
aI1
aI1
aI2
aI2
aI3
aI1
aI1
aI2
aI1
aI1
aI1
aI4
aI1
aI1
aI1
aI2
aI2
aI1
aI5
aI1
aI3
aI1
aI3
aI1
aI8
aI1
aI1
aI1
aI1
aI2
aI1
aI1
aI1
aI4
aI5
aI81
aI1
aI1
aI1
aI3
aI11
aI3
aI1
aI1
aI1
aI16
aI1
aI1
aI8
aI1
aI1
aI1
aI41
aI1
aI1
aI1
aI3
aI1
aI2
aI1
aI1
aI2
aI1
aI3
aI2
aI1
aI3
aI2
aI1
aI2
aI2
aI3
aI1
aI1
aI1
aI3
aI3
aI2
aI3
aI1
aI4
aI2
aI1
aI2
aI1
aI1
aI1
aI1
aI1
aI1
aI1
aI3
aI2
aI3
aI4
aI1
aI1
aI2
aI2
aI15
aI3
aI1
aI2
aI1
aI1
aI3
aI2
aI1
aI1
aI1
aI2
aI5
aI1
aI1
aI8
aI1
aI3
aI1
aI4
aI1
aI1
aI1
aI1
aI4
aI3
aI3
aI1
aI109
aI2
aI1
aI1
aI1
aI6
aI1
aI4
aI1
aI2
aI1
aI1
aI1
aI1
aI1
aI3
aI579
aI4
aI83
aI1
aI1
aI1
aI1
aI1
aI4
aI1
aI6
aI1
aI1
aI1072
aI1
aI1
aI1
aI2
aI1
aI2
aI1
aI3
aI1
aI1
aI1
aI1
aI1
aI1
aI2
aI1
aI1
aI1
aI20
aI2
aI1
aI25
aI1
aI4
aI1
aI1
aI1
aI1
aI9
aI2
aI18
aI9
aI2
aI1
aI1
aI7
aI1
aI1
aI1
aI1
aI5
aI1
aI1
aI1
aI2
aI1
aI5
aI2
aI1
aI1
aI35
aI1
aI1
aI1
aI1
aI1
aI2
aI4
aI1
aI1
aI1
aI1
aI29
aI3
aI1
aI1
aI1
aI1
aI2
aI3
aI3
aI2
aI1
aI1
aI3
aI14
aI1
aI3
aI2
aI1
aI3
aI2
aI10
aI1
aI2
aI20
aI2
aI2
aI1
aI1
aI1
aI1
aI1
aI2
aI1
aI1
aI1
aI3
aI6
aI2
aI1
aI1
aI1
aI1
aI24
aI4
aI1
aI1
aI1
aI3
aI1
aI1
aI4
aI1
aI1
aI3
aI1
aI1
aI1
aI1
aI1
aI3703
aI1
aI3
aI8
aI1
aI9
aI2
aI2
aI1
aI2
aI1
aI1
aI1
aI1
aI5
aI6
aI1
aI1
aI3
aI2
aI1
aI1
aI1
aI1
aI1
aI4
aI2
aI8
aI3
aI2
aI7
aI2
aI5
aI14
aI1
aI1
aI3
aI4
aI51
aI1
aI1
aI3
aI2
aI2
aI1
aI1
aI8
aI1
aI1
aI2
aI1
aI1
aI1
aI1
aI2
aI4
aI1
aI1
aI1
aI1
aI1
aI3
aI5
aI1
aI1
aI4
aI1
aI11
aI1
aI5
aI1
aI1
aI2
aI5
aI2
aI2
aI2
aI2
aI1
aI1
aI1
aI1
aI1
aI2
aI2
aI31
aI8
aI1
aI10
aI125
aI5
aI1
aI1
aI1
aI1
aI5
aI4
aI1
aI1
aI1
aI1
aI4
aI1
aI1
aI1
aI3
aI1
aI496
aI1
aI1
aI2
aI1
aI1
aI1
aI1
aI3
aI1
aI3
aI3
aI4
aI1
aI1
aI2
aI1
aI2
aI2
aI1
aI3
aI1
aI4
aI1
aI2
aI2
aI3
aI1
aI1
aI1
aI1
aI6
aI1
aI1
aI1
aI1
aI1
aI1
aI1
aI1
aI1
aI102
aI1
aI1
aI4
aI1
aI2
aI1
aI1
aI1
aI1
aI1
aI1
aI50
aI1
aI1
aI1
aI1
aI2
aI1
aI1
aI1
aI1
aI1
aI1
aI1
aI1
aI1
aI1
aI22
aI1
aI1
aI1
aI1
aI1
aI903
aI1
aI1
aI1
aI1
aI1
aI10
aI1
aI145
aI1
aI1
aI1
aI3
aI3
aI1
aI2
aI5
aI1
aI3
aI1
aI1
aI1
aI1
aI1
aI3
aI8
aI10
aI1
aI1
aI4
aI1
aI35
aI5
aI2
aI2
aI1
aI1
aI3
aI1
aI1
aI1
aI1
aI1
aI2
aI1
aI1
aI2
aI1
aI1
aI2
aI2
aI1
aI1
aI1
aI3
aI3
aI2
aI1
aI1
aI184
aI1
aI1
aI10
aI13
aI13
aI2
aI1
aI2
aI1
aI2
aI1
aI1
aI1
aI1
aI1
aI1
aI1
aI1
aI1
aI1
aI1
aI1
aI3
aI1
aI1
aI9
aI5
aI2
aI1
aI2
aI2
aI2
aI1
aI1
aI3
aI1
aI1
aI1
aI1
aI1
aI2
aI1
aI1
aI1
aI2
aI4
aI1
aI19
aI2
aI1
aI1
aI1
aI9
aI2
aI1
aI7
aI2
aI2
aI1
aI4
aI1
aI1
aI1
aI1
aI1
aI7
aI2
aI2
aI1
aI1
aI2
aI2
aI1
aI1
aI1
aI1
aI1
aI2
aI1
aI1
aI1
aI2
aI1
aI1
aI1
aI2
aI1
aI1
aI3
aI1
aI1
aI9
aI9
aI2
aI3
aI1
aI4
aI1
aI9
aI1
aI1
aI5
aI1
aI1
aI1
aI5
aI1
aI1
aI3
aI1
aI1
aI13
aI1
aI1
aI4
aI2
aI1
aI1
aI1
aI3
aI2
aI3
aI1
aI6
aI4
aI1
aI1
aI1
aI1
aI1
aI1
aI2
aI1
aI2
aI1
aI1
aI12
aI2
aI1
aI2
aI1
aI2
aI5
aI1
aI1
aI7
aI1
aI1
aI2
aI1
aI3
aI1
aI2
aI8
aI8
aI10
aI4
aI4
aI1
aI1
aI1
aI3
aI1
aI1
aI2
aI1
aI2
aI1
aI2
aI1
aI1
aI3
aI1
aI2
aI1
aI1
aI2
aI3
aI1
aI1
aI1
aI1
aI2
aI1
aI1
aI1
aI1
aI1
aI1
aI1
aI13
aI1
aI1
aI2
aI2
aI5
aI1
aI1
aI1
aI1
aI2
aI12
aI41
aI2
aI1
aI1
aI2
aI1
aI1
aI1
aI6
aI23
aI1
aI1
aI1
aI2
aI2
aI7
aI2
aI1
aI1
aI1
aI1
aI13
aI3
aI1
aI1
aI1
aI2
aI1
aI13
aI1
aI1
aI1
aI1
aI1
aI37
aI1
aI1
aI1
aI1
aI1
aI1
aI5
aI1
aI1
aI2
aI3
aI1
aI1
aI2
aI1
aI1
aI1
aI3
aI1
aI2
aI15
aI1
aI1
aI2
aI6
aI2
aI16
aI1
aI1
aI1
aI10
aI2
aI1
aI1
aI1
aI1
aI1
aI1
aI1
aI1
aI1
aI27
aI1
aI1
aI1
aI5
aI1
aI37
aI1
aI1
aI1
aI1
aI2
aI1
aI1
aI1
aI1
aI1
aI1
aI1
aI1
aI1
aI1
aI1
aI1
aI1
aI3
aI1
aI3
aI1
aI1
aI1
aI1
aI3
aI1
aI1
aI1
aI1
aI2
aI1
aI9
aI1
aI10
aI11
aI1
aI1
aI1
aI1
aI1
aI3
aI1
aI1
aI1
aI1
aI3
aI1
aI2
aI1
aI7
aI1
aI14
aI1
aI1
aI1
aI1
aI1
aI14
aI6
aI1
aI2
aI1
aI1
aI3
aI12
aI1
aI1
aI2
aI2
aI1
aI1
aI2
aI2
aI1
aI4
aI1
aI2
aI1
aI1
aI130
aI1
aI1
aI10
aI1
aI13
aI2
aI22
aI1
aI70
aI1
aI1
aI1
aI1
aI58
aI12
aI4
aI2
aI2
aI2
aI5
aI1
aI1
aI3
aI1
aI1
aI1
aI1
aI2
aI3
aI1
aI4
aI1
aI2
aI4
aI2
aI1
aI1
aI1
aI1
aI1
aI2
aI1
aI1
aI6
aI1
aI1
aI1
aI1
aI1
aI1
aI3
aI4
aI1
aI7
aI1
aI5
aI1
aI5
aI2
aI1
aI1
aI2
aI51
aI1
aI1
aI2
aI1
aI205
aI1
aI1
aI2
aI2
aI1
aI3
aI1
aI2
aI2
aI1
aI3
aI1
aI1
aI1
aI1
aI2
aI4
aI1
aI3
aI27
aI2
aI1
aI3
aI1
aI1
aI5
aI9
aI1
aI1
aI1
aI2
aI1
aI1
aI1
aI1
aI1
aI2
aI78
aI1
aI1
aI15
aI1
aI2
aI1
aI35
aI2
aI43
aI1
aI5
aI2
aI4
aI1
aI1
aI1
aI1
aI1
aI1
aI19
aI2
aI4
aI1
aI3
aI4
aI1
aI1
aI1
aI1
aI1
aI2
aI1
aI2
aI1
aI1
aI8
aI1
aI2
aI1
aI1
aI2
aI1
aI1
aI1
aI1
aI1
aI1
aI2
aI5
aI1
aI2
aI2
aI1
aI1
aI5
aI1
aI1
aI2
aI1
aI128
aI3
aI18
aI5
aI1
aI19
aI1
aI4
aI28
aI4
aI1
aI2
aI1
aI1
aI7
aI1
aI3
aI2
aI14
aI1
aI3
aI36
aI1
aI2
aI2
aI2
aI2
aI9
aI3
aI1
aI1
aI11
aI1
aI2
aI1
aI1
aI1
aI1
aI1
aI1
aI4
aI1
aI1
aI1
aI1
aI2
aI1
aI7
aI1
aI2
aI1
aI1
aI3
aI1
aI1
aI21
aI1
aI2
aI17
aI5
aI1
aI1
aI1
aI1
aI1
aI1
aI1
aI2
aI1
aI2
aI1
aI2
aI1
aI1
aI1
aI42
aI1
aI1
aI3
aI4
aI1
aI3
aI1
aI1
aI1
aI2
aI1
aI2
aI1
aI1
aI2
aI8
aI2
aI1
aI1
aI1
aI2
aI1
aI2
aI1
aI1
aI1
aI6
aI4
aI1
aI2
aI1
aI1
aI1
aI8
aI2
aI1
aI1
aI1
aI1
aI1
aI2
aI1
aI2
aI2
aI1
aI1
aI1
aI2
aI1
aI1
aI2
aI1
aI1
aI2
aI2
aI3
aI1
aI12
aI1
aI12
aI1
aI1
aI1
aI30
aI5
aI1
aI2
aI1
aI1
aI3
aI3
aI1
aI1
aI12
aI1
aI1
aI2
aI2
aI1
aI1
aI2
aI1
aI1
aI2
aI1
aI1
aI1
aI3
aI3
aI1
aI1
aI1
aI1
aI1
aI1
aI3
aI1
aI4
aI1
aI1
aI1
aI1
aI11
aI1
aI1
aI1
aI1
aI1
aI1
aI187
aI1
aI1
aI1
aI1
aI5
aI1
aI3
aI1
aI2
aI1
aI3
aI1
aI1
aI3
aI27
aI1
aI37
aI2
aI5
aI1
aI2
aI3
aI3
aI1
aI1
aI1
aI7
aI2
aI1
aI1
aI1
aI1
aI3
aI8
aI64
aI1
aI1
aI1
aI1
aI4
aI1
aI1
aI9
aI3
aI1
aI2
aI1
aI1
aI1
aI1
aI1
aI1
aI2
aI1
aI1
aI3
aI2
aI1
aI1
aI2
aI1
aI1
aI15
aI1
aI1
aI1
aI3
aI1
aI1
aI1
aI1
aI1
aI3
aI1
aI4
aI2
aI45
aI1
aI1
aI1
aI2
aI1
aI1
aI4
aI404
aI2
aI1
aI1
aI1
aI1
aI1
aI2
aI2
aI1
aI1
aI1
aI1
aI1
aI1
aI1
aI1
aI18
aI1
aI1
aI1
aI1
aI2
aI1
aI1
aI4
aI1
aI1
aI10
aI6
aI16
aI2
aI1
aI29
aI2
aI263
aI18
aI5
aI1
aI2
aI2
aI1
aI2
aI1
aI20
aI1
aI1
aI15
aI1
aI4
aI5
aI2
aI1
aI1
aI2
aI1
aI1
aI2
aI1
aI1
aI1
aI1
aI3
aI1
aI1
aI1
aI1
aI1184
aI1
aI1
aI1
aI1
aI1
aI1
aI2
aI1
aI1
aI1
aI4
aI1
aI2
aI1
aI72
aI1
aI1
aI1
aI2
aI1
aI6
aI1
aI1
aI1
aI1
aI1
aI1
aI1
aI2
aI6
aI1
aI2
aI2
aI2
aI1
aI119
aI1
aI1
aI2
aI1
aI1
aI1
aI2
aI2
aI1
aI9
aI3
aI4
aI6
aI1
aI3
aI1
aI3
aI1
aI2
aI2
aI1
aI1
aI1
aI1
aI12
aI6
aI1
aI2
aI1
aI1
aI1
aI2
aI1
aI1
aI393
aI1
aI1
aI3
aI1
aI1
aI2
aI4
aI1
aI1
aI1
aI1
aI2
aI2
aI1
aI3
aI4
aI1
aI1
aI1
aI2
aI3
aI67
aI1
aI1
aI4
aI1
aI1
aI1
aI5
aI3
aI3
aI1
aI1
aI7
aI1
aI1
aI98
aI2
aI1
aI1
aI3
aI1
aI2
aI1
aI1
aI1
aI1
aI1
aI3
aI138
aI3
aI2
aI1
aI7
aI1
aI1
aI1
aI1
aI1
aI1
aI2
aI3
aI3
aI2
aI1
aI2
aI1
aI1
aI2
aI1
aI2
aI2
aI1
aI1
aI1
aI1
aI3
aI1
aI6
aI1
aI2
aI1
aI1
aI1
aI1
aI1
aI1
aI35
aI1
aI3
aI3
aI4
aI1
aI11
aI2
aI1
aI4
aI1
aI1
aI2
aI1
aI1
aI1
aI1
aI1
aI1
aI1
aI1
aI14
aI1
aI1
aI1
aI5
aI2
aI1
aI1
aI1
aI2
aI1
aI1
aI1
aI2
aI1
aI1
aI2
aI1
aI1
aI2
aI1
aI6
aI4
aI1
aI156
aI1
aI1
aI1
aI1
aI1
aI1
aI34
aI2
aI45
aI4
aI1
aI1
aI11
aI10
aI1
aI1
aI1
aI2
aI1
aI1
aI1
aI3
aI1
aI1
aI19
aI1
aI1
aI1
aI2
aI2
aI26
aI18
aI12
aI1
aI1
aI2
aI1
aI1
aI1
aI1
aI1
aI1
aI9
aI4
aI3
aI4
aI3
aI1
aI5
aI1
aI1
aI3
aI11
aI1
aI5
aI5
aI1
aI1
aI1
aI1
aI1
aI1
aI2
aI5
aI2
aI1
aI1
aI1
aI1
aI2
aI3
aI1
aI1
aI2
aI2
aI39
aI1
aI1
aI2
aI3288
aI1
aI1
aI7
aI3
aI1
aI2
aI1
aI1
aI9
aI7
aI1
aI1
aI1
aI1
aI337
aI3
aI1
aI3
aI6
aI1
aI1
aI1
aI1
aI23
aI1
aI1
aI2
aI63
aI5
aI1
aI1
aI2
aI1
aI2
aI1
aI1
aI1
aI6
aI1
aI1
aI1
aI1
aI1
aI1
aI1
aI1
aI1
aI1
aI4
aI6
aI1
aI1
aI2
aI1
aI1
aI1
aI2
aI1
aI24
aI2
aI1
aI1
aI1
aI1
aI1
aI1
aI3
aI1
aI1
aI5
aI1
aI2
aI1
aI5
aI1
aI1
aI2
aI2
aI3
aI9
aI1
aI1
aI1
aI1
aI1
aI2
aI2
aI2
aI5
aI1
aI1
aI1
aI1
aI1
aI1
aI3
aI1
aI1
aI1
aI1
aI2
aI1
aI1
aI2
aI2
aI70
aI1
aI3
aI52
aI44
aI1
aI1
aI1
aI1
aI2
aI1
aI4
aI2
aI102
aI2
aI36
aI20
aI1
aI2
aI1
aI14
aI3
aI1
aI14
aI2
aI1
aI1
aI2
aI1
aI2
aI1
aI2
aI1
aI1
aI2
aI2
aI1
aI1
aI2
aI1
aI4
aI1
aI1
aI1
aI1
aI1
aI2
aI1
aI1
aI4
aI1
aI1
aI1
aI1
aI1
aI2
aI1
aI2
aI1
aI1
aI1
aI1
aI3
aI1
aI2
aI4
aI4
aI1
aI1
aI1
aI1
aI18
aI1
aI32
aI2
aI2
aI1
aI1
aI1
aI1
aI1
aI1
aI2
aI2
aI2
aI1
aI1
aI1
aI3
aI1
aI1
aI2
aI22
aI1
aI2
aI1
aI1
aI1
aI2
aI1
aI2
aI1
aI1
aI1
aI1
aI1
aI13
aI1
aI1
aI1
aI2
aI1
aI2
aI12
aI1
aI34
aI1
aI2
aI1
aI2
aI1
aI5
aI3
aI1
aI1
aI1
aI1
aI3
aI1
aI1
aI1
aI1
aI1
aI1
aI1
aI6
aI1
aI2
aI1
aI1
aI1
aI1
aI1
aI1
aI1
aI1
aI1
aI1
aI77
aI1
aI4
aI1
aI1
aI1
aI2
aI7
aI1
aI7
aI1
aI1
aI1
aI1
aI1
aI1
aI2
aI1
aI1
aI1
aI2
aI4
aI2
aI2
aI1
aI6
aI2
aI8
aI1
aI5
aI1
aI1
aI44
aI1
aI1
aI88
aI1
aI10
aI1
aI1
aI7
aI2
aI3
aI1
aI22
aI5
aI1
aI1
aI1
aI1
aI1
aI1
aI1
aI2
aI2
aI1
aI2
aI1
aI2
aI1
aI5
aI1
aI1
aI1
aI8
aI1
aI3
aI1
aI1
aI1
aI2
aI37
aI1
aI1
aI4
aI1
aI1
aI1
aI5
aI1
aI1
aI2
aI1
aI1
aI1
aI1
aI3
aI1
aI1
aI58
aI1
aI2
aI226
aI1
aI2
aI1
aI3
aI38
aI1
aI1
aI33
aI1
aI1
aI1
aI1
aI2
aI2
aI16
aI8
aI1
aI2
aI1
aI1
aI1
aI2
aI1
aI1
aI1
aI2
aI2
aI9
aI1
aI1
aI1
aI1
aI1
aI2
aI2
aI1
aI7
aI4
aI1
aI1
aI5
aI1
aI2
aI1
aI4
aI2
aI1
aI2
aI3
aI1
aI1
aI2
aI1
aI41
aI5
aI4
aI1
aI1
aI1
aI1
aI1
aI1
aI1
aI1
aI1
aI2
aI2
aI1
aI1
aI1
aI4
aI1
aI1
aI2
aI4
aI3
aI1
aI1
aI1
aI1
aI7
aI1
aI1
aI1
aI4
aI1
aI6
aI2
aI1
aI2
aI6
aI1
aI1
aI2
aI12
aI1
aI1
aI1
aI1
aI5
aI1
aI5
aI2
aI1
aI3
aI1
aI5
aI1
aI1
aI1
aI8
aI1
aI1
aI123
aI1
aI1
aI1
aI1
aI415
aI3
aI1
aI1
aI1
aI1
aI1
aI1
aI1
aI1
aI1
aI1
aI2
aI1
aI1
aI3
aI1
aI1
aI1
aI1
aI2
aI70
aI2
aI1
aI1
aI1
aI2
aI1
aI1
aI1
aI2
aI2556
aI5
aI1
aI2
aI76
aI6
aI53
aI1
aI1
aI1
aI1
aI1
aI1
aI1
aI2
aI2
aI1
aI1
aI1
aI1
aI4
aI1
aI1
aI1
aI1
aI1
aI1
aI1
aI1
aI2
aI1
aI1
aI1
aI3
aI1
aI1
aI1
aI1
aI1
aI2
aI4
aI1
aI1
aI1
aI1
aI1
aI75
aI1
aI2
aI3
aI3
aI1
aI1
aI23
aI6
aI3
aI6
aI1
aI1
aI1
aI35
aI1
aI5
aI1
aI1
aI1
aI2
aI1
aI2
aI1
aI1
aI2
aI21
aI1
aI1
aI2
aI1
aI3
aI2
aI1
aI12
aI15
aI1
aI5
aI16
aI1
aI1
aI1
aI2
aI1
aI2
aI1
aI1
aI2
aI1
aI1
aI13
aI1
aI2
aI2
aI1
aI2
aI1
aI1
aI1
aI2
aI123
aI1
aI51
aI2
aI3
aI1
aI1
aI3
aI2
aI2
aI1
aI1
aI2
aI1
aI1
aI3
aI1
aI1
aI1
aI100
aI1
aI285
aI1
aI1
aI1
aI1
aI1
aI1
aI1
aI1
aI1
aI3
aI1
aI5
aI1
aI1
aI1
aI58
aI35
aI1
aI1
aI21
aI1
aI1
aI6
aI1
aI9
aI14
aI19
aI1
aI1
aI1
aI1
aI1
aI2
aI2
aI1
aI1
aI3
aI3
aI4
aI2
aI2
aI1
aI1
aI1
aI4
aI1
aI6
aI1
aI1
aI1
aI1
aI1
aI2
aI1
aI2
aI2
aI1
aI2
aI1
aI1
aI1
aI2
aI1
aI4
aI1
aI13
aI1
aI1
aI1
aI4
aI1
aI4
aI1
aI1
aI5
aI1
aI1
aI3
aI1
aI1
aI1
aI3
aI4
aI1
aI3
aI1
aI1
aI1
aI1
aI1
aI1
aI1
aI1
aI47
aI2
aI6
aI1
aI170
aI1
aI2
aI1
aI5
aI1
aI1
aI2
aI6
aI2
aI1
aI1
aI3
aI11
aI105
aI2
aI1
aI1
aI55
aI1
aI1
aI2
aI1
aI1
aI4
aI1
aI1
aI2
aI1
aI3
aI1
aI1
aI1
aI1
aI2
aI1
aI2
aI1
aI1
aI2
aI3
aI2
aI2
aI1
aI1
aI1
aI1
aI1
aI23
aI29
aI1
aI1
aI14
aI2
aI1
aI1
aI1
aI2
aI1
aI1
aI62
aI1
aI1
aI2
aI2
aI3
aI1
aI3
aI1
aI2
aI1
aI15
aI8
aI2
aI1
aI1
aI1
aI3
aI1
aI1
aI1
aI2
aI1
aI1
aI1
aI1
aI1
aI3
aI1
aI1
aI1
aI2
aI1
aI1
aI1
aI4
aI1
aI1
aI86
aI1
aI1
aI1
aI1
aI3
aI1
aI3
aI1
aI1
aI2
aI1
aI1
aI1
aI2
aI1
aI1
aI1
aI1
aI1
aI9
aI1
aI2
aI1
aI9
aI1
aI4
aI1
aI1
aI5
aI1
aI4
aI1
aI1
aI1
aI1
aI1
aI1
aI1
aI1
aI1
aI2
aI1
aI3
aI1
aI1
aI1
aI2
aI1
aI2
aI1
aI2
aI6
aI6
aI1
aI444
aI12
aI2
aI4
aI1
aI1
aI2
aI1
aI2
aI8
aI1
aI1
aI1
aI481
aI2
aI2
aI1
aI2
aI1
aI1
aI1
aI6
aI1
aI5
aI37
aI1
aI28
aI1
aI2
aI1
aI11
aI1
aI1
aI4
aI1
aI1
aI3
aI17
aI2
aI2
aI1
aI1
aI1
aI3
aI2
aI1
aI2
aI1
aI1
aI1
aI1
aI1
aI3
aI2
aI1
aI108
aI2
aI5
aI1
aI1
aI1
aI2
aI1
aI1
aI1
aI1
aI1
aI2
aI6
aI8
aI1
aI1
aI6
aI2
aI1
aI1
aI1
aI1
aI4
aI1
aI1
aI4
aI2
aI1
aI1
aI2
aI6
aI1
aI4
aI1
aI2
aI1
aI1
aI1
aI1
aI1
aI1
aI2
aI1
aI2
aI1
aI3
aI1
aI1
aI3
aI5
aI1
aI7
aI1
aI1
aI1
aI29
aI1
aI1
aI1
aI1
aI1
aI1
aI28
aI1
aI1
aI1
aI1
aI1
aI1
aI4
aI11
aI1
aI2
aI1
aI1
aI1
aI1
aI2
aI1
aI1
aI1
aI1
aI2
aI3
aI1
aI1
aI1
aI1
aI3
aI2
aI1
aI3
aI1
aI1
aI1
aI1
aI15
aI1
aI3
aI7
aI68
aI1
aI1
aI1
aI1
aI1
aI1
aI1
aI1
aI1
aI1
aI1
aI1
aI5
aI2
aI1
aI1
aI2
aI1
aI2
aI3
aI1
aI1
aI1
aI1
aI1
aI1
aI2
aI1
aI1
aI1
aI1
aI1
aI1
aI1
aI1
aI1
aI1
aI2
aI1
aI1
aI1
aI1
aI1
aI3
aI1
aI1
aI1
aI1
aI1
aI2
aI1
aI1
aI1
aI21
aI1
aI1
aI1
aI1
aI1
aI1
aI2
aI1
aI3
aI1
aI2
aI2
aI1
aI1
aI1
aI3
aI1
aI2
aI1
aI1
aI1
aI68
aI1
aI1
aI1
aI2
aI25404
aI1
aI1
aI7
aI1
aI6
aI4
aI1
aI1
aI1
aI2
aI24
aI1
aI1
aI3
aI1
aI1
aI59
aI3
aI1
aI1
aI107
aI1
aI1
aI2
aI1
aI1
aI2
aI5
aI1
aI3
aI341
aI2
aI2
aI5
aI1
aI1
aI1
aI1
aI1
aI47
aI1
aI2
aI9
aI9
aI1
aI1
aI2
aI1
aI1
aI1
aI1
aI3
aI1
aI1
aI1
aI1
aI1
aI1
aI1
aI2
aI1
aI1
aI1
aI5
aI1
aI4
aI3
aI1
aI7
aI2
aI5
aI1
aI1
aI1
aI1
aI2
aI3
aI1
aI1
aI1
aI1
aI2
aI1
aI1
aI1
aI1
aI3
aI36
aI1089
aI2
aI3
aI1
aI4
aI19
aI1
aI1
aI1
aI1
aI3
aI3
aI3
aI4
aI1
aI1
aI3
aI2
aI2
aI1
aI2
aI1
aI1
aI2
aI1
aI1
aI1
aI1
aI1
aI1
aI1
aI1
aI4
aI1
aI3
aI4
aI1
aI3
aI7
aI9
aI1
aI1
aI1
aI1
aI3
aI1
aI1
aI1
aI1
aI1
aI2
aI1
aI1
aI10
aI2
aI1
aI1
aI2
aI2
aI1
aI1
aI2
aI1
aI1
aI3
aI1
aI2
aI1
aI2
aI1
aI1
aI1
aI1
aI3
aI1
aI1
aI1
aI95
aI1
aI1
aI1
aI1
aI2
aI1
aI1
aI1
aI1
aI1
aI1
aI1
aI4
aI1
aI1
aI3
aI3
aI1
aI2
aI1
aI7
aI1
aI1
aI3
aI1
aI1
aI1
aI4
aI1
aI9
aI2
aI10
aI1
aI1
aI2
aI1
aI1
aI1
aI1
aI1
aI1
aI1
aI1
aI3
aI1
aI1
aI2
aI1
aI1
aI1
aI1
aI1
aI2
aI1
aI1
aI1
aI2
aI2
aI2
aI4
aI2
aI1
aI1
aI2
aI1
aI3
aI1
aI5
aI12
aI1
aI1
aI1
aI14
aI1
aI3
aI1
aI2
aI1
aI6
aI2
aI1
aI1
aI1
aI1
aI1
aI4
aI1
aI2
aI1
aI1
aI1
aI1
aI2
aI9
aI1
aI6
aI1
aI1
aI2
aI1
aI1
aI1
aI1
aI15
aI17
aI2
aI1
aI2
aI1
aI2
aI2
aI1
aI1
aI4
aI1
aI1
aI2
aI1
aI1
aI1
aI1
aI3
aI1
aI1
aI1
aI2
aI1
aI1
aI1
aI1
aI1
aI1
aI9
aI1
aI1
aI1
aI1
aI2
aI1
aI1
aI3
aI2
aI1
aI13
aI2
aI1
aI10
aI1
aI1
aI1
aI1
aI33
aI1
aI1
aI5
aI1
aI2
aI1
aI1
aI1
aI36
aI1
aI1
aI1
aI1
aI15
aI1
aI2
aI1
aI5
aI3
aI4
aI2
aI1
aI5
aI1
aI4
aI1
aI1
aI1
aI1
aI1
aI1
aI1
aI1
aI1
aI1
aI2
aI1
aI3
aI1
aI1
aI4
aI1
aI1
aI1
aI1
aI3
aI2
aI17
aI1
aI1
aI1
aI1
aI1
aI1
aI1
aI1
aI180
aI1
aI1
aI1
aI2
aI3
aI10
aI1
aI2
aI1
aI43
aI1
aI1
aI3
aI1
aI2
aI1
aI1
aI1
aI2
aI1
aI2
aI1
aI2560
aI1
aI1
aI1
aI2
aI1
aI3
aI10
aI2
aI1
aI2
aI1
aI4
aI2
aI1
aI1
aI1
aI1
aI3
aI1
aI1
aI1
aI5
aI1
aI3
aI1
aI2153
aI1
aI1
aI2
aI1
aI82
aI2
aI3
aI1
aI1
aI14
aI1
aI2
aI2
aI2
aI1
aI3
aI1
aI1
aI1
aI2
aI1
aI2
aI1
aI1
aI1
aI4
aI1
aI1
aI4
aI1
aI1
aI1
aI1
aI1
aI1
aI1
aI5
aI1
aI2
aI4
aI3
aI1
aI1
aI1
aI1
aI1
aI1
aI1
aI1
aI4
aI1
aI1
aI2
aI2
aI1
aI1
aI3
aI2
aI1
aI3
aI1
aI12
aI1
aI2
aI4
aI1
aI1
aI4
aI1
aI26
aI751
aI4
aI43
aI1
aI8
aI5
aI1
aI1
aI1
aI1
aI1
aI1
aI1
aI1
aI1
aI1
aI1
aI1
aI1
aI2
aI1
aI8
aI1
aI1
aI1
aI9
aI1
aI2
aI2
aI1
aI3
aI1
aI1
aI11
aI2
aI1
aI1
aI4
aI3
aI2
aI4
aI2
aI6
aI27
aI1
aI1
aI1
aI3
aI1
aI1
aI2
aI1
aI1
aI1
aI1
aI1
aI1
aI7765
aI1
aI1
aI1
aI1
aI5
aI80
aI2
aI1
aI1
aI1
aI1
aI3
aI2
aI1
aI5
aI1
aI1
aI1
aI2
aI1
aI1
aI1
aI5
aI106
aI1
aI2
aI2
aI1
aI1
aI2
aI1
aI1
aI1
aI4
aI1
aI5
aI3
aI1
aI1
aI69
aI1
aI16
aI1
aI22
aI2
aI35
aI1
aI2
aI2
aI2
aI1
aI2
aI1
aI1
aI1
aI1
aI4
aI1
aI1
aI5
aI1
aI2
aI8
aI1
aI1
aI1
aI1
aI1
aI1
aI376
aI1
aI1
aI2
aI2
aI1
aI1
aI7
aI8
aI1
aI6
aI1
aI2
aI1
aI1
aI1
aI2
aI2
aI2
aI1
aI5
aI2
aI1
aI1
aI1
aI1
aI2
aI1
aI1
aI1
aI2
aI1
aI2
aI1
aI4
aI1
aI6
aI1
aI1
aI1
aI11
aI2
aI2
aI4
aI12
aI2
aI3
aI1
aI1
aI10
aI1
aI1
aI1
aI1
aI24
aI1
aI44
aI1
aI2
aI17
aI1
aI1
aI1
aI8
aI20
aI1
aI3
aI5
aI1
aI3
aI4
aI1
aI1
aI1
aI2
aI1
aI1
aI2
aI8
aI1
aI1
aI1
aI1
aI2
aI5
aI1
aI2
aI288
aI1
aI1
aI5
aI1
aI2
aI1
aI2
aI1
aI1
aI1
aI1
aI3
aI1
aI5
aI2
aI1
aI12
aI5
aI1
aI1
aI2
aI2
aI1
aI1
aI1
aI2
aI3
aI1
aI1
aI5
aI1
aI1
aI1
aI1
aI2793
aI1
aI1
aI1
aI3
aI1
aI1
aI1
aI2
aI1
aI1
aI1
aI1
aI11
aI1
aI8
aI2
aI1
aI1
aI1
aI2
aI2
aI1
aI1
aI1
aI8
aI1
aI1
aI1
aI3
aI2
aI3
aI2
aI1
aI7
aI1
aI2
aI1
aI1
aI1
aI1
aI1
aI3
aI2
aI1
aI4
aI1
aI1
aI4
aI1
aI1
aI1
aI1
aI2
aI1
aI1
aI1
aI3
aI2
aI3
aI1
aI1
aI1
aI1
aI1
aI1
aI2
aI3
aI1
aI1
aI1
aI2
aI1
aI3
aI5
aI1
aI1
aI2
aI1
aI1
aI1
aI2
aI1
aI2
aI1
aI1
aI1
aI1
aI2
aI1
aI1
aI1
aI5
aI2
aI1
aI1
aI2
aI7
aI1
aI1
aI1
aI1
aI3
aI1
aI1
aI1
aI1
aI1
aI2
aI1
aI2
aI1
aI1
aI1
aI53
aI9
aI1
aI1
aI2
aI1
aI3
aI2
aI24
aI1
aI1
aI1
aI2
aI5
aI1
aI4
aI3
aI1
aI4
aI1
aI6
aI1
aI1
aI1
aI2
aI1
aI108
aI1
aI1
aI2
aI1
aI2
aI1
aI2
aI4
aI1
aI1
aI2
aI1
aI1
aI1
aI2
aI1
aI1
aI1
aI1
aI6
aI1
aI3
aI31
aI1
aI3
aI1
aI1
aI1
aI3
aI1
aI1
aI3
aI27
aI2
aI1
aI1
aI1
aI1
aI1
aI4
aI2
aI5
aI1
aI1
aI2
aI2
aI2
aI1
aI1
aI2
aI1
aI2
aI2
aI2
aI2
aI1
aI2
aI1
aI1
aI1
aI1
aI2
aI1
aI4
aI1
aI4
aI6
aI1
aI1
aI2
aI1
aI6
aI1
aI1
aI1
aI5
aI5
aI1
aI1
aI1
aI1
aI1
aI2
aI1
aI1
aI1
aI1
aI36
aI1
aI1
aI2
aI1
aI1
aI2
aI1
aI491
aI1
aI5
aI8
aI1
aI1
aI18
aI3
aI1
aI1
aI1
aI1
aI5
aI1
aI1
aI2
aI8
aI4
aI1
aI1
aI2
aI1
aI1
aI3
aI1
aI1
aI1
aI1
aI4
aI1
aI2
aI1
aI1
aI1
aI4
aI1
aI2
aI2
aI1
aI3
aI1
aI2
aI2
aI1
aI1
aI13
aI24
aI19
aI1
aI2
aI1
aI2
aI2
aI2
aI1
aI1
aI1
aI59
aI5
aI3
aI1
aI1
aI1
aI3
aI1
aI8
aI1
aI1
aI3
aI2
aI2
aI1
aI10
aI1
aI1
aI1
aI2
aI2
aI1
aI3
aI2
aI2
aI2
aI1
aI1
aI1
aI1
aI1
aI8
aI2
aI1
aI1
aI1
aI1
aI1
aI4
aI1
aI1
aI1
aI1
aI1
aI1
aI1
aI2
aI3
aI3
aI2
aI3
aI3
aI1
aI1
aI1
aI1
aI2
aI2
aI2
aI5
aI2
aI1
aI1
aI7
aI1
aI1
aI1
aI1
aI1
aI1
aI6
aI1
aI5
aI1
aI2
aI1
aI6
aI1
aI1
aI3
aI1
aI4
aI1
aI2
aI1
aI1
aI4
aI5
aI1
aI1
aI1
aI2
aI1
aI2
aI1
aI3
aI1
aI1
aI1
aI1
aI1
aI1
aI1
aI1
aI1
aI1
aI3
aI1
aI1
aI5
aI2
aI1
aI1
aI5
aI1
aI1
aI1
aI1
aI1
aI1
aI3
aI1
aI5
aI1
aI1
aI2
aI1
aI2
aI1
aI1
aI1
aI2
aI2
aI11
aI1
aI2
aI1
aI2
aI1
aI3
aI1
aI1
aI1
aI4
aI257
aI1
aI7
aI1
aI16
aI2
aI1
aI1
aI1
aI1
aI1
aI1
aI1
aI1
aI1
aI1
aI449
aI1
aI1
aI1
aI1
aI1
aI3
aI1
aI2
aI1
aI1
aI1
aI1
aI1
aI1
aI1
aI1
aI1
aI10
aI1
aI2
aI1
aI1
aI3
aI2
aI1
aI1
aI3
aI1
aI2
aI1
aI1
aI22
aI1
aI2
aI1
aI1
aI16
aI1
aI1
aI1
aI16
aI169
aI1
aI4
aI1
aI1
aI1
aI1
aI1
aI1
aI1
aI3
aI3
aI3
aI1
aI1
aI3
aI3
aI1
aI2
aI21
aI2
aI2
aI1
aI4
aI1
aI1
aI1
aI1
aI1
aI1
aI1
aI1
aI1
aI1
aI1
aI3
aI1
aI2
aI1
aI1
aI2
aI1
aI2
aI2
aI134
aI1
aI4
aI1
aI1
aI1
aI1
aI1
aI2
aI2
aI1
aI1
aI1
aI1
aI1
aI2
aI3
aI1
aI1
aI3
aI2
aI2
aI2
aI1
aI1
aI1
aI1
aI1
aI2
aI1
aI42
aI1
aI1
aI1
aI1
aI1
aI2
aI1
aI1
aI1
aI1
aI1
aI1
aI1
aI1
aI1
aI1
aI1
aI3
aI27
aI12
aI1
aI6
aI1
aI1
aI7
aI3
aI1
aI1
aI1
aI1
aI1
aI3
aI1
aI1
aI96
aI1
aI1
aI1
aI5
aI2
aI1
aI4
aI5
aI1
aI3
aI1
aI1
aI1
aI1
aI1
aI1
aI1
aI1
aI1
aI1
aI2
aI1
aI1
aI2
aI1146
aI1
aI1
aI1
aI1
aI2
aI3
aI1
aI1
aI1
aI1
aI1
aI1
aI1
aI1
aI1
aI6
aI2
aI1
aI1
aI6
aI1
aI3
aI1
aI16
aI105
aI1
aI1
aI4
aI6
aI1
aI3
aI1
aI2
aI2
aI2
aI2
aI1
aI1
aI1
aI3
aI1
aI2
aI1
aI2
aI1
aI1
aI1
aI2
aI1
aI3
aI1
aI1
aI4
aI1
aI1
aI2752
aI2
aI1
aI1
aI1
aI1
aI35
aI1
aI2
aI3
aI1
aI1
aI2
aI1
aI2
aI2
aI1
aI1
aI1
aI1
aI1
aI1
aI1
aI1
aI2
aI1
aI4
aI1
aI2
aI3
aI2
aI1
aI1
aI1
aI1
aI1
aI1
aI4
aI6
aI1
aI1
aI1
aI1
aI3
aI17
aI2
aI1
aI1
aI13
aI3
aI2
aI2
aI1
aI1
aI4
aI2
aI1
aI1
aI1
aI1
aI1
aI3
aI4
aI1
aI1
aI3
aI1
aI3
aI1
aI1
aI1
aI1
aI1
aI2
aI2
aI1
aI1
aI1
aI1
aI1
aI1
aI1
aI7
aI1
aI1
aI2
aI1
aI2
aI1
aI1
aI1
aI1
aI1
aI2
aI2
aI4
aI1
aI1
aI9
aI1
aI1
aI1
aI1
aI1
aI1
aI1
aI1
aI1
aI1
aI1
aI4
aI1
aI1
aI1
aI1
aI1
aI2
aI1
aI2
aI4
aI1
aI2
aI21
aI1
aI31
aI1
aI1
aI5
aI3
aI1
aI1
aI3
aI1
aI3
aI62
aI7
aI1
aI1
aI1
aI2
aI1
aI2
aI1
aI1
aI1
aI1
aI2
aI1
aI2
aI1
aI8
aI4
aI3
aI2
aI13
aI2
aI2
aI1
aI1
aI2
aI1
aI1
aI1
aI1
aI2
aI1
aI1
aI1
aI1
aI1
aI1
aI3
aI1
aI1
aI1
aI8
aI1
aI1
aI1
aI1
aI6
aI1
aI3
aI54
aI55
aI52
aI1
aI26
aI1
aI1
aI1
aI1
aI1
aI37
aI1
aI4
aI1
aI2
aI2
aI1
aI1
aI1
aI3
aI1
aI6
aI1
aI1
aI1
aI1
aI1
aI1
aI2
aI1
aI1
aI1
aI1
aI1
aI1
aI1
aI1
aI1
aI1
aI16
aI3
aI2
aI1
aI1
aI1
aI4
aI1
aI1
aI2
aI1
aI1
aI1
aI1
aI1
aI1
aI1
aI1
aI1
aI1
aI2
aI6
aI1
aI13
aI1
aI1
aI1
aI4
aI1
aI2
aI1
aI1
aI5
aI1
aI3
aI2
aI2
aI6
aI2
aI2
aI3
aI1
aI2
aI3
aI1
aI1
aI2
aI3
aI2
aI1
aI1
aI1
aI1
aI3
aI1
aI6
aI1
aI1
aI1
aI1
aI1
aI1
aI1
aI1
aI2
aI1
aI2
aI1
aI2
aI1
aI1
aI1
aI1
aI1
aI1
aI1
aI1
aI1
aI1
aI1
aI2
aI1
aI1
aI1
aI1
aI2
aI2
aI1
aI2
aI1
aI6
aI1
aI2
aI1
aI1
aI1
aI2
aI13
aI1
aI2
aI3
aI2
aI3
aI1
aI4
aI2
aI2
aI1
aI7
aI1
aI5
aI4
aI1
aI1
aI2
aI1
aI1
aI1
aI1
aI5
aI1
aI2
aI1
aI3
aI1
aI1
aI2
aI1
aI1
aI2
aI3
aI1
aI2
aI1
aI1
aI30
aI1
aI1
aI5
aI2
aI2
aI1
aI1
aI44
aI1
aI3
aI1
aI1
aI1
aI1
aI55
aI1
aI1
aI1
aI2
aI1
aI2
aI1
aI4
aI1
aI1
aI12984
aI1
aI2
aI1
aI1
aI2
aI2
aI1
aI1
aI2
aI1
aI1
aI1
aI2
aI1
aI1
aI2
aI1
aI2
aI2
aI3
aI1
aI3
aI1
aI1
aI1
aI1
aI1
aI1
aI1
aI1
aI2
aI1
aI1
aI4
aI2
aI2
aI1
aI1
aI1
aI3
aI15
aI1
aI1
aI1
aI2
aI3
aI1
aI1
aI1
aI1
aI1
aI1
aI1
aI1
aI1
aI4
aI1
aI1
aI1
aI1
aI1
aI1
aI1
aI1
aI1
aI10
aI3
aI2
aI1
aI1
aI1
aI1
aI1
aI50
aI1
aI1
aI1
aI19
aI1
aI2
aI1
aI1
aI1
aI27
aI1
aI8
aI1
aI16
aI3
aI10
aI2
aI1
aI1
aI1
aI2
aI1
aI1
aI1
aI1
aI6
aI3
aI1
aI1
aI11
aI1
aI1
aI2
aI1
aI1
aI1
aI1
aI1
aI2
aI1
aI1
aI2
aI2
aI3
aI1
aI1
aI1
aI2
aI1
aI2
aI39
aI2
aI2
aI1
aI1
aI1
aI2
aI1
aI33
aI1
aI2
aI1
aI2
aI1
aI1
aI1
aI1
aI1
aI1
aI46
aI22
aI2
aI1
aI930
aI2
aI1
aI1
aI3
aI21
aI2
aI3
aI1
aI1
aI1
aI1
aI1
aI1
aI1
aI1
aI7
aI2
aI2
aI1
aI24
aI1
aI1
aI2
aI1
aI1
aI1
aI1
aI2
aI1
aI1
aI2
aI2
aI1
aI4
aI1
aI1
aI29
aI1
aI3
aI1
aI2
aI1
aI972
aI1
aI31
aI1
aI4
aI1
aI1
aI1
aI3
aI1
aI1
aI2
aI1
aI2
aI1
aI1
aI1
aI1
aI2
aI2
aI1
aI3
aI3
aI3
aI1
aI1
aI1
aI1
aI1
aI1
aI104
aI1
aI1
aI1
aI1
aI1
aI13
aI6
aI1
aI1
aI4
aI1
aI2
aI2
aI1
aI3
aI3
aI4
aI2
aI23
aI1
aI2
aI3
aI1
aI2
aI1
aI1
aI1
aI3
aI3
aI1
aI2
aI1
aI1
aI1
aI4
aI6
aI1
aI1
aI320
aI1
aI3
aI1
aI1
aI1
aI12
aI2
aI2
aI10
aI1
aI26
aI2
aI3
aI1
aI1
aI2
aI1
aI1
aI1
aI1
aI10
aI1
aI1
aI1
aI1
aI1
aI3
aI1
aI2
aI1
aI1
aI1
aI1
aI1
aI6
aI1
aI1
aI1
aI9
aI1
aI2
aI3
aI1
aI3
aI1
aI1
aI1
aI1
aI1
aI16
aI3
aI1
aI1
aI1
aI5
aI1
aI1
aI2
aI1
aI1
aI1
aI1
aI1
aI1
aI1
aI25
aI1
aI1
aI1
aI1
aI70
aI2
aI7
aI2
aI1
aI3
aI101
aI1
aI1
aI1
aI7
aI1
aI62
aI1
aI4
aI2
aI3
aI1
aI1
aI1
aI1
aI1
aI59
aI1
aI1
aI91
aI1
aI3
aI3
aI1
aI2
aI8
aI1
aI2
aI3
aI9
aI2
aI3
aI1
aI3
aI1
aI5
aI1
aI6
aI3
aI11
aI1
aI1
aI1
aI56
aI1
aI5
aI2
aI14
aI1
aI1
aI1
aI1
aI1
aI1
aI1
aI1
aI2
aI1
aI1
aI1
aI1
aI1
aI1
aI3
aI1
aI1
aI1
aI1
aI1
aI1
aI1
aI1
aI1
aI1
aI3
aI2
aI1
aI1
aI1
aI1
aI1
aI1
aI1
aI1
aI1
aI1
aI1
aI1
aI1
aI2
aI1
aI1
aI1
aI1
aI1
aI1
aI1
aI2
aI45
aI1
aI1
aI5
aI1
aI1
aI12
aI104
aI1
aI1
aI1
aI1
aI1
aI1
aI23
aI1
aI1
aI4
aI1
aI1
aI1
aI1
aI227
aI1
aI1
aI1
aI7
aI2
aI2
aI1
aI1
aI1
aI1
aI1
aI1
aI1
aI1
aI3
aI1
aI1
aI247
aI2
aI1
aI1
aI1
aI1
aI5
aI1
aI1
aI1
aI2
aI2
aI2
aI1
aI1
aI2
aI6
aI10
aI4
aI2
aI10
aI1
aI2
aI1
aI5
aI2
aI1
aI25
aI2
aI1
aI1
aI1
aI1
aI1
aI1
aI1
aI1
aI1
aI1
aI1
aI2
aI4
aI2
aI1
aI1
aI1
aI3
aI1
aI1
aI1
aI1
aI2
aI1
aI1
aI1
aI1
aI1
aI1
aI4
aI1
aI1
aI1
aI1
aI1
aI1
aI2
aI6
aI1
aI1
aI1
aI1
aI1
aI4
aI2
aI5
aI3
aI1
aI1
aI1
aI1
aI2
aI2
aI1
aI2
aI18
aI1
aI1
aI1
aI1
aI1
aI1
aI1
aI1
aI2
aI31
aI1
aI1
aI2
aI13
aI1
aI1
aI101
aI1
aI2
aI1
aI1
aI1
aI6
aI2
aI3
aI1
aI1
aI1
aI12
aI1
aI4
aI8
aI1
aI3
aI2
aI1
aI1
aI1
aI1
aI1
aI1
aI1
aI1
aI1
aI4
aI1
aI5
aI1
aI1
aI1
aI1
aI1
aI1
aI1
aI1
aI2
aI8
aI1
aI1
aI1
aI26
aI2
aI1
aI1
aI1
aI1
aI1
aI58
aI2
aI1
aI1
aI1
aI1
aI2
aI1
aI9
aI1
aI1
aI1
aI3
aI1
aI1
aI1
aI1
aI1
aI1
aI1
aI1
aI2
aI2
aI1
aI1
aI1
aI4
aI1
aI1
aI1
aI1
aI1
aI1
aI1
aI2
aI1
aI9
aI1
aI1
aI3
aI1
aI1
aI1
aI1
aI1
aI1
aI2
aI2
aI1
aI1
aI1
aI1
aI6
aI2
aI1
aI3
aI1
aI1
aI1
aI2
aI1
aI1
aI3
aI3
aI1
aI1
aI9535
aI1
aI1
aI1
aI16
aI1
aI1
aI1
aI3
aI1
aI1
aI1
aI1
aI1
aI19
aI1
aI2
aI21
aI2
aI2
aI1
aI2
aI1
aI1
aI1
aI1
aI1
aI2
aI8
aI6
aI1
aI1
aI2
aI1
aI1
aI1
aI1
aI4
aI2
aI1
aI1
aI1
aI1
aI1
aI1
aI1
aI3
aI1
aI3
aI1
aI2
aI2
aI1
aI1
aI1
aI1
aI1
aI6
aI3
aI1
aI1
aI2
aI1
aI1
aI1
aI1
aI5
aI7
aI1
aI15
aI10
aI1
aI1
aI2
aI1
aI1
aI1
aI1
aI1
aI2
aI2
aI2
aI1
aI1
aI4
aI1
aI1
aI2
aI1
aI1
aI1
aI1
aI69
aI1
aI1
aI1
aI1
aI6
aI3
aI1
aI2
aI1
aI4
aI1
aI1
aI1
aI1
aI1
aI3
aI1
aI10
aI2
aI1
aI3
aI3
aI1
aI1
aI1
aI1
aI2
aI2
aI2
aI2
aI16
aI1
aI1
aI1
aI1
aI12
aI4
aI1
aI5
aI6
aI1
aI3
aI1
aI3
aI1
aI1
aI2
aI1
aI1
aI1
aI2
aI1
aI1
aI1
aI3
aI1
aI1
aI1
aI1
aI1
aI1
aI2
aI1
aI2
aI4
aI1
aI1
aI1
aI1
aI1
aI1
aI2
aI2
aI6
aI1
aI1
aI1
aI2
aI2
aI1
aI1
aI1
aI29
aI1
aI1
aI1
aI49
aI3
aI1
aI1
aI1
aI2
aI1
aI7
aI1
aI1
aI2
aI3
aI5
aI3
aI2
aI2
aI2
aI1
aI1
aI1
aI1
aI1
aI2
aI1
aI1
aI1
aI1
aI1
aI1
aI1
aI1
aI1
aI1
aI1
aI8
aI1
aI1
aI2
aI1
aI1
aI1
aI1
aI2
aI1
aI1
aI23
aI1
aI9
aI1
aI1
aI10
aI2
aI1
aI1
aI30
aI1
aI1
aI10
aI45
aI1
aI1
aI2
aI1
aI1
aI2
aI1
aI1
aI1
aI3
aI1
aI1
aI4
aI3
aI2
aI1
aI1
aI1
aI1
aI1
aI1
aI3
aI44
aI19
aI120
aI1
aI1
aI1
aI1
aI4
aI1
aI1
aI3
aI3
aI6
aI1
aI1
aI3
aI4
aI5
aI2
aI2
aI2
aI2
aI1
aI1
aI1
aI1
aI2
aI1
aI1
aI4
aI1
aI1
aI2
aI1
aI2
aI1
aI6
aI79
aI4
aI1
aI1
aI2
aI1
aI2
aI3
aI1
aI1
aI1
aI6
aI1
aI4
aI1
aI9
aI5
aI14
aI3
aI4
aI2
aI1
aI5
aI1
aI1
aI3
aI1
aI5
aI1
aI7
aI1
aI1
aI4
aI2
aI1
aI2
aI3
aI2
aI1
aI1
aI6
aI3
aI104
aI1
aI2
aI1
aI1
aI7
aI1
aI1
aI1
aI7
aI1
aI1
aI1
aI1
aI1
aI3
aI451
aI2
aI264
aI2
aI11
aI2
aI2
aI7
aI1
aI3
aI2
aI1
aI11
aI1
aI1
aI1
aI1
aI1
aI2
aI1
aI1
aI22
aI1
aI1
aI4
aI1
aI20
aI1
aI1
aI1
aI10
aI2
aI1
aI4
aI3
aI11
aI2
aI1
aI1
aI2
aI13
aI1
aI1
aI8
aI5
aI1
aI49
aI23
aI1
aI1
aI1
aI2
aI1
aI5
aI2
aI1
aI12
aI1
aI1
aI1
aI1
aI1
aI18
aI3
aI124
aI1
aI1
aI2
aI3
aI1
aI1
aI1
aI1
aI1
aI2
aI1
aI1600
aI1
aI1
aI4
aI1
aI5
aI1
aI2
aI1
aI1
aI1
aI4
aI2
aI4
aI1
aI1
aI1
aI1
aI1
aI1
aI208
aI2
aI4
aI9
aI4
aI3
aI2
aI1
aI1
aI1
aI7
aI1
aI1
aI1
aI2
aI12
aI1
aI1
aI1
aI2
aI1
aI1
aI2
aI1
aI2
aI1
aI1
aI1
aI1
aI6
aI2
aI1
aI1
aI3
aI4
aI3
aI2
aI14
aI1
aI2
aI6
aI1
aI148
aI1
aI2
aI1
aI1
aI5
aI4
aI19
aI2
aI24
aI1
aI1
aI1
aI2
aI1
aI1
aI1
aI10
aI1
aI1
aI2
aI1
aI2
aI1
aI1
aI59
aI3
aI9
aI2
aI1
aI2
aI1
aI3
aI1
aI1
aI1
aI1
aI1
aI3
aI1
aI1
aI1
aI1
aI1
aI3
aI1
aI2
aI2
aI1
aI1
aI1
aI2
aI1
aI1
aI11
aI1
aI4
aI1
aI11
aI1
aI4
aI1
aI1
aI2
aI1
aI1
aI12
aI1
aI5
aI34
aI1
aI1
aI206
aI1
aI1
aI1
aI3
aI1
aI1
aI1
aI1
aI1
aI1
aI1
aI1
aI1
aI1
aI1
aI1
aI1
aI7
aI1
aI1
aI1
aI18
aI135
aI58
aI1
aI1
aI1
aI4
aI2
aI2
aI2
aI1
aI2
aI1
aI1
aI1
aI1
aI2
aI1
aI8
aI1
aI35
aI6
aI1
aI463
aI5
aI1
aI2
aI3
aI1
aI1
aI11
aI2
aI1
aI1
aI2
aI1
aI1
aI1
aI2
aI5
aI1
aI1
aI1
aI1
aI5
aI16
aI1
aI2
aI9
aI3
aI3
aI2
aI1
aI1
aI1
aI1
aI1
aI14
aI3
aI2
aI4
aI43
aI2
aI1
aI4
aI1
aI2
aI1
aI2
aI1
aI2
aI2
aI2
aI4
aI5
aI1
aI2
aI2
aI2
aI1
aI1
aI1
aI1
aI2
aI1
aI1
aI2
aI1
aI1
aI1
aI1
aI7
aI122
aI2
aI3
aI1
aI2
aI10
aI2
aI2
aI1
aI3
aI1
aI2
aI1
aI1
aI1
aI1
aI4
aI1
aI1
aI1
aI1
aI1
aI5
aI1
aI2
aI1
aI3
aI1
aI1
aI1
aI1
aI1
aI1
aI3
aI2
aI20
aI1
aI4
aI2
aI1
aI1
aI12
aI1
aI1
aI1
aI4
aI1
aI1
aI1
aI2
aI1
aI6
aI1
aI1
aI1
aI1
aI1
aI1
aI3
aI1
aI1
aI1
aI19
aI9
aI1
aI1
aI4
aI1
aI2
aI13
aI1
aI1
aI2
aI1
aI1
aI1
aI1
aI1
aI43
aI1
aI2
aI1
aI3
aI1
aI1
aI1
aI1
aI2
aI5
aI1
aI2
aI1
aI1
aI2
aI1
aI7
aI2
aI5
aI1
aI1
aI1
aI4
aI2
aI2
aI1
aI5
aI1
aI1
aI3
aI20
aI3
aI31
aI1
aI4
aI1
aI2
aI1
aI1
aI3
aI168
aI2
aI1
aI1
aI1
aI3
aI1
aI1
aI1
aI1
aI2
aI4
aI2
aI2
aI1
aI2
aI1
aI2
aI1
aI3
aI1
aI1
aI1
aI1
aI2
aI2
aI6
aI11
aI1
aI1
aI1
aI1
aI4
aI4
aI1
aI1
aI3
aI5
aI37
aI4
aI1
aI1
aI1
aI10
aI3
aI1
aI1
aI1
aI1
aI1
aI1
aI1
aI1
aI1
aI1
aI149
aI1273
aI4
aI3
aI1
aI4
aI1
aI13
aI3
aI1
aI29
aI2
aI1
aI1
aI1
aI2
aI1
aI9
aI1
aI1
aI785
aI1
aI1
aI7
aI1
aI1
aI1
aI1
aI1
aI951
aI4
aI1
aI1
aI2
aI1
aI1
aI3
aI2
aI1
aI1
aI1
aI1
aI1
aI2
aI1
aI1
aI3
aI166
aI1
aI253
aI1
aI11
aI1
aI1
aI1
aI1
aI1
aI6
aI1
aI1
aI1
aI45
aI2
aI2
aI6
aI2
aI2
aI1
aI1
aI14
aI1
aI2
aI1
aI2
aI1
aI1
aI1
aI1
aI1
aI1
aI1
aI1
aI1
aI1
aI1
aI1
aI1
aI1
aI1
aI1
aI1
aI1
aI1
aI2
aI2
aI3
aI1
aI1
aI1
aI1
aI1
aI2
aI2
aI2
aI2
aI3
aI1
aI1
aI1
aI1
aI1
aI1
aI1
aI1
aI3
aI2
aI1
aI2
aI1
aI1
aI1
aI1
aI1
aI1
aI3
aI1
aI3
aI2
aI1
aI1
aI1
aI1
aI1
aI1
aI1
aI1
aI1
aI1
aI1
aI1
aI1
aI3
aI1
aI2
aI1
aI1
aI1
aI194
aI1
aI1
aI1
aI1
aI2
aI1
aI1
aI4
aI1
aI2
aI1
aI1
aI1
aI1
aI1
aI1
aI1
aI3
aI1
aI1
aI1
aI2
aI1
aI1
aI27
aI4
aI4
aI1
aI1
aI22
aI1
aI1
aI5
aI1
aI3
aI2
aI1
aI1
aI1
aI1
aI1
aI2
aI3
aI1
aI1
aI1
aI2
aI1
aI2
aI2
aI7
aI3
aI1
aI1
aI1
aI1
aI18
aI2
aI1
aI2
aI4
aI2
aI2
aI1
aI2
aI3
aI1
aI1
aI1
aI1
aI1
aI1
aI22
aI1
aI3
aI1
aI2
aI8
aI1
aI1
aI1
aI1
aI1
aI1
aI2
aI1
aI1
aI1
aI3
aI4
aI1
aI1
aI3
aI1
aI2
aI1
aI1
aI2
aI1
aI1
aI1
aI1
aI1
aI1
aI1
aI1
aI4
aI1
aI1
aI12
aI1
aI1
aI1
aI4
aI1
aI1
aI1
aI2
aI1
aI1
aI1
aI15
aI1
aI1
aI2
aI3
aI1
aI3
aI1
aI2
aI1
aI2
aI3
aI2
aI4
aI2
aI2
aI1
aI1
aI7
aI1
aI1
aI1
aI2
aI2
aI1
aI1
aI1
aI5
aI3
aI5
aI1
aI1
aI1
aI1
aI1
aI1
aI1
aI1
aI1
aI6
aI2
aI1
aI1
aI1
aI1
aI2
aI3
aI1
aI2
aI3
aI1
aI4
aI5
aI1
aI1
aI1
aI11
aI9
aI1
aI1
aI2
aI1
aI1
aI1
aI1
aI19
aI6
aI2
aI1
aI1
aI1
aI1
aI1
aI1
aI9
aI3
aI2
aI1
aI1
aI1
aI1
aI62
aI1
aI1
aI1
aI7
aI1
aI1
aI1
aI1
aI1
aI1
aI1
aI2
aI1
aI1
aI2
aI1
aI1
aI1
aI1
aI3
aI1
aI1
aI11
aI1
aI3
aI2
aI1
aI1
aI1
aI19
aI1
aI32
aI1
aI1
aI1
aI5
aI1
aI3
aI1
aI1
aI2
aI1
aI1
aI1
aI1
aI1
aI3
aI1
aI1
aI1
aI1
aI2
aI2
aI2
aI1
aI3
aI12
aI1
aI1
aI2
aI2
aI3
aI1
aI1
aI1
aI1
aI1
aI1
aI2
aI3
aI1
aI1
aI1
aI2
aI1
aI1
aI1
aI2
aI6
aI1
aI3
aI1
aI21
aI1
aI1
aI16
aI7
aI1
aI1
aI1
aI1
aI1
aI1
aI4
aI1
aI1
aI1
aI6
aI1
aI1
aI11
aI1
aI1
aI1
aI1
aI1
aI1
aI1
aI1
aI1
aI1
aI1
aI1
aI1
aI1
aI1
aI50
aI3
aI1
aI1
aI2
aI3
aI1
aI1
aI1
aI1
aI1
aI1
aI2
aI7
aI1
aI1
aI3
aI1
aI2
aI3
aI1
aI2
aI1
aI1
aI5
aI1
aI3
aI1
aI1
aI2
aI1
aI2
aI1
aI4
aI1
aI1
aI2
aI1
aI6
aI2
aI1
aI1
aI15
aI1
aI1
aI2
aI2
aI1
aI9
aI1
aI1
aI1
aI1
aI3
aI2
aI1
aI4
aI5
aI4
aI2
aI1
aI105
aI2
aI1
aI2
aI5
aI1
aI3
aI3
aI1
aI1
aI1
aI2
aI1
aI1
aI1
aI1
aI1
aI12
aI1
aI1
aI1
aI1
aI1
aI4
aI3
aI1
aI1
aI1
aI2
aI2
aI2
aI8
aI1
aI1
aI18
aI1
aI1
aI1
aI1
aI1
aI8
aI1
aI3
aI1
aI1
aI18
aI3
aI2
aI1
aI2
aI1
aI1
aI10
aI1
aI3
aI4
aI1
aI1
aI1
aI1
aI2
aI1
aI1
aI4
aI3
aI2
aI3
aI1
aI2
aI1
aI1
aI1
aI2
aI1
aI1
aI5
aI85
aI6
aI3
aI2
aI1
aI2
aI1
aI1
aI4
aI1
aI1
aI172
aI1
aI1
aI11
aI3
aI1
aI1
aI1
aI1
aI1
aI9
aI1
aI10
aI2
aI1
aI1
aI2
aI1
aI1
aI14
aI56
aI1
aI2
aI1
aI1
aI143
aI2
aI2
aI1
aI1
aI2
aI1
aI3
aI5
aI1
aI1
aI1
aI3
aI1
aI1
aI1
aI1
aI1
aI1
aI1
aI1
aI1
aI1
aI1
aI5
aI16
aI1
aI1
aI4
aI1
aI1
aI1
aI5
aI1
aI15
aI1
aI1
aI1
aI6
aI10
aI1
aI1
aI3
aI1
aI1
aI1
aI7
aI1
aI3
aI2
aI3
aI1
aI1
aI2
aI8
aI4
aI1
aI2
aI3
aI3
aI1
aI1
aI1
aI1
aI1
aI1
aI1
aI1
aI1
aI1
aI1
aI4
aI2
aI2
aI11
aI1
aI1
aI1
aI2
aI1
aI71
aI1
aI3
aI1
aI1
aI2
aI4
aI1
aI1
aI1
aI1
aI1
aI3
aI1
aI2
aI2
aI3
aI1
aI16
aI2
aI1
aI3
aI1
aI1
aI1
aI1
aI1
aI1
aI2
aI6
aI3
aI4
aI1
aI1
aI1
aI1
aI1
aI1
aI9
aI1
aI5
aI9
aI1
aI2
aI2
aI1
aI1
aI1
aI1
aI1
aI1
aI1
aI1
aI1
aI1
aI1
aI1
aI3
aI2
aI2
aI4
aI1
aI1
aI1
aI1
aI1
aI1
aI8
aI1
aI5
aI4
aI1
aI1
aI1
aI1
aI2
aI1
aI3
aI2
aI2
aI5
aI1
aI2
aI1
aI1
aI5
aI7
aI3
aI1
aI1
aI1
aI1
aI1
aI1
aI1
aI3
aI1
aI2
aI1
aI3
aI1
aI1
aI1
aI2
aI1
aI1
aI7
aI1
aI3
aI8
aI68
aI3
aI1
aI3
aI1
aI1
aI1
aI1
aI1
aI1
aI2
aI2
aI1
aI1
aI1
aI7
aI1
aI1
aI2
aI2
aI2
aI1
aI7
aI1
aI1
aI1
aI1
aI1
aI1
aI4
aI1
aI2
aI4
aI4
aI2
aI1
aI2
aI1
aI1
aI1
aI1
aI1
aI1
aI1
aI1
aI1
aI2
aI1
aI1
aI2
aI1
aI1
aI1
aI1
aI1
aI1
aI1
aI1
aI1
aI1
aI1
aI2
aI1
aI4
aI1
aI1
aI9
aI29
aI6
aI1
aI17
aI1
aI1
aI1
aI1
aI1
aI1
aI4
aI2
aI1
aI3
aI3
aI1
aI3
aI2
aI1
aI4
aI1
aI1
aI3
aI1
aI1
aI1
aI1
aI2
aI3
aI1
aI1
aI2
aI1
aI1
aI1
aI5
aI2
aI1
aI1
aI3
aI3
aI3
aI1
aI9
aI1
aI1
aI3
aI2
aI1
aI1
aI1
aI1
aI1
aI1
aI1
aI1
aI3
aI1
aI1
aI1
aI1
aI1
aI1
aI1
aI2
aI1
aI1
aI4
aI1
aI1
aI1
aI3
aI2
aI2
aI1
aI1
aI4
aI1
aI6
aI28
aI5
aI3
aI4
aI1
aI3
aI3
aI7
aI1
aI1
aI2
aI4
aI5
aI2
aI1
aI2
aI1
aI1
aI1
aI1
aI2
aI2
aI1
aI1
aI1
aI30
aI2
aI2
aI2
aI1
aI1
aI1
aI1
aI1
aI1
aI1
aI1
aI1
aI169
aI1
aI2
aI1
aI16
aI1
aI1
aI25
aI2
aI1
aI1
aI1
aI1
aI1
aI1
aI1
aI1
aI529
aI1
aI1
aI6
aI1
aI1
aI1
aI1
aI63
aI1
aI1
aI1
aI9
aI1
aI1
aI1
aI5
aI29
aI1
aI8
aI1
aI1
aI1
aI1
aI1
aI14
aI7
aI8
aI2
aI5
aI1
aI1
aI1
aI1
aI2
aI1
aI1
aI1
aI1
aI2
aI2
aI1
aI2
aI1
aI1
aI1
aI1
aI1
aI6
aI2
aI1
aI1
aI1
aI1
aI1
aI3
aI1
aI1
aI1
aI6
aI2
aI1
aI1
aI1
aI1
aI1
aI8
aI2
aI1
aI1
aI1
aI1
aI2
aI1
aI2
aI1
aI1
aI1
aI3
aI2
aI1
aI1
aI10
aI1
aI24
aI1
aI1
aI1
aI1
aI6
aI3
aI6
aI5
aI1
aI1
aI2
aI1
aI1
aI2
aI2
aI4
aI2
aI22
aI1
aI1
aI1
aI2
aI44
aI2
aI1
aI1
aI3
aI2
aI3
aI1
aI8
aI1
aI2
aI5
aI1
aI1
aI17
aI1
aI1
aI1
aI1
aI5
aI1
aI3
aI211
aI1
aI2
aI9
aI1
aI1
aI1
aI1
aI1
aI7
aI1
aI3
aI4
aI4
aI1
aI1
aI25
aI2
aI1
aI1
aI1
aI1
aI1
aI2
aI4
aI1
aI1
aI6
aI1
aI2
aI1
aI1
aI1
aI1
aI1
aI1
aI1
aI3
aI2
aI1
aI1
aI94
aI10
aI3
aI2
aI1
aI2
aI1
aI10
aI1
aI10
aI1
aI1
aI1
aI1
aI2
aI2
aI1
aI858
aI1
aI1
aI1
aI1
aI1
aI1
aI1
aI1
aI1
aI1
aI2
aI18071
aI1
aI3
aI1
aI2
aI9
aI2
aI2
aI1
aI2
aI1
aI1
aI1
aI1
aI1
aI1
aI2
aI2
aI1
aI2
aI1
aI2
aI1
aI1
aI1
aI1
aI1
aI1
aI4
aI1
aI1
aI1
aI2
aI1
aI5
aI2
aI2
aI1
aI3
aI1
aI2
aI1
aI1
aI1
aI5
aI2
aI1
aI19
aI2
aI2
aI69
aI11
aI3
aI1
aI1
aI6
aI1
aI1
aI1
aI1
aI3
aI2
aI2
aI8
aI2
aI2
aI3
aI1
aI1
aI1
aI1
aI2
aI1
aI3
aI11
aI2
aI1
aI1
aI1
aI12
aI1
aI1
aI1
aI1
aI1
aI1
aI1
aI1
aI12
aI2
aI3
aI1
aI6
aI1
aI13
aI2
aI2
aI1
aI1
aI1
aI1
aI1
aI3
aI1
aI1
aI1
aI9
aI1
aI1
aI1
aI2
aI1
aI4
aI4
aI5
aI1
aI6
aI2
aI1
aI1
aI1
aI1
aI1
aI6
aI1
aI3
aI1
aI1
aI1
aI1
aI1
aI2
aI1
aI5
aI1
aI9
aI1
aI1
aI2
aI11
aI1
aI1
aI1
aI1
aI1
aI7
aI1
aI1
aI1
aI1
aI1
aI1
aI1
aI2
aI1
aI1
aI20
aI1
aI1
aI1
aI1
aI1
aI7
aI1
aI1
aI3
aI25
aI1
aI1
aI1
aI4
aI2
aI3
aI1
aI1
aI1
aI10
aI1
aI1
aI1
aI9
aI3
aI1
aI1
aI1
aI1
aI1
aI5
aI2
aI1
aI1
aI1
aI1
aI1
aI3
aI10
aI1
aI2
aI6
aI1
aI1
aI1
aI4
aI2
aI1
aI12
aI1
aI1
aI2
aI1
aI1
aI71
aI12
aI1
aI1
aI1
aI1
aI1
aI1
aI2
aI1
aI4
aI1
aI3
aI1
aI1
aI1
aI1
aI1
aI1
aI7
aI1
aI1
aI1
aI339
aI2
aI4
aI1
aI8
aI164
aI1
aI2
aI1
aI2
aI1
aI1
aI1
aI1
aI5
aI1
aI1
aI1
aI18
aI1
aI1
aI1
aI2
aI1
aI3
aI13
aI1
aI3
aI1
aI1
aI2
aI1
aI2
aI4
aI1
aI1
aI1
aI1
aI1
aI1
aI1
aI1
aI1
aI1
aI1
aI1
aI1
aI2
aI1
aI1
aI1
aI7
aI8
aI1
aI2
aI175
aI1
aI1
aI3
aI1
aI8
aI2
aI1
aI1
aI1
aI1
aI2
aI2
aI2
aI2
aI2
aI1
aI1
aI6
aI1
aI5
aI1
aI1
aI1
aI1
aI3
aI15
aI2
aI2
aI1
aI1
aI1
aI1
aI1
aI1
aI3
aI1
aI1
aI1
aI1
aI1
aI2
aI1
aI1
aI1
aI1
aI11
aI1
aI1
aI1
aI1
aI2
aI1
aI1
aI1
aI7
aI1
aI1
aI1
aI1
aI1
aI2
aI3
aI1
aI1
aI1
aI1
aI1
aI3
aI1
aI4
aI1
aI1
aI1
aI1
aI1
aI1
aI2
aI1
aI1
aI3
aI2
aI1
aI5
aI9
aI1
aI1
aI4
aI2
aI1
aI2
aI1
aI8
aI5
aI1
aI1
aI2
aI45
aI1
aI1
aI1
aI1
aI1
aI1
aI1
aI1
aI258
aI1
aI1
aI6
aI1
aI1
aI3
aI1
aI1
aI1
aI1
aI1
aI1
aI1
aI1
aI1
aI3
aI6
aI2
aI1
aI1
aI7
aI1
aI6
aI3
aI2
aI2
aI1
aI2
aI2
aI1
aI2
aI1
aI1
aI1
aI1
aI2
aI1
aI1
aI1
aI1
aI1
aI1
aI1
aI1
aI5
aI2
aI5
aI1
aI1
aI1
aI3
aI1
aI1
aI1
aI3
aI3
aI264
aI1
aI1
aI1
aI1
aI1
aI3
aI4
aI1
aI1
aI1
aI1
aI9
aI1
aI1
aI11
aI1
aI1
aI1
aI1
aI5
aI1
aI1
aI3
aI1
aI1
aI1
aI1
aI1
aI1
aI3
aI4
aI1
aI1
aI80
aI1
aI1
aI1
aI1
aI1
aI1
aI1
aI2
aI1
aI1
aI1
aI1
aI1
aI1
aI2
aI1
aI2
aI1
aI1
aI5
aI1
aI4
aI174
aI1
aI1
aI1
aI2
aI1
aI3
aI24
aI1
aI1
aI2
aI4
aI3
aI1
aI1
aI8
aI3
aI1
aI1
aI1
aI1
aI1
aI3
aI2
aI1
aI2
aI1
aI2
aI1
aI2
aI1
aI1
aI1
aI3
aI1
aI1
aI10
aI1
aI1
aI3
aI6
aI1
aI2
aI1
aI3
aI3
aI3
aI5
aI3
aI5
aI1
aI3
aI1
aI2
aI1
aI4
aI1
aI1
aI4
aI2
aI1
aI1
aI3
aI6
aI1
aI29
aI1
aI1
aI1
aI1
aI1
aI1
aI286
aI10
aI11
aI1
aI1
aI1
aI1
aI3
aI10
aI1
aI2
aI1
aI1
aI2
aI1
aI1
aI3
aI1
aI1
aI1
aI1
aI1
aI2
aI8
aI1
aI81
aI1
aI2
aI8
aI8
aI12
aI1
aI3
aI1
aI1
aI1
aI2
aI1
aI3
aI1
aI2
aI2
aI5
aI1
aI1
aI1
aI1
aI1
aI1
aI1
aI1
aI2
aI13
aI1
aI3
aI3
aI1
aI1
aI19
aI1
aI1
aI2
aI4
aI3
aI1
aI2
aI2
aI1
aI4
aI1
aI1
aI3
aI1
aI2
aI1
aI3
aI1
aI4
aI1
aI6
aI1
aI2
aI1
aI2
aI1
aI3
aI1
aI1
aI2
aI1
aI9
aI3
aI4
aI2
aI3
aI108
aI1
aI1
aI1
aI1
aI4
aI1
aI2
aI1
aI1
aI1
aI1
aI1
aI1
aI1
aI1
aI1
aI2
aI1
aI1
aI1
aI1
aI2
aI1
aI2
aI2
aI1
aI4
aI1
aI1
aI1
aI1
aI1
aI1
aI1
aI1
aI2
aI3
aI1
aI1
aI1
aI1
aI1
aI1
aI1
aI2
aI1
aI1
aI1
aI3
aI1
aI1
aI1
aI2
aI2
aI1
aI1
aI1
aI4
aI2
aI1
aI1
aI2
aI1
aI1
aI1
aI1
aI3
aI2
aI2
aI1
aI4
aI5
aI3
aI1
aI2
aI1
aI1
aI1
aI3
aI2
aI1
aI2
aI1
aI2
aI3
aI2
aI1
aI1
aI1
aI151
aI2
aI1
aI4
aI1
aI1
aI1
aI1
aI1
aI2
aI1
aI2
aI2
aI1
aI1
aI1
aI1
aI3
aI4
aI1
aI1
aI9
aI2
aI1
aI1
aI1
aI1
aI1
aI3
aI2
aI1
aI10
aI1
aI1
aI14
aI1
aI1
aI1
aI1
aI2
aI1
aI2
aI1
aI4
aI2
aI1
aI2
aI1
aI1
aI1
aI3
aI2
aI4
aI324
aI3
aI1
aI1
aI1
aI1
aI1
aI5
aI5
aI1
aI1
aI4
aI1
aI1
aI1
aI1
aI1
aI1
aI1
aI3
aI3
aI1
aI2
aI2
aI1
aI1
aI1
aI1
aI1
aI1
aI2
aI1
aI1
aI1
aI1
aI1
aI2
aI1
aI2
aI3
aI1
aI2
aI1
aI1
aI4
aI2
aI1
aI2
aI3
aI1
aI2
aI1
aI5
aI2
aI1
aI3
aI3
aI2
aI1
aI2
aI1
aI1
aI1
aI1
aI1
aI1
aI1
aI2
aI1
aI1
aI1
aI1
aI1
aI1
aI1
aI2
aI1
aI3
aI1
aI1
aI2
aI1
aI1
aI4
aI2
aI4
aI2
aI1
aI1
aI1
aI4
aI1
aI1
aI3
aI2
aI1
aI1
aI2
aI1
aI1
aI3
aI1
aI1
aI1
aI3
aI1
aI1
aI2
aI1
aI1
aI1
aI1
aI1
aI2
aI1
aI2
aI3
aI1
aI1
aI2
aI1
aI2
aI3
aI1
aI1
aI1
aI1
aI1
aI1
aI1
aI1
aI2
aI1
aI1
aI3
aI2
aI1
aI1
aI6
aI2
aI4
aI6
aI7
aI1
aI11
aI1
aI2
aI1
aI1
aI1
aI1
aI1
aI1
aI1
aI3
aI1
aI3
aI1
aI1
aI1
aI3
aI5
aI1
aI1
aI1
aI1
aI4
aI1
aI1
aI1
aI1
aI1
aI3
aI2
aI4
aI4
aI3
aI1
aI1
aI2
aI1
aI1
aI1
aI5
aI1
aI1
aI1
aI5
aI5
aI1
aI1
aI1
aI6
aI1
aI6
aI1
aI1
aI1
aI2
aI18
aI1
aI5
aI2
aI1
aI5
aI1
aI1
aI1
aI23
aI3
aI1
aI11
aI3
aI1
aI1
aI1
aI3
aI1
aI1
aI1
aI1
aI3
aI1
aI1
aI1
aI1
aI4
aI1
aI1
aI1
aI2
aI6
aI1
aI2
aI1
aI2
aI1
aI2
aI1
aI2
aI1
aI2
aI2
aI1
aI3
aI1
aI2
aI1
aI2
aI3
aI3
aI1
aI1
aI3
aI1
aI2
aI1
aI1
aI1
aI1
aI9
aI1
aI1
aI1
aI1
aI2
aI1
aI1
aI4
aI1
aI1
aI1
aI1
aI1
aI3
aI1
aI3
aI1
aI1
aI1
aI1
aI3
aI3
aI1
aI1
aI2
aI1
aI2
aI1
aI1
aI1
aI2
aI1
aI1
aI4
aI1
aI1
aI2
aI10
aI1
aI1
aI2
aI1
aI6
aI1
aI1
aI1
aI1
aI7
aI1
aI1
aI11
aI8
aI1
aI3
aI5
aI5
aI1
aI1
aI1
aI1
aI1
aI2
aI1
aI8
aI1
aI2
aI2
aI1
aI1
aI2
aI1
aI1
aI5
aI1
aI5
aI1
aI1
aI4
aI17
aI1
aI1
aI2
aI1
aI2
aI1
aI6
aI1
aI1
aI1
aI1
aI1
aI1
aI1
aI4
aI32
aI1
aI15
aI4
aI1
aI1
aI1
aI12
aI1
aI1
aI1
aI1
aI1
aI1
aI1
aI1
aI1
aI2
aI1
aI1
aI1
aI1
aI1
aI2
aI1
aI1
aI1
aI1
aI2
aI1
aI1
aI1
aI1
aI1
aI1
aI1
aI1
aI3
aI1
aI4
aI3
aI1
aI1
aI239
aI1
aI2
aI1
aI2
aI1
aI1
aI1
aI27
aI1
aI1
aI1
aI1
aI1
aI2
aI1
aI1
aI1
aI6
aI2
aI1
aI1
aI1
aI1
aI1
aI3
aI1
aI1
aI1
aI1
aI2
aI2
aI1
aI17
aI2
aI6
aI1
aI3
aI1
aI1
aI1
aI19
aI1
aI1
aI1
aI2
aI4
aI1
aI1
aI1
aI1
aI1
aI5
aI1
aI2
aI1
aI5
aI1
aI2
aI2
aI1
aI4
aI1
aI1
aI1
aI2
aI1
aI1
aI1
aI3
aI1
aI6
aI1
aI2
aI4
aI1
aI2
aI1
aI1
aI1
aI1
aI1
aI5
aI1
aI1
aI1
aI6
aI1
aI1
aI1
aI6
aI1
aI1
aI1
aI1
aI2
aI86
aI2
aI10
aI19
aI1
aI1
aI1
aI3
aI2
aI1
aI4
aI1
aI10
aI1
aI1
aI4
aI1
aI1
aI1
aI1
aI2
aI2
aI1
aI2
aI1
aI1
aI1
aI1
aI1
aI1
aI1
aI1
aI1
aI4
aI1
aI1
aI1
aI1
aI2
aI1
aI1
aI8
aI1
aI4
aI7
aI1
aI6
aI2
aI1
aI5
aI1
aI1
aI1
aI2
aI1
aI1
aI2
aI2
aI1
aI1
aI4
aI1
aI3
aI1
aI1
aI2
aI2
aI44
aI5
aI1
aI1
aI1
aI2
aI1
aI1
aI1
aI1
aI1
aI2
aI1
aI2
aI9
aI1
aI2
aI1
aI8
aI1
aI8
aI19
aI1
aI1
aI1
aI2
aI1
aI1
aI1
aI1
aI2
aI1
aI1
aI1
aI8
aI11
aI3
aI1
aI1
aI3
aI2
aI1
aI2
aI1
aI1
aI1
aI4
aI1
aI1
aI2
aI1
aI1
aI2
aI1
aI1
aI1
aI47
aI2
aI1
aI1
aI1
aI1
aI48
aI1
aI1
aI2
aI1
aI2
aI3
aI13
aI1
aI3
aI11
aI1
aI1
aI15
aI1
aI1
aI3
aI1
aI1
aI1
aI1
aI1
aI1
aI1
aI1
aI1
aI1
aI2
aI1
aI1
aI5
aI1
aI3
aI1
aI1
aI4
aI6
aI1
aI1
aI1
aI1
aI3
aI2
aI2
aI2
aI1
aI1
aI3
aI1
aI1
aI1
aI5
aI1
aI1
aI1
aI32
aI1
aI1
aI1
aI1
aI1
aI2
aI3
aI1
aI1
aI1
aI2
aI2
aI1
aI1
aI2
aI1
aI14
aI5
aI9
aI1
aI1
aI1
aI15
aI2
aI1
aI1
aI1
aI1
aI1
aI1
aI1
aI1
aI1
aI2
aI2
aI1
aI1
aI1
aI2
aI5
aI3
aI1
aI1
aI2
aI1
aI2
aI1
aI1
aI1
aI1
aI1
aI1
aI1
aI1
aI1
aI46
aI1
aI2
aI1
aI1
aI1
aI1
aI1
aI8
aI1
aI1
aI2
aI3
aI4
aI1
aI1
aI1
aI1
aI1
aI1
aI1
aI1
aI6
aI1
aI1
aI1
aI1
aI1
aI1
aI1
aI1
aI1
aI1
aI3
aI3
aI1
aI1
aI1
aI1
aI1
aI1
aI1
aI1
aI1
aI2
aI1
aI1
aI1
aI1
aI1
aI1
aI213
aI1
aI1
aI2
aI1
aI1
aI1
aI2
aI1
aI1
aI1
aI1
aI2
aI2
aI1
aI1
aI1
aI1
aI1
aI2
aI1
aI1
aI1
aI2
aI4
aI3
aI7
aI1
aI1
aI5
aI1
aI1
aI2
aI2
aI2
aI1
aI2
aI1
aI1
aI2
aI3
aI1
aI1
aI1
aI1
aI3
aI1
aI2
aI1
aI1
aI1
aI1
aI2
aI1
aI2
aI1
aI1
aI1
aI1
aI1
aI3
aI2
aI7
aI1
aI1
aI4
aI1
aI3
aI1
aI1
aI2
aI1
aI1
aI2
aI1
aI1
aI1
aI1
aI1
aI1
aI1
aI2
aI13
aI1
aI1
aI1
aI1
aI1
aI2
aI1
aI1
aI2
aI6
aI2
aI1
aI1
aI2
aI2
aI2
aI3
aI7
aI3
aI1
aI3
aI1
aI1
aI1
aI2
aI5
aI1
aI1
aI1
aI1
aI1
aI5
aI10
aI1
aI1
aI3
aI3
aI1
aI1
aI1
aI5
aI1
aI1
aI13
aI3
aI15
aI1
aI10
aI1
aI1
aI1
aI2
aI1
aI1
aI1
aI1
aI5
aI1
aI1
aI1
aI2
aI4
aI3
aI1
aI2
aI1
aI1
aI1
aI1
aI1
aI2
aI1
aI1
aI2
aI1
aI1
aI43
aI1
aI1
aI1
aI4
aI1
aI1
aI12
aI1
aI12
aI6
aI1
aI1
aI6
aI1
aI1
aI1
aI1
aI8
aI2
aI1
aI1
aI2
aI2
aI3
aI1
aI2
aI3
aI1
aI4
aI2
aI1
aI2
aI1
aI1
aI16
aI1
aI1
aI1
aI1
aI1
aI1
aI1
aI2
aI1
aI3
aI1
aI1
aI1
aI1
aI2
aI1
aI4
aI4
aI1
aI33
aI3
aI4
aI2
aI2
aI1
aI1
aI2
aI1
aI1
aI1
aI1
aI1
aI1
aI1
aI1
aI1
aI1
aI1
aI1
aI1
aI1
aI1
aI6
aI1
aI2
aI1
aI1
aI1
aI1
aI1
aI1
aI2
aI4
aI2
aI1
aI5
aI1
aI1
aI1
aI2
aI1
aI1
aI2
aI1
aI2
aI1
aI3
aI1
aI1
aI1
aI7
aI1
aI1
aI1
aI4
aI5
aI1
aI1325
aI1
aI6
aI1
aI12
aI1
aI9
aI1
aI1
aI1
aI3
aI1
aI11
aI1
aI2
aI1
aI1
aI2
aI1
aI7
aI1
aI1
aI3
aI2
aI4
aI10
aI1
aI1
aI3
aI2
aI1
aI1
aI1
aI1
aI1
aI1
aI2
aI2
aI5
aI1
aI3
aI2
aI6
aI2
aI1
aI1
aI1
aI1
aI1
aI4
aI2
aI1
aI5
aI1
aI1
aI2
aI4
aI3
aI1
aI1
aI1
aI1
aI1
aI1
aI1
aI3
aI1
aI5
aI1
aI1
aI1
aI1
aI1
aI1
aI1
aI1
aI1
aI7
aI4
aI12
aI1
aI1
aI1
aI1
aI1
aI2
aI1
aI3
aI2
aI1
aI1
aI1
aI1
aI1
aI1
aI3
aI1
aI1
aI1
aI2
aI1
aI2
aI1
aI1
aI1
aI2
aI7
aI1
aI1
aI5
aI30
aI3
aI1
aI1
aI1
aI1
aI1
aI1
aI1
aI1
aI2
aI2
aI8
aI1
aI3
aI1
aI1
aI2
aI1
aI1
aI3
aI1
aI1
aI1
aI1
aI2
aI1
aI20
aI1
aI1
aI6
aI1
aI1
aI5
aI1
aI5
aI1
aI2
aI1
aI4
aI1
aI2
aI9
aI143
aI1
aI1
aI2
aI2
aI5
aI1
aI3
aI1
aI1
aI1
aI1
aI3
aI2
aI1
aI1
aI3
aI1
aI1
aI1
aI2
aI1
aI1
aI1
aI1
aI3
aI1
aI1
aI2
aI4
aI2
aI1
aI2
aI1
aI1
aI203
aI1
aI1
aI3
aI2
aI1
aI1
aI1
aI1
aI1
aI9
aI1
aI3
aI2
aI2
aI1
aI1
aI1
aI1
aI2
aI1
aI2
aI2
aI1
aI1
aI3
aI1
aI1
aI1
aI115
aI1
aI1
aI128
aI1
aI1
aI1
aI1
aI4
aI2
aI1
aI1
aI1
aI1
aI2
aI1
aI1
aI1
aI11
aI1
aI1
aI1
aI1
aI1
aI1
aI1
aI1
aI14
aI1
aI1
aI1
aI2
aI1
aI1
aI5
aI4
aI1
aI1
aI2
aI1
aI1
aI1
aI1
aI1
aI1
aI1
aI1
aI1
aI2
aI1
aI43
aI1
aI1
aI2
aI3
aI1
aI1
aI1
aI1
aI1
aI1
aI1
aI1
aI1
aI1
aI3
aI1
aI1
aI1
aI2
aI3
aI1
aI1
aI1
aI1
aI1
aI2
aI4
aI1
aI3
aI1
aI1
aI2
aI1
aI1
aI2
aI2
aI1
aI1
aI1
aI3
aI2
aI1
aI1
aI1
aI1
aI1
aI3
aI1
aI2
aI1
aI4
aI1
aI1
aI1
aI1
aI4
aI1
aI2
aI1
aI6
aI1
aI3
aI1
aI1
aI2
aI2
aI23
aI2
aI1
aI1
aI1
aI1
aI2
aI1
aI1
aI1
aI2
aI1
aI1
aI1
aI4
aI1
aI3
aI1
aI1
aI5
aI1
aI1
aI1
aI1
aI2
aI4
aI1
aI1
aI1
aI1
aI1
aI1
aI26
aI1
aI4
aI4
aI1
aI1
aI1
aI4
aI1
aI1
aI1
aI6
aI1
aI4
aI1
aI1
aI8
aI1
aI1
aI1
aI1
aI2
aI3
aI1
aI1
aI1
aI4
aI1
aI1
aI1
aI1
aI1
aI2
aI10
aI1
aI1
aI1
aI1
aI3
aI2
aI1
aI1
aI1
aI1
aI1
aI1
aI302
aI1
aI3
aI1
aI2
aI10
aI1
aI1
aI1
aI1
aI1
aI1
aI1
aI1
aI2
aI1
aI1
aI6
aI1
aI1
aI3
aI2
aI1
aI1
aI1
aI3
aI3
aI1
aI1
aI3
aI1
aI2
aI1
aI1
aI5
aI4
aI1
aI1
aI2
aI1
aI1
aI2
aI4
aI1
aI1
aI1
aI48
aI1
aI1
aI1
aI1
aI1
aI1
aI1
aI1
aI2
aI1
aI3
aI1
aI1
aI2
aI1
aI1
aI1
aI2
aI1
aI1
aI1
aI1
aI1
aI2
aI1
aI1
aI1
aI1
aI1
aI1
aI1
aI2
aI12
aI6
aI1
aI2
aI1
aI6
aI1
aI1
aI1
aI1
aI1
aI1
aI1
aI1
aI1
aI1
aI2
aI1
aI1
aI2
aI1
aI2
aI5
aI1
aI1
aI1
aI1
aI4
aI1
aI1
aI1
aI1
aI1
aI5
aI1
aI1
aI4
aI1
aI1
aI2
aI3
aI1
aI1
aI1
aI1
aI1
aI1
aI9
aI25
aI1
aI2
aI3
aI1
aI1
aI1
aI1
aI2
aI1
aI2
aI1
aI1
aI1
aI1
aI1
aI3
aI2
aI1
aI1
aI3
aI1
aI1
aI1
aI1
aI1
aI1
aI3
aI1
aI6
aI1
aI2
aI1
aI1
aI3
aI1
aI3
aI6
aI2
aI7
aI2
aI1
aI1
aI1
aI3
aI1
aI1
aI1
aI4
aI1
aI3
aI1
aI1
aI3
aI2
aI1
aI2
aI1
aI3
aI1
aI1
aI6
aI3
aI3
aI1
aI8
aI1
aI1
aI1
aI1
aI1
aI1
aI1
aI3
aI1
aI3
aI1
aI35
aI3
aI1
aI1
aI1
aI1
aI1
aI1
aI2
aI2
aI1
aI1
aI1
aI34
aI1
aI1
aI2
aI1
aI1
aI1
aI1
aI2
aI3
aI1
aI1
aI1
aI1
aI1
aI3
aI1
aI3
aI1
aI1
aI1
aI4
aI1
aI1
aI1
aI10
aI1
aI1
aI1
aI1
aI1
aI1
aI2
aI1
aI1
aI1
aI1
aI3
aI1
aI6
aI2
aI1
aI1
aI2
aI2
aI1
aI3
aI3
aI1
aI2
aI2
aI2
aI2
aI1
aI1
aI1
aI3
aI1
aI1
aI1
aI1
aI1
aI1
aI5
aI1
aI1
aI1
aI3
aI1
aI1
aI2
aI1
aI1
aI1
aI1
aI1
aI96
aI4
aI1
aI1
aI1
aI1
aI1
aI1
aI1
aI1
aI1
aI1
aI1
aI2
aI2
aI1
aI4
aI1
aI1
aI1
aI1
aI1
aI2
aI1
aI1
aI2
aI1
aI1
aI1
aI20
aI1
aI3
aI1
aI1
aI1
aI1
aI1
aI3
aI2
aI1
aI1
aI1
aI14
aI4
aI1
aI1
aI1
aI1
aI1
aI4
aI2
aI1
aI1
aI1
aI7
aI1
aI6
aI1
aI1
aI2
aI1
aI3
aI2
aI2
aI1
aI1
aI20
aI1
aI2
aI8
aI1
aI1
aI1
aI1
aI4
aI1
aI2
aI1
aI1
aI1
aI1
aI1
aI1
aI2
aI1
aI1
aI1
aI1
aI2
aI1
aI19
aI1
aI1
aI1
aI1
aI3
aI1
aI1
aI3
aI1
aI4
aI4
aI4
aI1
aI1
aI1
aI1
aI2
aI3
aI2
aI1
aI1
aI16
aI4
aI3
aI1
aI2
aI1
aI11
aI2
aI1
aI1
aI1
aI1
aI1
aI1
aI1
aI1
aI1
aI1
aI1
aI1
aI1
aI1
aI1
aI1
aI3
aI1
aI1
aI1
aI1
aI3
aI1
aI1
aI1
aI1
aI1
aI1
aI2
aI1
aI1
aI5
aI4
aI1
aI1
aI1
aI2
aI10
aI1
aI1
aI1
aI1
aI1
aI2
aI1
aI1
aI1
aI1
aI1
aI1
aI6
aI1
aI16
aI1
aI4
aI1
aI1
aI2
aI1
aI3
aI1
aI4
aI5
aI1
aI4
aI1
aI1
aI3
aI2
aI3
aI1
aI2
aI1
aI1
aI1
aI2
aI1
aI1
aI1
aI1
aI5
aI1
aI4
aI1
aI1
aI1
aI4
aI1
aI1
aI1
aI1
aI1
aI1
aI1
aI1
aI2
aI1
aI3
aI2
aI3
aI2
aI2
aI6
aI1
aI1
aI1
aI1
aI1
aI3
aI12
aI1
aI1
aI5
aI7
aI1
aI1
aI2
aI1
aI2
aI1
aI1
aI1
aI12
aI1
aI2
aI1
aI1
aI1
aI1
aI1
aI1
aI1
aI1
aI1
aI2
aI1
aI4
aI12
aI96
aI1
aI1
aI1
aI1
aI1
aI1
aI1
aI1
aI1
aI1
aI1
aI1
aI2
aI1
aI4
aI2
aI1
aI1
aI1
aI1
aI3
aI1
aI1
aI2
aI1
aI1
aI1
aI1
aI1
aI1
aI1
aI1
aI1
aI1
aI3
aI1
aI3
aI1
aI4
aI4
aI1
aI1
aI2
aI1
aI1
aI1
aI5
aI1
aI15
aI1
aI1
aI1
aI1
aI4
aI1
aI1
aI1
aI1
aI1
aI2
aI2
aI1
aI4
aI1
aI1
aI1
aI1
aI2
aI2
aI2
aI5
aI12
aI1
aI1
aI2
aI1
aI2
aI2
aI1
aI1
aI2
aI2
aI1
aI1
aI1
aI1
aI2
aI2
aI1
aI1
aI1
aI3
aI11
aI3
aI1
aI1
aI1
aI2
aI4
aI1
aI1
aI1
aI1
aI4
aI1
aI5
aI2
aI1
aI1
aI2
aI1
aI2
aI1
aI1
aI1
aI1
aI1
aI1
aI19
aI2
aI1
aI1
aI1
aI2
aI1
aI2
aI1
aI1
aI4
aI1
aI1
aI1
aI1
aI552
aI1
aI1
aI1
aI4
aI1
aI1
aI3
aI20
aI1
aI3
aI14
aI3
aI1
aI1
aI1
aI1
aI1
aI1
aI5
aI1
aI1
aI1
aI1
aI1
aI1
aI2
aI1
aI1
aI3
aI3
aI1
aI1
aI2
aI8
aI1
aI1
aI1
aI1
aI1
aI81
aI1
aI3
aI1
aI1
aI1
aI1
aI1
aI9
aI1
aI1
aI1
aI1
aI1
aI5
aI1
aI2
aI1
aI3
aI1
aI1
aI1
aI1
aI17
aI2
aI374
aI1
aI2
aI1
aI1
aI2
aI1
aI2
aI1
aI3
aI1
aI2
aI1
aI1
aI1
aI6
aI1
aI1
aI1
aI1
aI4
aI1
aI2
aI1
aI18
aI1
aI7
aI2
aI6
aI1
aI1
aI1
aI1
aI1
aI2
aI1
aI2
aI4
aI3
aI1
aI1
aI1
aI1
aI2
aI1
aI1
aI1
aI3
aI3
aI5
aI1
aI6
aI5
aI1
aI1
aI2
aI1
aI1
aI1
aI1
aI1
aI1
aI1
aI1
aI1
aI1
aI1
aI15
aI1
aI2
aI1
aI1
aI1
aI3
aI1
aI2
aI319
aI4
aI1
aI1
aI1
aI3
aI1
aI1
aI1
aI2
aI1
aI1
aI1
aI1
aI1
aI8
aI1
aI1
aI3
aI2
aI5
aI11
aI6
aI1
aI1
aI3
aI1
aI1
aI1
aI1
aI1
aI4
aI2
aI1
aI1
aI1
aI13
aI4
aI1
aI4
aI2
aI1
aI3
aI2
aI4
aI1
aI3
aI1
aI1
aI1
aI1
aI1
aI1
aI2
aI1
aI1
aI1
aI1
aI1
aI7
aI1
aI2
aI747
aI4
aI1
aI1
aI1417
aI2
aI1
aI1
aI1
aI3
aI1
aI1
aI1
aI8
aI1
aI2
aI24
aI1
aI1
aI3
aI6
aI2
aI1
aI5
aI1
aI6
aI1
aI1
aI1
aI1
aI1
aI1
aI1
aI8
aI1
aI1
aI1
aI1
aI1
aI1
aI9
aI1
aI2
aI3
aI1
aI1
aI1
aI1
aI1
aI1
aI1
aI1
aI1
aI1
aI1
aI1
aI3
aI1
aI1
aI1
aI2
aI1
aI1
aI1
aI4
aI1
aI3
aI1
aI1
aI1
aI1
aI2
aI1
aI17
aI1
aI1
aI12
aI2
aI1
aI2
aI1
aI2
aI1
aI2
aI1
aI1
aI1
aI2
aI1
aI1
aI2
aI1
aI2
aI1
aI3
aI2
aI3
aI1
aI1
aI1
aI2
aI1
aI1
aI1
aI1
aI2
aI1
aI1
aI1
aI1
aI1
aI2
aI2
aI1
aI9
aI3
aI1
aI17
aI28
aI3
aI1
aI1
aI1
aI1
aI2
aI2
aI1
aI2
aI1
aI1
aI5
aI1
aI1
aI1
aI2
aI1
aI1
aI1
aI1
aI1
aI1
aI9
aI1
aI3
aI1
aI10
aI3
aI1
aI1
aI1
aI1
aI2
aI3
aI2
aI1
aI1
aI1
aI4
aI2
aI1
aI1
aI3
aI3
aI1
aI3
aI2
aI1
aI1
aI4
aI1
aI1
aI1
aI1
aI2
aI1
aI2
aI1
aI1
aI1
aI1
aI1
aI1
aI1
aI2
aI3
aI1
aI1
aI4
aI1
aI1
aI1
aI1
aI2
aI8
aI2
aI2
aI1
aI9
aI2
aI1
aI1
aI5
aI12
aI1
aI1
aI1
aI2
aI1
aI1
aI1
aI1
aI6
aI2
aI2
aI2
aI1
aI1
aI2
aI1
aI1
aI7
aI1
aI1
aI1
aI1
aI3
aI1
aI2
aI4
aI3
aI1
aI1
aI1
aI4
aI2
aI5
aI1
aI5
aI1
aI1
aI1
aI1
aI2
aI1
aI1
aI1
aI1
aI1
aI1
aI1
aI1
aI1
aI1
aI1
aI1
aI1
aI3
aI12
aI1
aI1
aI1
aI17
aI1
aI1
aI1
aI1
aI1
aI2
aI1
aI1
aI1
aI3
aI5
aI1
aI1
aI1
aI1
aI3
aI1
aI1
aI1
aI1
aI1
aI52
aI1
aI16
aI2
aI1
aI1
aI1
aI1
aI1
aI1
aI1
aI1
aI1
aI6
aI1
aI1
aI16
aI1
aI1
aI1
aI8
aI4
aI9
aI1
aI1
aI2
aI3
aI1
aI1
aI1
aI1
aI1
aI34
aI1
aI2
aI1
aI1
aI1
aI2
aI1
aI3
aI1
aI7
aI1
aI3
aI1
aI1
aI2
aI2
aI9
aI1
aI1
aI1
aI5
aI1
aI1
aI9
aI30
aI2
aI1
aI1
aI1
aI2
aI1
aI1
aI1
aI1
aI1
aI1
aI1
aI1
aI1
aI2
aI1
aI1
aI1
aI1
aI1
aI3
aI1
aI1
aI1
aI1
aI1
aI3
aI1
aI1
aI1
aI2
aI1
aI1
aI1
aI1
aI1
aI1
aI1
aI3
aI2
aI2
aI35
aI1
aI2
aI2
aI1
aI1
aI2
aI1
aI1
aI1
aI1
aI1
aI1
aI1
aI1
aI1
aI1
aI1
aI1
aI1
aI1
aI1
aI1
aI1
aI1
aI4
aI1
aI3
aI1
aI1
aI3
aI3
aI3
aI1
aI1
aI1
aI1
aI3
aI1
aI1
aI5
aI1
aI1
aI1
aI1
aI1
aI1
aI2
aI2
aI1
aI1
aI1
aI2
aI1
aI2
aI1
aI1
aI1
aI1
aI20
aI3
aI1
aI5
aI6
aI1
aI11
aI1
aI2
aI2
aI4
aI4
aI1
aI2
aI1
aI3
aI1
aI2
aI3
aI1
aI1
aI1
aI1
aI128
aI1
aI1
aI1
aI1
aI1
aI3
aI1
aI1
aI1
aI1
aI1
aI1
aI1
aI1
aI1
aI1
aI1
aI1
aI1
aI1
aI9
aI6
aI1
aI1
aI3
aI9
aI26
aI1
aI28
aI3
aI1
aI1
aI2
aI1
aI1
aI1
aI1
aI1
aI1
aI1
aI1
aI5
aI1
aI1
aI17
aI1
aI3
aI3
aI1
aI1
aI1
aI1
aI1
aI1
aI4
aI3
aI4
aI1
aI1
aI1
aI2
aI1
aI1
aI3
aI1
aI1
aI9
aI1
aI1
aI1
aI2
aI1
aI3
aI1
aI12
aI20
aI5
aI1
aI3
aI1
aI1
aI1
aI2
aI1
aI1
aI1
aI1
aI1
aI1
aI6
aI1
aI1
aI1
aI1
aI1
aI3
aI1
aI1
aI1
aI2
aI3
aI1
aI1
aI1
aI1
aI3
aI2
aI1
aI1
aI1
aI1
aI1
aI2
aI17
aI1
aI1
aI45
aI1
aI10
aI1
aI1
aI1
aI1
aI1
aI4
aI1
aI2
aI1
aI2
aI1
aI3
aI1
aI1
aI1
aI25
aI1
aI3
aI1
aI2
aI2
aI3
aI7
aI1
aI1
aI2
aI1
aI1
aI1
aI1
aI2
aI39
aI1
aI1
aI1
aI1
aI1
aI2
aI6
aI1
aI1
aI1
aI1
aI1
aI1
aI5
aI2
aI1
aI1
aI3
aI2
aI3
aI2
aI1
aI3
aI1
aI1
aI1
aI1
aI1
aI1
aI1
aI1
aI1
aI1
aI2
aI2
aI1
aI1
aI1
aI3
aI1
aI4
aI18
aI1
aI28
aI1
aI1
aI1
aI1
aI2
aI1
aI1
aI1
aI15
aI1
aI1
aI4
aI1
aI1
aI1
aI1
aI1
aI1
aI1
aI2
aI1
aI3
aI2
aI2
aI2
aI1
aI1
aI1
aI1
aI1
aI1
aI3
aI1
aI1
aI1
aI1
aI800
aI1
aI1
aI2
aI34
aI9
aI1
aI1
aI1
aI1
aI1
aI1
aI2
aI1
aI1
aI1
aI1
aI2
aI1
aI1
aI1
aI1
aI1
aI1
aI1
aI1
aI1
aI1
aI2
aI1
aI1
aI1
aI1
aI1
aI2
aI6
aI1
aI1
aI1
aI1
aI4
aI1
aI2
aI1
aI9
aI1
aI1
aI1
aI2
aI3
aI3
aI4
aI1
aI1
aI2
aI1
aI1
aI1
aI2
aI1
aI1
aI1
aI3
aI2
aI1
aI1
aI1
aI7
aI1
aI4
aI1
aI1
aI3
aI1
aI1
aI5
aI1
aI1
aI1
aI1
aI1
aI1
aI65
aI229
aI1
aI1
aI1
aI1
aI1
aI1
aI5
aI1
aI2
aI2
aI1
aI1
aI1
aI1
aI3
aI1
aI1
aI4
aI1
aI1
aI2
aI1
aI1
aI1
aI1
aI1
aI1
aI4
aI158
aI1
aI1
aI66
aI1
aI1
aI2
aI16
aI1
aI1
aI1
aI1
aI1
aI1
aI1
aI1
aI1
aI2
aI1
aI1
aI1
aI2
aI1
aI1
aI3
aI2
aI1
aI2
aI1
aI1
aI1
aI2
aI4
aI1
aI1
aI1
aI1
aI2
aI3
aI1
aI1
aI2
aI1
aI1
aI1
aI1
aI9
aI1
aI4
aI19
aI1
aI2
aI1
aI1
aI1
aI1
aI3
aI1
aI1
aI21
aI2
aI2
aI1
aI4
aI3
aI3
aI1
aI2
aI1
aI1
aI2
aI2
aI1
aI1
aI1
aI2
aI13
aI1
aI1
aI3
aI1
aI1
aI1
aI2
aI1
aI2
aI1
aI2
aI1
aI1
aI1
aI1
aI1
aI5
aI1
aI2
aI1
aI1
aI1
aI3
aI1
aI1
aI1
aI1
aI1
aI7
aI1
aI5
aI140
aI1
aI3
aI4
aI4
aI1
aI4
aI2
aI4
aI1
aI2
aI3
aI2
aI1
aI1
aI2
aI1
aI1
aI2
aI5
aI1
aI1
aI3
aI1
aI2
aI1
aI1
aI1
aI18
aI1
aI1
aI1
aI1
aI3
aI5
aI1
aI6
aI7
aI2
aI2
aI5
aI3
aI1
aI1
aI27
aI7
aI1
aI1
aI25
aI1
aI1
aI1
aI2
aI1
aI1
aI1
aI1
aI1
aI1
aI1
aI1
aI1
aI1
aI1
aI1
aI1
aI8
aI1
aI1
aI1
aI2
aI1
aI1
aI1
aI1
aI1
aI3
aI1
aI31
aI1
aI1
aI1
aI1
aI2
aI11
aI5
aI1
aI1
aI1
aI1
aI1
aI1
aI2
aI8
aI3
aI5
aI1
aI2
aI1
aI1
aI1
aI1
aI1
aI2
aI1
aI1
aI1
aI1
aI1
aI1
aI11
aI1
aI1
aI3
aI1
aI77
aI1
aI3
aI1
aI3
aI1
aI2
aI1
aI2
aI1
aI1
aI3
aI18
aI2
aI2
aI10
aI3
aI1
aI1
aI4
aI1
aI2
aI1
aI1
aI1
aI1
aI1
aI3
aI1
aI1
aI1
aI1
aI2
aI1
aI2
aI3
aI1
aI1
aI1
aI1
aI2
aI1
aI1
aI11
aI1
aI1
aI1
aI2
aI2
aI1
aI1
aI1
aI3
aI2
aI2
aI1
aI1
aI1
aI1
aI1
aI9
aI1
aI3
aI1
aI1
aI1
aI2
aI1
aI1
aI8
aI1
aI4
aI1
aI2
aI1
aI2
aI2
aI1
aI5
aI1
aI1
aI2
aI1
aI6
aI1
aI1
aI1
aI5
aI1
aI1
aI1
aI2
aI9
aI13
aI2
aI2
aI1
aI3
aI27
aI1
aI1
aI6
aI5
aI2
aI1
aI1
aI1
aI1
aI16
aI1
aI1
aI1
aI1
aI6
aI1
aI1
aI3
aI1
aI1
aI4
aI1
aI1
aI1
aI1
aI2
aI1
aI1
aI1
aI1
aI4
aI1
aI1
aI3
aI4
aI1
aI71
aI1
aI1
aI1
aI2
aI1
aI2
aI2
aI3
aI3
aI440
aI1
aI1
aI1
aI1
aI1
aI1
aI1
aI1
aI1
aI4
aI5
aI1
aI3
aI1
aI1
aI1
aI1
aI4
aI1
aI1
aI1
aI1
aI1
aI2
aI3
aI1
aI2
aI1
aI1
aI1
aI1
aI2
aI3
aI1
aI1
aI8
aI1
aI7
aI1
aI2
aI1
aI2
aI1
aI1
aI1
aI1
aI1
aI1
aI4
aI1
aI1
aI2
aI2
aI2
aI1
aI1
aI1
aI1
aI1
aI1
aI1
aI1
aI1
aI16
aI1
aI2
aI4
aI1
aI2
aI1
aI1
aI1
aI1
aI1
aI1
aI1
aI1
aI2
aI6
aI1
aI1
aI1
aI94
aI1
aI7
aI1
aI1
aI5
aI5
aI1
aI1
aI1
aI1
aI1
aI2
aI3
aI2
aI2
aI1
aI1
aI1
aI5
aI1
aI3
aI1
aI1
aI1
aI2
aI1
aI2
aI1
aI101
aI1
aI1
aI46
aI1
aI1
aI1
aI21
aI2
aI107
aI1
aI1
aI2
aI1
aI1
aI1
aI1
aI1
aI3
aI1
aI3
aI414
aI1
aI1
aI3
aI12
aI1
aI2
aI5
aI2
aI1
aI1
aI1
aI1
aI1
aI1
aI3
aI1
aI7
aI2
aI1
aI7
aI1
aI1
aI6
aI1
aI3
aI1
aI1
aI1
aI3
aI2
aI1
aI2
aI1
aI1
aI1
aI1
aI2
aI2
aI2
aI5
aI1
aI1
aI1
aI1
aI2
aI2
aI1
aI1
aI3
aI2
aI2
aI9
aI1
aI1
aI1
aI2
aI2
aI2
aI1
aI1
aI2
aI3
aI2
aI1
aI4
aI2
aI1
aI2
aI1
aI5
aI1
aI1
aI1
aI1
aI2
aI1
aI2
aI2
aI3
aI1
aI2
aI1
aI1
aI1
aI1
aI1
aI1
aI1
aI6
aI1
aI1
aI1
aI2
aI1
aI1
aI1
aI3
aI1
aI1
aI1
aI1
aI4
aI4
aI4
aI2
aI1
aI4
aI1
aI1
aI1
aI2
aI1
aI3
aI2
aI1
aI8
aI1
aI1
aI1
aI1
aI1
aI2
aI1
aI1
aI3
aI5
aI1
aI1
aI9
aI1
aI1
aI1
aI2
aI1
aI2
aI1
aI2
aI1
aI1
aI4
aI1
aI1
aI2
aI1
aI1
aI1
aI3
aI2
aI4
aI3
aI1
aI20
aI1
aI1
aI1
aI1
aI1
aI1
aI1
aI1
aI1
aI1
aI1
aI1
aI1
aI1
aI2
aI1
aI1
aI1
aI1
aI1
aI1
aI1
aI5
aI2
aI2
aI1
aI1
aI1
aI1
aI7
aI5
aI1
aI2
aI1
aI38
aI1
aI1
aI1
aI1
aI3
aI2
aI1
aI1
aI1
aI4
aI2
aI3
aI1
aI6
aI2
aI1
aI1
aI4
aI1
aI1
aI1
aI1
aI2
aI3
aI1
aI3
aI1
aI4
aI1
aI1
aI1
aI36
aI1
aI3
aI1
aI2
aI1
aI1
aI2
aI1
aI1
aI1
aI1
aI3
aI1
aI2
aI2
aI2
aI10
aI4
aI2
aI1
aI1
aI1
aI1
aI1
aI6
aI1
aI3
aI1
aI1
aI4
aI1
aI1
aI1
aI1
aI2
aI1
aI2
aI1
aI6
aI4
aI1
aI1
aI1
aI2
aI3
aI1
aI1
aI1
aI1
aI1
aI2
aI1
aI1
aI1
aI1
aI1
aI1
aI2
aI1
aI1
aI1
aI15
aI3
aI6
aI1
aI3
aI32
aI1
aI1
aI4
aI4
aI8
aI1
aI1
aI1
aI1
aI2
aI1
aI3
aI23
aI3
aI1
aI23
aI2
aI27
aI3
aI1
aI1
aI1
aI1
aI1
aI2
aI2
aI75
aI1
aI1
aI1
aI2
aI3
aI1
aI1
aI1
aI1
aI1
aI2
aI2
aI1
aI9
aI1
aI2
aI5
aI37
aI1
aI1
aI1
aI1
aI1
aI1
aI2
aI1
aI3
aI1
aI2
aI4
aI1
aI2
aI1
aI1
aI1
aI4
aI1
aI7
aI2
aI2
aI1
aI3
aI1
aI1
aI1
aI1
aI1
aI1
aI2
aI3
aI1
aI2
aI3
aI7
aI1
aI1
aI1
aI3
aI3
aI1
aI2
aI1
aI13
aI1
aI1
aI1
aI1
aI1
aI1
aI1
aI1
aI1
aI1
aI1
aI10
aI2
aI4
aI1
aI1
aI4
aI1
aI1
aI4
aI10
aI3
aI1
aI3
aI1
aI1
aI1
aI1
aI1
aI1
aI1
aI5
aI2
aI5
aI2
aI1
aI3
aI3
aI2
aI1
aI1
aI2
aI1
aI157
aI48
aI1
aI1
aI1
aI1
aI1
aI1
aI1
aI1
aI1
aI11
aI1
aI1
aI1
aI1
aI3
aI1
aI1
aI1
aI1
aI1
aI1
aI1
aI1
aI1
aI1
aI3
aI1
aI1
aI1
aI2
aI1
aI1
aI18
aI4
aI44
aI1
aI3
aI1
aI1
aI1
aI1
aI1
aI1
aI59
aI1
aI1
aI1
aI1
aI2
aI1
aI1
aI1
aI3
aI1
aI3
aI1
aI4
aI1
aI1
aI2
aI1
aI2
aI1
aI1
aI5
aI1
aI2
aI1
aI41
aI1
aI3
aI1
aI1
aI1
aI1
aI3
aI1
aI1
aI1
aI1
aI1
aI1
aI1
aI2
aI32
aI3
aI1
aI2
aI1
aI1
aI1
aI2
aI1
aI1
aI1
aI1
aI1
aI3
aI1
aI8
aI1
aI1
aI1
aI8
aI2
aI2
aI2
aI1
aI2
aI1
aI1
aI1
aI2
aI1
aI1
aI3
aI3
aI1
aI1
aI6
aI1
aI9
aI1
aI2
aI5
aI1
aI1
aI3
aI6
aI3
aI2
aI1
aI1
aI1
aI1
aI4
aI1
aI7
aI1
aI1
aI1
aI2
aI1
aI1
aI1
aI1
aI2
aI1
aI7
aI1
aI3
aI10
aI2
aI4
aI1
aI1
aI3
aI1
aI2
aI2
aI1
aI2
aI3
aI2
aI1
aI1
aI1
aI1
aI2
aI1
aI1
aI1
aI1
aI1
aI1
aI1
aI3
aI1
aI2
aI1
aI16
aI1
aI1
aI1
aI2
aI2
aI1
aI1
aI9
aI1
aI1
aI1
aI1
aI1
aI1
aI2
aI1
aI1
aI1
aI1
aI1
aI1
aI1
aI1
aI2
aI2
aI2
aI1
aI1
aI1
aI1
aI1
aI6
aI7
aI9
aI9
aI1
aI2
aI3
aI1
aI2
aI1
aI3
aI3
aI1
aI1
aI3
aI1
aI1
aI2
aI1
aI1
aI2
aI1
aI1
aI1
aI4
aI1
aI11
aI1
aI1
aI1
aI6
aI1
aI1
aI1
aI1
aI1
aI6
aI3
aI1
aI1
aI1
aI1
aI4
aI2
aI1
aI1
aI2
aI1
aI1
aI1
aI3
aI1
aI2
aI3
aI7
aI1
aI1
aI1
aI2
aI1
aI1
aI1
aI1
aI1
aI2
aI4
aI1
aI1
aI1
aI1
aI1
aI2
aI1
aI1
aI2
aI1
aI1
aI1
aI1
aI1
aI1
aI1
aI1
aI1
aI2
aI1
aI1
aI1
aI1
aI1
aI1
aI1
aI3
aI1
aI4
aI1
aI1
aI2
aI1
aI1
aI1
aI1
a.